(dp1
S'grad_clip'
p2
F2
sS'dim'
p3
I1024
sS'optimizer'
p4
S'adam'
p5
sS'dim_word'
p6
I300
sS'n_words'
p7
I8919
sS'batch_size'
p8
I128
sS'encoder'
p9
S'gru'
p10
sS'maxlen_w'
p11
I100
sS'saveto'
p12
S'/ais/gobi3/u/rkiros/uvsmodels/f8k.npz'
p13
sS'ncon'
p14
I100
sS'max_epochs'
p15
I50
sS'dim_image'
p16
I4096
sS'dispFreq'
p17
I10
sS'decay_c'
p18
F0
sS'margin'
p19
F0.20000000000000001
sS'reload_'
p20
I00
sS'validFreq'
p21
I100
s.