ccollections
OrderedDict
p1
((lp2
(lp3
S'No'
p4
aI2
aa(lp5
S'is'
p6
aI3
aa(lp7
S'are'
p8
aI4
aa(lp9
S'The'
p10
aI5
aa(lp11
S'the'
p12
aI6
aa(lp13
S'and'
p14
aI7
aa(lp15
S'of'
p16
aI8
aa(lp17
S'acute'
p18
aI9
aa(lp19
S'XXXX'
p20
aI10
aa(lp21
S'or'
p22
aI11
aa(lp23
S'pleural'
p24
aI12
aa(lp25
S'There'
p26
aI13
aa(lp27
S'normal'
p28
aI14
aa(lp29
S'focal'
p30
aI15
aa(lp31
S'size'
p32
aI16
aa(lp33
S'no'
p34
aI17
aa(lp35
S'in'
p36
aI18
aa(lp37
S'within'
p38
aI19
aa(lp39
S'cardiopulmonary'
p40
aI20
aa(lp41
S'lungs'
p42
aI21
aa(lp43
S'pulmonary'
p44
aI22
aa(lp45
S'normal.'
p46
aI23
aa(lp47
S'Heart'
p48
aI24
aa(lp49
S'pneumothorax.'
p50
aI25
aa(lp51
S'disease.'
p52
aI26
aa(lp53
S'right'
p54
aI27
aa(lp55
S'limits.'
p56
aI28
aa(lp57
S'heart'
p58
aI29
aa(lp59
S'with'
p60
aI30
aa(lp61
S'effusion.'
p62
aI31
aa(lp63
S'airspace'
p64
aI32
aa(lp65
S'clear.'
p66
aI33
aa(lp67
S'left'
p68
aI34
aa(lp69
S'abnormality.'
p70
aI35
aa(lp71
S'pneumothorax'
p72
aI36
aa(lp73
S'effusion'
p74
aI37
aa(lp75
S'silhouette'
p76
aI38
aa(lp77
S'lung'
p78
aI39
aa(lp79
S'mediastinal'
p80
aI40
aa(lp81
S'evidence'
p82
aI41
aa(lp83
S'clear'
p84
aI42
aa(lp85
S'changes'
p86
aI43
aa(lp87
S'consolidation,'
p88
aI44
aa(lp89
S'cardiomediastinal'
p90
aI45
aa(lp91
S'without'
p92
aI46
aa(lp93
S'structures'
p94
aI47
aa(lp95
S'Lungs'
p96
aI48
aa(lp97
S'for'
p98
aI49
aa(lp99
S'to'
p100
aI50
aa(lp101
S'unremarkable.'
p102
aI51
aa(lp103
S'thoracic'
p104
aI52
aa(lp105
S'mediastinum'
p106
aI53
aa(lp107
S'a'
aI54
aa(lp108
S'Stable'
p109
aI55
aa(lp110
S'spine.'
p111
aI56
aa(lp112
S'Normal'
p113
aI57
aa(lp114
S'upper'
p115
aI58
aa(lp116
S'appear'
p117
aI59
aa(lp118
S'consolidation.'
p119
aI60
aa(lp120
S'XXXX.'
p121
aI61
aa(lp122
S'large'
p123
aI62
aa(lp124
S'chest'
p125
aI63
aa(lp126
S'findings.'
p127
aI64
aa(lp128
S'effusion,'
p129
aI65
aa(lp130
S'size.'
p131
aI66
aa(lp132
S'contours'
p133
aI67
aa(lp134
S'bony'
p135
aI68
aa(lp136
S'pneumothorax,'
p137
aI69
aa(lp138
S'limits'
p139
aI70
aa(lp140
S'vascularity'
p141
aI71
aa(lp142
S'seen.'
p143
aI72
aa(lp144
S'active'
p145
aI73
aa(lp146
S'intact.'
p147
aI74
aa(lp148
S'lower'
p149
aI75
aa(lp150
S'identified.'
p151
aI76
aa(lp152
S'process.'
p153
aI77
aa(lp154
S'osseous'
p155
aI78
aa(lp156
S'lateral'
p157
aI79
aa(lp158
S'degenerative'
p159
aI80
aa(lp160
S'contour.'
p161
aI81
aa(lp162
S'mild'
p163
aI82
aa(lp164
S'lobe'
p165
aI83
aa(lp166
S'calcified'
p167
aI84
aa(lp168
S'Mild'
p169
aI85
aa(lp170
S'abnormalities.'
p171
aI86
aa(lp172
S'on'
p173
aI87
aa(lp174
S'cardiac'
p175
aI88
aa(lp176
S'be'
p177
aI89
aa(lp178
S'vasculature'
p179
aI90
aa(lp180
S'opacity'
p181
aI91
aa(lp182
S'effusions.'
p183
aI92
aa(lp184
S'air'
p185
aI93
aa(lp186
S'may'
p187
aI94
aa(lp188
S'disease'
p189
aI95
aa(lp190
S'interstitial'
p191
aI96
aa(lp192
S'lungs.'
p193
aI97
aa(lp194
S'edema.'
p195
aI98
aa(lp196
S'Pulmonary'
p197
aI99
aa(lp198
S'opacities'
p199
aI100
aa(lp200
S'Negative'
p201
aI101
aa(lp202
S'stable'
p203
aI102
aa(lp204
S'contour'
p205
aI103
aa(lp206
S'bilateral'
p207
aI104
aa(lp208
S'atelectasis.'
p209
aI105
aa(lp210
S'prior'
p211
aI106
aa(lp212
S'atelectasis'
p213
aI107
aa(lp214
S'bilaterally.'
p215
aI108
aa(lp216
S'noted.'
p217
aI109
aa(lp218
S'grossly'
p219
aI110
aa(lp220
S'Right'
p221
aI111
aa(lp222
S'Cardiomediastinal'
p223
aI112
aa(lp224
S'aorta.'
p225
aI113
aa(lp226
S'space'
p227
aI114
aa(lp228
S'free'
p229
aI115
aa(lp230
S'Mediastinal'
p231
aI116
aa(lp232
S'Visualized'
p233
aI117
aa(lp234
S'findings'
p235
aI118
aa(lp236
S'hilar'
p237
aI119
aa(lp238
S'volumes'
p239
aI120
aa(lp240
S'small'
p241
aI121
aa(lp242
S'effusions'
p243
aI122
aa(lp244
S'nodules'
p245
aI123
aa(lp246
S'rib'
p247
aI124
aa(lp248
S'basilar'
p249
aI125
aa(lp250
S'Degenerative'
p251
aI126
aa(lp252
S'which'
p253
aI127
aa(lp254
S'seen'
p255
aI128
aa(lp256
S'at'
p257
aI129
aa(lp258
S'pneumonia.'
p259
aI130
aa(lp260
S'Left'
p261
aI131
aa(lp262
S'Low'
p263
aI132
aa(lp264
S'definite'
p265
aI133
aa(lp266
S'visible'
p267
aI134
aa(lp268
S'Bony'
p269
aI135
aa(lp270
S'from'
p271
aI136
aa(lp272
S'Cardiac'
p273
aI137
aa(lp274
S'disease,'
p275
aI138
aa(lp276
S'thorax'
p277
aI139
aa(lp278
S'abnormality'
p279
aI140
aa(lp280
S'represent'
p281
aI141
aa(lp282
S'present'
p283
aI142
aa(lp284
S'Calcified'
p285
aI143
aa(lp286
S'Clear'
p287
aI144
aa(lp288
S'vascular'
p289
aI145
aa(lp290
S'infiltrate.'
p291
aI146
aa(lp292
S'consistent'
p293
aI147
aa(lp294
S'radiographic'
p295
aI148
aa(lp296
S'spine'
p297
aI149
aa(lp298
S'contours.'
p299
aI150
aa(lp300
S'visualized'
p301
aI151
aa(lp302
S'cardiomegaly.'
p303
aI152
aa(lp304
S'pneumothoraces.'
p305
aI153
aa(lp306
S'base'
p307
aI154
aa(lp308
S'chest.'
p309
aI155
aa(lp310
S'not'
p311
aI156
aa(lp312
S'XXXX,'
p313
aI157
aa(lp314
S'otherwise'
p315
aI158
aa(lp316
S'chronic'
p317
aI159
aa(lp318
S'appears'
p319
aI160
aa(lp320
S'granulomatous'
p321
aI161
aa(lp322
S'stable.'
p323
aI162
aa(lp324
S'granuloma'
p325
aI163
aa(lp326
S'opacity,'
p327
aI164
aa(lp328
S'mildly'
p329
aI165
aa(lp330
S'silhouette.'
p331
aI166
aa(lp332
S'tip'
p333
aI167
aa(lp334
S'suspicious'
p335
aI168
aa(lp336
S'lobe.'
p337
aI169
aa(lp338
S'costophrenic'
p339
aI170
aa(lp340
S'soft'
p341
aI171
aa(lp342
S'scarring'
p343
aI172
aa(lp344
S'enlarged.'
p345
aI173
aa(lp346
S'volumes.'
p347
aI174
aa(lp348
S'areas'
p349
aI175
aa(lp350
S'Both'
p351
aI176
aa(lp352
S'masses.'
p353
aI177
aa(lp354
S'expanded.'
p355
aI178
aa(lp356
S'opacities.'
p357
aI179
aa(lp358
S'lymph'
p359
aI180
aa(lp360
S'appearance'
p361
aI181
aa(lp362
S'appearance.'
p363
aI182
aa(lp364
S'overlying'
p365
aI183
aa(lp366
S'This'
p367
aI184
aa(lp368
S'consolidation'
p369
aI185
aa(lp370
S'aortic'
p371
aI186
aa(lp372
S'alveolar'
p373
aI187
aa(lp374
S'suggest'
p375
aI188
aa(lp376
S'central'
p377
aI189
aa(lp378
S'infiltrate'
p379
aI190
aa(lp380
S'noted'
p381
aI191
aa(lp382
S'increased'
p383
aI192
aa(lp384
S'posterior'
p385
aI193
aa(lp386
S'Specifically,'
p387
aI194
aa(lp388
S'an'
p389
aI195
aa(lp390
S'previous'
p391
aI196
aa(lp392
S'anterior'
p393
aI197
aa(lp394
S'bibasilar'
p395
aI198
aa(lp396
S'versus'
p397
aI199
aa(lp398
S'low'
p399
aI200
aa(lp400
S'cardiomegaly'
p401
aI201
aa(lp402
S'scarring.'
p403
aI202
aa(lp404
S'Osseous'
p405
aI203
aa(lp406
S'density'
p407
aI204
aa(lp408
S'there'
p409
aI205
aa(lp410
S'has'
p411
aI206
aa(lp412
S'Minimal'
p413
aI207
aa(lp414
S'base.'
p415
aI208
aa(lp416
S'typical'
p417
aI209
aa(lp418
S'opacity.'
p419
aI210
aa(lp420
S'spaces'
p421
aI211
aa(lp422
S'but'
p423
aI212
aa(lp424
S'aorta'
p425
aI213
aa(lp426
S'as'
p427
aI214
aa(lp428
S'unchanged'
p429
aI215
aa(lp430
S'bronchovascular'
p431
aI216
aa(lp432
S'have'
p433
aI217
aa(lp434
S'compatible'
p435
aI218
aa(lp436
S'patchy'
p437
aI219
aa(lp438
S'subsegmental'
p439
aI220
aa(lp440
S'tissues'
p441
aI221
aa(lp442
S'Small'
p443
aI222
aa(lp444
S'unchanged.'
p445
aI223
aa(lp446
S'examination'
p447
aI224
aa(lp448
S'change'
p449
aI225
aa(lp450
S'show'
p451
aI226
aa(lp452
S'nodule'
p453
aI227
aa(lp454
S'sternotomy'
p455
aI228
aa(lp456
S'effusions,'
p457
aI229
aa(lp458
S'A'
aI230
aa(lp459
S'opacities,'
p460
aI231
aa(lp461
S'again'
p462
aI232
aa(lp463
S'infiltrates.'
p464
aI233
aa(lp465
S'patient'
p466
aI234
aa(lp467
S'could'
p468
aI235
aa(lp469
S'displaced'
p470
aI236
aa(lp471
S'over'
p472
aI237
aa(lp473
S'present.'
p474
aI238
aa(lp475
S'Cardiomegaly'
p476
aI239
aa(lp477
S'minimal'
p478
aI240
aa(lp479
S'calcifications'
p480
aI241
aa(lp481
S'catheter'
p482
aI242
aa(lp483
S'views'
p484
aI243
aa(lp485
S'further'
p486
aI244
aa(lp487
S'skeletal'
p488
aI245
aa(lp489
S'cm'
p490
aI246
aa(lp491
S'Cardio'
p492
aI247
aa(lp493
S'most'
p494
aI248
aa(lp495
S'this'
p496
aI249
aa(lp497
S'than'
p498
aI250
aa(lp499
S'middle'
p500
aI251
aa(lp501
S'atherosclerotic'
p502
aI252
aa(lp503
S'effusion..'
p504
aI253
aa(lp505
S'normally'
p506
aI254
aa(lp507
S'nodular'
p508
aI255
aa(lp509
S'markings'
p510
aI256
aa(lp511
S'interval.'
p512
aI257
aa(lp513
S'inflated'
p514
aI258
aa(lp515
S'clips'
p516
aI259
aa(lp517
S'mm'
p518
aI260
aa(lp519
S'clear,'
p520
aI261
aa(lp521
S'CT'
p522
aI262
aa(lp523
S'granuloma.'
p524
aI263
aa(lp525
S'edema,'
p526
aI264
aa(lp527
S'frontal'
p528
aI265
aa(lp529
S'blunting'
p530
aI266
aa(lp531
S'hemidiaphragm.'
p532
aI267
aa(lp533
S'midline.'
p534
aI268
aa(lp535
S'midlung'
p536
aI269
aa(lp537
S'fracture'
p538
aI270
aa(lp539
S'mid'
p540
aI271
aa(lp541
S'interval'
p542
aI272
aa(lp543
S'due'
p544
aI273
aa(lp545
S'deformity'
p546
aI274
aa(lp547
S'prominent'
p548
aI275
aa(lp549
S'emphysema.'
p550
aI276
aa(lp551
S'fractures'
p552
aI277
aa(lp553
S'hemidiaphragm'
p554
aI278
aa(lp555
S'old'
p556
aI279
aa(lp557
S'bone'
p558
aI280
aa(lp559
S'vertebral'
p560
aI281
aa(lp561
S'Thoracic'
p562
aI282
aa(lp563
S'edema'
p564
aI283
aa(lp565
S'been'
p566
aI284
aa(lp567
S'silhouettes'
p568
aI285
aa(lp569
S'hiatal'
p570
aI286
aa(lp571
S'secondary'
p572
aI287
aa(lp573
S'spondylosis.'
p574
aI288
aa(lp575
S'streaky'
p576
aI289
aa(lp577
S'view'
p578
aI290
aa(lp579
S'changes.'
p580
aI291
aa(lp581
S'Lung'
p582
aI292
aa(lp583
S'Bilateral'
p584
aI293
aa(lp585
S'fractures.'
p586
aI294
aa(lp587
S'diaphragm.'
p588
aI295
aa(lp589
S'exam.'
p590
aI296
aa(lp591
S'moderate'
p592
aI297
aa(lp593
S'contour,'
p594
aI298
aa(lp595
S'perihilar'
p596
aI299
aa(lp597
S'tissue'
p598
aI300
aa(lp599
S'significant'
p600
aI301
aa(lp601
S'view.'
p602
aI302
aa(lp603
S'pneumonia,'
p604
aI303
aa(lp605
S'trachea'
p606
aI304
aa(lp607
S'size,'
p608
aI305
aa(lp609
S'apical'
p610
aI306
aa(lp611
S'radiographs'
p612
aI307
aa(lp613
S'surgical'
p614
aI308
aa(lp615
S'limits,'
p616
aI309
aa(lp617
S'Chest.'
p618
aI310
aa(lp619
S'Interval'
p620
aI311
aa(lp621
S'hernia.'
p622
aI312
aa(lp623
S'appearing'
p624
aI313
aa(lp625
S'tortuous'
p626
aI314
aa(lp627
S'abnormality..'
p628
aI315
aa(lp629
S'prominence'
p630
aI316
aa(lp631
S'Prominent'
p632
aI317
aa(lp633
S'finding.'
p634
aI318
aa(lp635
S'granulomas.'
p636
aI319
aa(lp637
S'Chronic'
p638
aI320
aa(lp639
S'crowding'
p640
aI321
aa(lp641
S'2'
aI322
aa(lp642
S'well'
p643
aI323
aa(lp644
S'possibly'
p645
aI324
aa(lp646
S'greater'
p647
aI325
aa(lp648
S'enlarged'
p649
aI326
aa(lp650
S'projecting'
p651
aI327
aa(lp652
S'since'
p653
aI328
aa(lp654
S'evaluation'
p655
aI329
aa(lp656
S'PA'
p657
aI330
aa(lp658
S'x-XXXX.'
p659
aI331
aa(lp660
S'compared'
p661
aI332
aa(lp662
S'comparison'
p663
aI333
aa(lp664
S'infiltrates'
p665
aI334
aa(lp666
S'adenopathy,'
p667
aI335
aa(lp668
S'granulomas'
p669
aI336
aa(lp670
S'elevation'
p671
aI337
aa(lp672
S'area'
p673
aI338
aa(lp674
S'Well-expanded'
p675
aI339
aa(lp676
S'right-sided'
p677
aI340
aa(lp678
S'suggestive'
p679
aI341
aa(lp680
S'was'
p681
aI342
aa(lp682
S'venous'
p683
aI343
aa(lp684
S'unremarkable'
p685
aI344
aa(lp686
S'infiltrate,'
p687
aI345
aa(lp688
S'medial'
p689
aI346
aa(lp690
S'lung.'
p691
aI347
aa(lp692
S'Tortuous'
p693
aI348
aa(lp694
S'Aortic'
p695
aI349
aa(lp696
S'tortuosity'
p697
aI350
aa(lp698
S'obtained.'
p699
aI351
aa(lp700
S'abdomen'
p701
aI352
aa(lp702
S'crowding.'
p703
aI353
aa(lp704
S'identified'
p705
aI354
aa(lp706
S'fracture.'
p707
aI355
aa(lp708
S'Hyperexpanded'
p709
aI356
aa(lp710
S'scattered'
p711
aI357
aa(lp712
S'SVC.'
p713
aI358
aa(lp714
S'also'
p715
aI359
aa(lp716
S'were'
p717
aI360
aa(lp718
S'under'
p719
aI361
aa(lp720
S'some'
p721
aI362
aa(lp722
S'would'
p723
aI363
aa(lp724
S'calcification'
p725
aI364
aa(lp726
S'consolidations.'
p727
aI365
aa(lp728
S'represents'
p729
aI366
aa(lp730
S'study.'
p731
aI367
aa(lp732
S'vascularity.'
p733
aI368
aa(lp734
S'Moderate'
p735
aI369
aa(lp736
S'heart,'
p737
aI370
aa(lp738
S'bilaterally'
p739
aI371
aa(lp740
S'nodule.'
p741
aI372
aa(lp742
S'If'
p743
aI373
aa(lp744
S'Scattered'
p745
aI374
aa(lp746
S'throughout'
p747
aI375
aa(lp748
S'Borderline'
p749
aI376
aa(lp750
S'distal'
p751
aI377
aa(lp752
S'consists'
p753
aI378
aa(lp754
S'Frontal'
p755
aI379
aa(lp756
S'study'
p757
aI380
aa(lp758
S'Bibasilar'
p759
aI381
aa(lp760
S'pneumonia'
p761
aI382
aa(lp762
S'approximately'
p763
aI383
aa(lp764
S'both'
p765
aI384
aa(lp766
S'slightly'
p767
aI385
aa(lp768
S'tuberculosis.'
p769
aI386
aa(lp770
S'change.'
p771
aI387
aa(lp772
S'Multiple'
p773
aI388
aa(lp774
S'thoracolumbar'
p775
aI389
aa(lp776
S'near'
p777
aI390
aa(lp778
S'intraperitoneal'
p779
aI391
aa(lp780
S'hyperexpanded.'
p781
aI392
aa(lp782
S'hyperexpanded'
p783
aI393
aa(lp784
S'body'
p785
aI394
aa(lp786
S'superior'
p787
aI395
aa(lp788
S'Recommend'
p789
aI396
aa(lp790
S'associated'
p791
aI397
aa(lp792
S'tortuous.'
p793
aI398
aa(lp794
S'Mildly'
p795
aI399
aa(lp796
S'Otherwise,'
p797
aI400
aa(lp798
S'Limited'
p799
aI401
aa(lp800
S'suggesting'
p801
aI402
aa(lp802
S'fluid.'
p803
aI403
aa(lp804
S'mass'
p805
aI404
aa(lp806
S'representing'
p807
aI405
aa(lp808
S'by'
p809
aI406
aa(lp810
S'midthoracic'
p811
aI407
aa(lp812
S'vasculature.'
p813
aI408
aa(lp814
S'AP'
p815
aI409
aa(lp816
S'cervical'
p817
aI410
aa(lp818
S'infection.'
p819
aI411
aa(lp820
S'any'
p821
aI412
aa(lp822
S'retrocardiac'
p823
aI413
aa(lp824
S'lungs,'
p825
aI414
aa(lp826
S'exam'
p827
aI415
aa(lp828
S'remains'
p829
aI416
aa(lp830
S'These'
p831
aI417
aa(lp832
S'emphysematous'
p833
aI418
aa(lp834
S'configuration.'
p835
aI419
aa(lp836
S'if'
p837
aI420
aa(lp838
S'and/or'
p839
aI421
aa(lp840
S'abnormalities'
p841
aI422
aa(lp842
S'Patchy'
p843
aI423
aa(lp844
S'heart.'
p845
aI424
aa(lp846
S'left.'
p847
aI425
aa(lp848
S'Surgical'
p849
aI426
aa(lp850
S'Comparison'
p851
aI427
aa(lp852
S'reveal'
p853
aI428
aa(lp854
S'midlung.'
p855
aI429
aa(lp856
S'junction.'
p857
aI430
aa(lp858
S'limited'
p859
aI431
aa(lp860
S'diffuse'
p861
aI432
aa(lp862
S'Large'
p863
aI433
aa(lp864
S'radiograph.'
p865
aI434
aa(lp866
S'Otherwise'
p867
aI435
aa(lp868
S'similar'
p869
aI436
aa(lp870
S'volume'
p871
aI437
aa(lp872
S'demonstrated.'
p873
aI438
aa(lp874
S'flattening'
p875
aI439
aa(lp876
S'Prior'
p877
aI440
aa(lp878
S'left-sided'
p879
aI441
aa(lp880
S'examination.'
p881
aI442
aa(lp882
S'Unremarkable'
p883
aI443
aa(lp884
S'images.'
p885
aI444
aa(lp886
S'multiple'
p887
aI445
aa(lp888
S'In'
p889
aI446
aa(lp890
S'scan'
p891
aI447
aa(lp892
S'superimposed'
p893
aI448
aa(lp894
S'Atherosclerotic'
p895
aI449
aa(lp896
S'tube'
p897
aI450
aa(lp898
S'thickening'
p899
aI451
aa(lp900
S'mediastinum.'
p901
aI452
aa(lp902
S"patient's"
p903
aI453
aa(lp904
S'demonstrate'
p905
aI454
aa(lp906
S'PICC'
p907
aI455
aa(lp908
S'leads'
p909
aI456
aa(lp910
S'densities'
p911
aI457
aa(lp912
S'Findings'
p913
aI458
aa(lp914
S'remain'
p915
aI459
aa(lp916
S'evaluation.'
p917
aI460
aa(lp918
S'line'
p919
aI461
aa(lp920
S'silhouette,'
p921
aI462
aa(lp922
S'congestion.'
p923
aI463
aa(lp924
S'rib.'
p925
aI464
aa(lp926
S'top'
p927
aI465
aa(lp928
S'widening.'
p929
aI466
aa(lp930
S'hyperinflated'
p931
aI467
aa(lp932
S'related'
p933
aI468
aa(lp934
S'lobe,'
p935
aI469
aa(lp936
S'expanded'
p937
aI470
aa(lp938
S'bases.'
p939
aI471
aa(lp940
S'Cardiomegaly.'
p941
aI472
aa(lp942
S'hypoinflated'
p943
aI473
aa(lp944
S'.'
aI474
aa(lp945
S'disc'
p946
aI475
aa(lp947
S'measuring'
p948
aI476
aa(lp949
S'followup'
p950
aI477
aa(lp951
S'intact'
p952
aI478
aa(lp953
S'paratracheal'
p954
aI479
aa(lp955
S'fluid'
p956
aI480
aa(lp957
S'through'
p958
aI481
aa(lp959
S'calcification.'
p960
aI482
aa(lp961
S'level'
p962
aI483
aa(lp963
S'clinical'
p964
aI484
aa(lp965
S'enlargement'
p966
aI485
aa(lp967
S'5'
aI486
aa(lp968
S'Soft'
p969
aI487
aa(lp970
S'post'
p971
aI488
aa(lp972
S'Unchanged'
p973
aI489
aa(lp974
S'along'
p975
aI490
aa(lp976
S'Increased'
p977
aI491
aa(lp978
S'right.'
p979
aI492
aa(lp980
S'endplate'
p981
aI493
aa(lp982
S'osteophytes.'
p983
aI494
aa(lp984
S'reflect'
p985
aI495
aa(lp986
S'low.'
p987
aI496
aa(lp988
S'severe'
p989
aI497
aa(lp990
S'Pleural'
p991
aI498
aa(lp992
S'that'
p993
aI499
aa(lp994
S'known'
p995
aI500
aa(lp996
S'curvature'
p997
aI501
aa(lp998
S'recommended.'
p999
aI502
aa(lp1000
S'concerning'
p1001
aI503
aa(lp1002
S'masses'
p1003
aI504
aa(lp1004
S'postsurgical'
p1005
aI505
aa(lp1006
S'T-spine'
p1007
aI506
aa(lp1008
S'given'
p1009
aI507
aa(lp1010
S'bases'
p1011
aI508
aa(lp1012
S'COPD.'
p1013
aI509
aa(lp1014
S'biapical'
p1015
aI510
aa(lp1016
S'more'
p1017
aI511
aa(lp1018
S'demonstrated'
p1019
aI512
aa(lp1020
S'adenopathy.'
p1021
aI513
aa(lp1022
S'joint'
p1023
aI514
aa(lp1024
S'lobar'
p1025
aI515
aa(lp1026
S'engorgement'
p1027
aI516
aa(lp1028
S'Aorta'
p1029
aI517
aa(lp1030
S'lung,'
p1031
aI518
aa(lp1032
S'significantly'
p1033
aI519
aa(lp1034
S'region'
p1035
aI520
aa(lp1036
S'lobes.'
p1037
aI521
aa(lp1038
S'lumbar'
p1039
aI522
aa(lp1040
S'Probable'
p1041
aI523
aa(lp1042
S'subclavian'
p1043
aI524
aa(lp1044
S'Streaky'
p1045
aI525
aa(lp1046
S'atelectasis,'
p1047
aI526
aa(lp1048
S'overt'
p1049
aI527
aa(lp1050
S'loss'
p1051
aI528
aa(lp1052
S'base,'
p1053
aI529
aa(lp1054
S'enlarged,'
p1055
aI530
aa(lp1056
S'congestion'
p1057
aI531
aa(lp1058
S'tuberculosis'
p1059
aI532
aa(lp1060
S'radiograph'
p1061
aI533
aa(lp1062
S'descending'
p1063
aI534
aa(lp1064
S'injury.'
p1065
aI535
aa(lp1066
S'obstructive'
p1067
aI536
aa(lp1068
S'ribs.'
p1069
aI537
aa(lp1070
S'residual'
p1071
aI538
aa(lp1072
S'consider'
p1073
aI539
aa(lp1074
S'parenchymal'
p1075
aI540
aa(lp1076
S'sequela'
p1077
aI541
aa(lp1078
S'humeral'
p1079
aI542
aa(lp1080
S'underlying'
p1081
aI543
aa(lp1082
S'view,'
p1083
aI544
aa(lp1084
S'calcifications.'
p1085
aI545
aa(lp1086
S'body.'
p1087
aI546
aa(lp1088
S'Persistent'
p1089
aI547
aa(lp1090
S'process'
p1091
aI548
aa(lp1092
S'mediastinum,'
p1093
aI549
aa(lp1094
S'cardiac,'
p1095
aI550
aa(lp1096
S'reveals'
p1097
aI551
aa(lp1098
S'probable'
p1099
aI552
aa(lp1100
S'nodules.'
p1101
aI553
aa(lp1102
S'segment'
p1103
aI554
aa(lp1104
S'apex'
p1105
aI555
aa(lp1106
S'age..'
p1107
aI556
aa(lp1108
S'diaphragm'
p1109
aI557
aa(lp1110
S'possible'
p1111
aI558
aa(lp1112
S'intrathoracic'
p1113
aI559
aa(lp1114
S'thickening.'
p1115
aI560
aa(lp1116
S'deformities'
p1117
aI561
aa(lp1118
S'Old'
p1119
aI562
aa(lp1120
S'CABG.'
p1121
aI563
aa(lp1122
S'partially'
p1123
aI564
aa(lp1124
S'apex.'
p1125
aI565
aa(lp1126
S'borderline'
p1127
aI566
aa(lp1128
S'Hyperinflated'
p1129
aI567
aa(lp1130
S'clinically'
p1131
aI568
aa(lp1132
S'Emphysema'
p1133
aI569
aa(lp1134
S'metastatic'
p1135
aI570
aa(lp1136
S'history'
p1137
aI571
aa(lp1138
S'Hypoinflation'
p1139
aI572
aa(lp1140
S'Emphysema.'
p1141
aI573
aa(lp1142
S'x'
aI574
aa(lp1143
S'available'
p1144
aI575
aa(lp1145
S'resolution'
p1146
aI576
aa(lp1147
S'pericardial'
p1148
aI577
aa(lp1149
S'shoulder'
p1150
aI578
aa(lp1151
S'lucency'
p1152
aI579
aa(lp1153
S'somewhat'
p1154
aI580
aa(lp1155
S'fibrosis.'
p1156
aI581
aa(lp1157
S'6th'
p1158
aI582
aa(lp1159
S'lingular'
p1160
aI583
aa(lp1161
S'probably'
p1162
aI584
aa(lp1163
S'differential'
p1164
aI585
aa(lp1165
S'atrium.'
p1166
aI586
aa(lp1167
S'Changes'
p1168
aI587
aa(lp1169
S'Arthritic'
p1170
aI588
aa(lp1171
S'markings.'
p1172
aI589
aa(lp1173
S'contrast'
p1174
aI590
aa(lp1175
S'improved'
p1176
aI591
aa(lp1177
S'wall'
p1178
aI592
aa(lp1179
S'clips.'
p1180
aI593
aa(lp1181
S'volumes,'
p1182
aI594
aa(lp1183
S'age.'
p1184
aI595
aa(lp1185
S'abdomen.'
p1186
aI596
aa(lp1187
S'imaging'
p1188
aI597
aa(lp1189
S'Vague'
p1190
aI598
aa(lp1191
S'quadrant.'
p1192
aI599
aa(lp1193
S'position.'
p1194
aI600
aa(lp1195
S'airways'
p1196
aI601
aa(lp1197
S'atrium'
p1198
aI602
aa(lp1199
S'prior.'
p1200
aI603
aa(lp1201
S'elevated'
p1202
aI604
aa(lp1203
S'convincing'
p1204
aI605
aa(lp1205
S'one'
p1206
aI606
aa(lp1207
S'infectious'
p1208
aI607
aa(lp1209
S'configuration'
p1210
aI608
aa(lp1211
S'cardiomegaly,'
p1212
aI609
aa(lp1213
S'involving'
p1214
aI610
aa(lp1215
S'markings,'
p1216
aI611
aa(lp1217
S'clavicle'
p1218
aI612
aa(lp1219
S'atrial'
p1220
aI613
aa(lp1221
S'adjacent'
p1222
aI614
aa(lp1223
S'Postsurgical'
p1224
aI615
aa(lp1225
S'Nodular'
p1226
aI616
aa(lp1227
S'adenopathy'
p1228
aI617
aa(lp1229
S'peripheral'
p1230
aI618
aa(lp1231
S'x-XXXX'
p1232
aI619
aa(lp1233
S'amount'
p1234
aI620
aa(lp1235
S'aspect'
p1236
aI621
aa(lp1237
S'nipple'
p1238
aI622
aa(lp1239
S'9th'
p1240
aI623
aa(lp1241
S'cannot'
p1242
aI624
aa(lp1243
S'early'
p1244
aI625
aa(lp1245
S'failure.'
p1246
aI626
aa(lp1247
S'Chest'
p1248
aI627
aa(lp1249
S'Emphysematous'
p1250
aI628
aa(lp1251
S'Vascular'
p1252
aI629
aa(lp1253
S'outside'
p1254
aI630
aa(lp1255
S'recommended'
p1256
aI631
aa(lp1257
S'exclude'
p1258
aI632
aa(lp1259
S'helpful'
p1260
aI633
aa(lp1261
S'aorta,'
p1262
aI634
aa(lp1263
S'Question'
p1264
aI635
aa(lp1265
S'ventricle.'
p1266
aI636
aa(lp1267
S'overall'
p1268
aI637
aa(lp1269
S'few'
p1270
aI638
aa(lp1271
S'resolution.'
p1272
aI639
aa(lp1273
S'air.'
p1274
aI640
aa(lp1275
S'diagnosis'
p1276
aI641
aa(lp1277
S'dense'
p1278
aI642
aa(lp1279
S'Some'
p1280
aI643
aa(lp1281
S'previously'
p1282
aI644
aa(lp1283
S'ascending'
p1284
aI645
aa(lp1285
S'vasculature,'
p1286
aI646
aa(lp1287
S'Central'
p1288
aI647
aa(lp1289
S'flattened'
p1290
aI648
aa(lp1291
S'abnormal'
p1292
aI649
aa(lp1293
S'Left-sided'
p1294
aI650
aa(lp1295
S'better'
p1296
aI651
aa(lp1297
S'wedge'
p1298
aI652
aa(lp1299
S'7th'
p1300
aI653
aa(lp1301
S'atypical'
p1302
aI654
aa(lp1303
S'region.'
p1304
aI655
aa(lp1305
S'artery'
p1306
aI656
aa(lp1307
S'Multilevel'
p1308
aI657
aa(lp1309
S'persistent'
p1310
aI658
aa(lp1311
S'calcified.'
p1312
aI659
aa(lp1313
S'COPD'
p1314
aI660
aa(lp1315
S'Elevated'
p1316
aI661
aa(lp1317
S'eventration'
p1318
aI662
aa(lp1319
S'ribs'
p1320
aI663
aa(lp1321
S'technical'
p1322
aI664
aa(lp1323
S'suggests'
p1324
aI665
aa(lp1325
S'abdominal'
p1326
aI666
aa(lp1327
S'fusion'
p1328
aI667
aa(lp1329
S'technique.'
p1330
aI668
aa(lp1331
S'correlation'
p1332
aI669
aa(lp1333
S'acute,'
p1334
aI670
aa(lp1335
S'scar'
p1336
aI671
aa(lp1337
S'surgery.'
p1338
aI672
aa(lp1339
S'films'
p1340
aI673
aa(lp1341
S'projection.'
p1342
aI674
aa(lp1343
S'valve'
p1344
aI675
aa(lp1345
S'factors'
p1346
aI676
aa(lp1347
S'multilevel'
p1348
aI677
aa(lp1349
S'cavitary'
p1350
aI678
aa(lp1351
S'nodules,'
p1352
aI679
aa(lp1353
S'scoliosis'
p1354
aI680
aa(lp1355
S'aeration'
p1356
aI681
aa(lp1357
S'preoperative'
p1358
aI682
aa(lp1359
S'clavicle.'
p1360
aI683
aa(lp1361
S'other'
p1362
aI684
aa(lp1363
S'parenchyma'
p1364
aI685
aa(lp1365
S'However,'
p1366
aI686
aa(lp1367
S'hernia'
p1368
aI687
aa(lp1369
S'chest,'
p1370
aI688
aa(lp1371
S'Trachea'
p1372
aI689
aa(lp1373
S'CT.'
p1374
aI690
aa(lp1375
S'breast'
p1376
aI691
aa(lp1377
S'aerated.'
p1378
aI692
aa(lp1379
S'shoulder.'
p1380
aI693
aa(lp1381
S'osteophytes'
p1382
aI694
aa(lp1383
S'visualized.'
p1384
aI695
aa(lp1385
S'moderately'
p1386
aI696
aa(lp1387
S'6'
aI697
aa(lp1388
S'hyperexpansion'
p1389
aI698
aa(lp1390
S'inflammatory'
p1391
aI699
aa(lp1392
S'widening'
p1393
aI700
aa(lp1394
S'several'
p1395
aI701
aa(lp1396
S'inferior'
p1397
aI702
aa(lp1398
S'above'
p1399
aI703
aa(lp1400
S'foreign'
p1401
aI704
aa(lp1402
S'placement'
p1403
aI705
aa(lp1404
S'internal'
p1405
aI706
aa(lp1406
S'jugular'
p1407
aI707
aa(lp1408
S'dilated'
p1409
aI708
aa(lp1410
S'bowel'
p1411
aI709
aa(lp1412
S'recommend'
p1413
aI710
aa(lp1414
S'film.'
p1415
aI711
aa(lp1416
S'first'
p1417
aI712
aa(lp1418
S'hypertension.'
p1419
aI713
aa(lp1420
S'excluded.'
p1421
aI714
aa(lp1422
S'5th'
p1423
aI715
aa(lp1424
S'lingula.'
p1425
aI716
aa(lp1426
S'removal'
p1427
aI717
aa(lp1428
S'overlies'
p1429
aI718
aa(lp1430
S'apex,'
p1431
aI719
aa(lp1432
S'enlargement.'
p1433
aI720
aa(lp1434
S'up'
p1435
aI721
aa(lp1436
S'large.'
p1437
aI722
aa(lp1438
S'Severe'
p1439
aI723
aa(lp1440
S'marked'
p1441
aI724
aa(lp1442
S'development'
p1443
aI725
aa(lp1444
S'kyphosis.'
p1445
aI726
aa(lp1446
S'Followup'
p1447
aI727
aa(lp1448
S'Possible'
p1449
aI728
aa(lp1450
S'note'
p1451
aI729
aa(lp1452
S'projects'
p1453
aI730
aa(lp1454
S'fat'
p1455
aI731
aa(lp1456
S'before.'
p1457
aI732
aa(lp1458
S'position'
p1459
aI733
aa(lp1460
S'Diffuse'
p1461
aI734
aa(lp1462
S'monitor'
p1463
aI735
aa(lp1464
S'vein.'
p1465
aI736
aa(lp1466
S'bodies.'
p1467
aI737
aa(lp1468
S'diameter.'
p1469
aI738
aa(lp1470
S'Extensive'
p1471
aI739
aa(lp1472
S'healed'
p1473
aI740
aa(lp1474
S'contours,'
p1475
aI741
aa(lp1476
S'kyphosis'
p1477
aI742
aa(lp1478
S'irregular'
p1479
aI743
aa(lp1480
S'8th'
p1481
aI744
aa(lp1482
S'lesions'
p1483
aI745
aa(lp1484
S'retrosternal'
p1485
aI746
aa(lp1486
S'diaphragms'
p1487
aI747
aa(lp1488
S'3'
aI748
aa(lp1489
S'status'
p1490
aI749
aa(lp1491
S'round'
p1492
aI750
aa(lp1493
S'proximal'
p1494
aI751
aa(lp1495
S'pleural-parenchymal'
p1496
aI752
aa(lp1497
S'infection'
p1498
aI753
aa(lp1499
S'Slight'
p1500
aI754
aa(lp1501
S'collapse'
p1502
aI755
aa(lp1503
S'sternotomy.'
p1504
aI756
aa(lp1505
S'cavoatrial'
p1506
aI757
aa(lp1507
S'Lateral'
p1508
aI758
aa(lp1509
S'hyperinflation'
p1510
aI759
aa(lp1511
S'head'
p1512
aI760
aa(lp1513
S'technique,'
p1514
aI761
aa(lp1515
S'Correlate'
p1516
aI762
aa(lp1517
S'numerous'
p1518
aI763
aa(lp1519
S'hypoinflated.'
p1520
aI764
aa(lp1521
S'well-aerated.'
p1522
aI765
aa(lp1523
S'7'
aI766
aa(lp1524
S'hilum.'
p1525
aI767
aa(lp1526
S'mass.'
p1527
aI768
aa(lp1528
S'1'
aI769
aa(lp1529
S'Redemonstration'
p1530
aI770
aa(lp1531
S'atherosclerotic.'
p1532
aI771
aa(lp1533
S'concern'
p1534
aI772
aa(lp1535
S'arthritic'
p1536
aI773
aa(lp1537
S'interval,'
p1538
aI774
aa(lp1539
S'rounded'
p1540
aI775
aa(lp1541
S'epicardial'
p1542
aI776
aa(lp1543
S'postoperative'
p1544
aI777
aa(lp1545
S'normal,'
p1546
aI778
aa(lp1547
S'elevated.'
p1548
aI779
aa(lp1549
S'pattern'
p1550
aI780
aa(lp1551
S'hemidiaphragms.'
p1552
aI781
aa(lp1553
S'document'
p1554
aI782
aa(lp1555
S'images'
p1556
aI783
aa(lp1557
S'recent'
p1558
aI784
aa(lp1559
S'hyperinflation.'
p1560
aI785
aa(lp1561
S'lymphadenopathy.'
p1562
aI786
aa(lp1563
S'bodies'
p1564
aI787
aa(lp1565
S'bilaterally,'
p1566
aI788
aa(lp1567
S'failure'
p1568
aI789
aa(lp1569
S'generator'
p1570
aI790
aa(lp1571
S'Sternotomy'
p1572
aI791
aa(lp1573
S'sulcus'
p1574
aI792
aa(lp1575
S'Bronchovascular'
p1576
aI793
aa(lp1577
S'scarring,'
p1578
aI794
aa(lp1579
S'evaluate'
p1580
aI795
aa(lp1581
S'notification'
p1582
aI796
aa(lp1583
S'external'
p1584
aI797
aa(lp1585
S'lesion'
p1586
aI798
aa(lp1587
S'acromioclavicular'
p1588
aI799
aa(lp1589
S'IJ'
p1590
aI800
aa(lp1591
S'CABG'
p1592
aI801
aa(lp1593
S'It'
p1594
aI802
aa(lp1595
S'deformity.'
p1596
aI803
aa(lp1597
S'overlie'
p1598
aI804
aa(lp1599
S'dedicated'
p1600
aI805
aa(lp1601
S'fibrosis'
p1602
aI806
aa(lp1603
S'device'
p1604
aI807
aa(lp1605
S'developed'
p1606
aI808
aa(lp1607
S'increase'
p1608
aI809
aa(lp1609
S'spurring'
p1610
aI810
aa(lp1611
S'sized'
p1612
aI811
aa(lp1613
S'4'
aI812
aa(lp1614
S'ectasia/tortuosity.'
p1615
aI813
aa(lp1616
S'partial'
p1617
aI814
aa(lp1618
S'quadrant'
p1619
aI815
aa(lp1620
S'scar.'
p1621
aI816
aa(lp1622
S'prominence.'
p1623
aI817
aa(lp1624
S'Continued'
p1625
aI818
aa(lp1626
S'indicate'
p1627
aI819
aa(lp1628
S'ectasia'
p1629
aI820
aa(lp1630
S'coarse'
p1631
aI821
aa(lp1632
S'Chest:'
p1633
aI822
aa(lp1634
S'subdiaphragmatic'
p1635
aI823
aa(lp1636
S'coronary'
p1637
aI824
aa(lp1638
S'calcific'
p1639
aI825
aa(lp1640
S'age-indeterminate'
p1641
aI826
aa(lp1642
S'artifact.'
p1643
aI827
aa(lp1644
S'high'
p1645
aI828
aa(lp1646
S'Patient'
p1647
aI829
aa(lp1648
S'fissure.'
p1649
aI830
aa(lp1650
S'measures'
p1651
aI831
aa(lp1652
S'Scoliosis'
p1653
aI832
aa(lp1654
S'apices.'
p1655
aI833
aa(lp1656
S'Marked'
p1657
aI834
aa(lp1658
S'bases,'
p1659
aI835
aa(lp1660
S'hilum'
p1661
aI836
aa(lp1662
S'slight'
p1663
aI837
aa(lp1664
S'stomach'
p1665
aI838
aa(lp1666
S'structures.'
p1667
aI839
aa(lp1668
S'Focal'
p1669
aI840
aa(lp1670
S'Abnormal'
p1671
aI841
aa(lp1672
S'emphysema'
p1673
aI842
aa(lp1674
S'shows'
p1675
aI843
aa(lp1676
S'gross'
p1677
aI844
aa(lp1678
S'cystic'
p1679
aI845
aa(lp1680
S'includes'
p1681
aI846
aa(lp1682
S'noncalcified'
p1683
aI847
aa(lp1684
S'worse'
p1685
aI848
aa(lp1686
S'dextroscoliosis'
p1687
aI849
aa(lp1688
S'bandlike'
p1689
aI850
aa(lp1690
S'suprahilar'
p1691
aI851
aa(lp1692
S'decreased'
p1693
aI852
aa(lp1694
S'Primordial.'
p1695
aI853
aa(lp1696
S'result'
p1697
aI854
aa(lp1698
S'Consider'
p1699
aI855
aa(lp1700
S'above.'
p1701
aI856
aa(lp1702
S'Mediastinum'
p1703
aI857
aa(lp1704
S'wedging'
p1705
aI858
aa(lp1706
S'discrete'
p1707
aI859
aa(lp1708
S'Slightly'
p1709
aI860
aa(lp1710
S'demonstrates'
p1711
aI861
aa(lp1712
S'appropriate'
p1713
aI862
aa(lp1714
S'however'
p1715
aI863
aa(lp1716
S'redemonstration'
p1717
aI864
aa(lp1718
S'remote'
p1719
aI865
aa(lp1720
S'Stable,'
p1721
aI866
aa(lp1722
S'arteries.'
p1723
aI867
aa(lp1724
S'zone.'
p1725
aI868
aa(lp1726
S'Please'
p1727
aI869
aa(lp1728
S'exam,'
p1729
aI870
aa(lp1730
S'consolidations,'
p1731
aI871
aa(lp1732
S'accentuated'
p1733
aI872
aa(lp1734
S'infection,'
p1735
aI873
aa(lp1736
S'developing'
p1737
aI874
aa(lp1738
S'Grossly'
p1739
aI875
aa(lp1740
S'including'
p1741
aI876
aa(lp1742
S'these'
p1743
aI877
aa(lp1744
S'diaphragms.'
p1745
aI878
aa(lp1746
S'Interstitial'
p1747
aI879
aa(lp1748
S'expected'
p1749
aI880
aa(lp1750
S'Considering'
p1751
aI881
aa(lp1752
S'osteophyte'
p1753
aI882
aa(lp1754
S'tuberculous'
p1755
aI883
aa(lp1756
S'loops'
p1757
aI884
aa(lp1758
S'ill-defined'
p1759
aI885
aa(lp1760
S'ectatic'
p1761
aI886
aa(lp1762
S'Sequelae'
p1763
aI887
aa(lp1764
S'cholecystectomy.'
p1765
aI888
aa(lp1766
S'Two'
p1767
aI889
aa(lp1768
S'left,'
p1769
aI890
aa(lp1770
S'described'
p1771
aI891
aa(lp1772
S'improvement'
p1773
aI892
aa(lp1774
S'basal'
p1775
aI893
aa(lp1776
S'removed.'
p1777
aI894
aa(lp1778
S'obscuration'
p1779
aI895
aa(lp1780
S'midline'
p1781
aI896
aa(lp1782
S"today's"
p1783
aI897
aa(lp1784
S'healing'
p1785
aI898
aa(lp1786
S'comparison.'
p1787
aI899
aa(lp1788
S'Improved'
p1789
aI900
aa(lp1790
S'Critical'
p1791
aI901
aa(lp1792
S'noted,'
p1793
aI902
aa(lp1794
S'Dr.'
p1795
aI903
aa(lp1796
S'caliber.'
p1797
aI904
aa(lp1798
S'Further'
p1799
aI905
aa(lp1800
S'questionable'
p1801
aI906
aa(lp1802
S'extensive'
p1803
aI907
aa(lp1804
S'its'
p1805
aI908
aa(lp1806
S'age-indeterminate.'
p1807
aI909
aa(lp1808
S'appreciated'
p1809
aI910
aa(lp1810
S'discussed'
p1811
aI911
aa(lp1812
S'catheter.'
p1813
aI912
aa(lp1814
S'excluded'
p1815
aI913
aa(lp1816
S'hemithorax'
p1817
aI914
aa(lp1818
S'CHF.'
p1819
aI915
aa(lp1820
S'fixation'
p1821
aI916
aa(lp1822
S'carina.'
p1823
aI917
aa(lp1824
S'crowding,'
p1825
aI918
aa(lp1826
S'Osteopenia'
p1827
aI919
aa(lp1828
S'Negative.'
p1829
aI920
aa(lp1830
S'incompletely'
p1831
aI921
aa(lp1832
S'pelvis'
p1833
aI922
aa(lp1834
S'Enlarged'
p1835
aI923
aa(lp1836
S'azygos'
p1837
aI924
aa(lp1838
S'Right-sided'
p1839
aI925
aa(lp1840
S'inspiratory'
p1841
aI926
aa(lp1842
S'documented'
p1843
aI927
aa(lp1844
S'characterization.'
p1845
aI928
aa(lp1846
S'clips,'
p1847
aI929
aa(lp1848
S'node.'
p1849
aI930
aa(lp1850
S'blunted'
p1851
aI931
aa(lp1852
S'atelectasis/airspace'
p1853
aI932
aa(lp1854
S'fourth'
p1855
aI933
aa(lp1856
S'difficult'
p1857
aI934
aa(lp1858
S'unfolding'
p1859
aI935
aa(lp1860
S'knee.'
p1861
aI936
aa(lp1862
S'pacemaker'
p1863
aI937
aa(lp1864
S'lobes'
p1865
aI938
aa(lp1866
S'terminating'
p1867
aI939
aa(lp1868
S'changes,'
p1869
aI940
aa(lp1870
S'helpful.'
p1871
aI941
aa(lp1872
S'dual-lumen'
p1873
aI942
aa(lp1874
S'include'
p1875
aI943
aa(lp1876
S'irregularity'
p1877
aI944
aa(lp1878
S'Compared'
p1879
aI945
aa(lp1880
S'scan.'
p1881
aI946
aa(lp1882
S'Biapical'
p1883
aI947
aa(lp1884
S'destructive'
p1885
aI948
aa(lp1886
S'projected'
p1887
aI949
aa(lp1888
S'neck'
p1889
aI950
aa(lp1890
S'treatment'
p1891
aI951
aa(lp1892
S'osseus'
p1893
aI952
aa(lp1894
S'Again'
p1895
aI953
aa(lp1896
S'spine,'
p1897
aI954
aa(lp1898
S'deformities.'
p1899
aI955
aa(lp1900
S'fusion.'
p1901
aI956
aa(lp1902
S'fat.'
p1903
aI957
aa(lp1904
S'tubing'
p1905
aI958
aa(lp1906
S'pneumoperitoneum.'
p1907
aI959
aa(lp1908
S'posttraumatic'
p1909
aI960
aa(lp1910
S'worsening'
p1911
aI961
aa(lp1912
S'Cardiomegaly,'
p1913
aI962
aa(lp1914
S'injury'
p1915
aI963
aa(lp1916
S'Age-indeterminate'
p1917
aI964
aa(lp1918
S'location'
p1919
aI965
aa(lp1920
S'Status'
p1921
aI966
aa(lp1922
S'collection'
p1923
aI967
aa(lp1924
S'cm.'
p1925
aI968
aa(lp1926
S'correlate'
p1927
aI969
aa(lp1928
S'nodule,'
p1929
aI970
aa(lp1930
S'fractures,'
p1931
aI971
aa(lp1932
S'formation'
p1933
aI972
aa(lp1934
S'below'
p1935
aI973
aa(lp1936
S'study,'
p1937
aI974
aa(lp1938
S'only'
p1939
aI975
aa(lp1940
S'differences'
p1941
aI976
aa(lp1942
S'dislocation.'
p1943
aI977
aa(lp1944
S'Exam'
p1945
aI978
aa(lp1946
S'lordotic'
p1947
aI979
aa(lp1948
S'shadows'
p1949
aI980
aa(lp1950
S'vague'
p1951
aI981
aa(lp1952
S'axillary'
p1953
aI982
aa(lp1954
S'complete'
p1955
aI983
aa(lp1956
S'additional'
p1957
aI984
aa(lp1958
S'indicated.'
p1959
aI985
aa(lp1960
S'zone'
p1961
aI986
aa(lp1962
S'joints'
p1963
aI987
aa(lp1964
S'Fracture'
p1965
aI988
aa(lp1966
S'primary'
p1967
aI989
aa(lp1968
S'dislocations.'
p1969
aI990
aa(lp1970
S'Postoperative'
p1971
aI991
aa(lp1972
S'prominent.'
p1973
aI992
aa(lp1974
S'Overall'
p1975
aI993
aa(lp1976
S'Dense'
p1977
aI994
aa(lp1978
S'Previously'
p1979
aI995
aa(lp1980
S'ensure'
p1981
aI996
aa(lp1982
S'blunted.'
p1983
aI997
aa(lp1984
S'rotation.'
p1985
aI998
aa(lp1986
S'hypoinflation'
p1987
aI999
aa(lp1988
S'opacification'
p1989
aI1000
aa(lp1990
S'sclerotic'
p1991
aI1001
aa(lp1992
S'obvious'
p1993
aI1002
aa(lp1994
S'infiltrates,'
p1995
aI1003
aa(lp1996
S'decubitus'
p1997
aI1004
aa(lp1998
S'appreciated.'
p1999
aI1005
aa(lp2000
S'Granulomatous'
p2001
aI1006
aa(lp2002
S'hyperinflated.'
p2003
aI1007
aa(lp2004
S'artifact'
p2005
aI1008
aa(lp2006
S'hyperexpansion.'
p2007
aI1009
aa(lp2008
S'senescent'
p2009
aI1010
aa(lp2010
S'bypass'
p2011
aI1011
aa(lp2012
S'loculated'
p2013
aI1012
aa(lp2014
S'Tracheostomy'
p2015
aI1013
aa(lp2016
S'confluent'
p2017
aI1014
aa(lp2018
S'Exaggerated'
p2019
aI1015
aa(lp2020
S'confirm'
p2021
aI1016
aa(lp2022
S'Costophrenic'
p2023
aI1017
aa(lp2024
S'subtle'
p2025
aI1018
aa(lp2026
S'indistinct'
p2027
aI1019
aa(lp2028
S'8mm'
p2029
aI1020
aa(lp2030
S'Eventration'
p2031
aI1021
aa(lp2032
S'cortical'
p2033
aI1022
aa(lp2034
S'does'
p2035
aI1023
aa(lp2036
S'obscured'
p2037
aI1024
aa(lp2038
S'Upper'
p2039
aI1025
aa(lp2040
S'finding'
p2041
aI1026
aa(lp2042
S'Blunting'
p2043
aI1027
aa(lp2044
S'symmetric'
p2045
aI1028
aa(lp2046
S'spinal'
p2047
aI1029
aa(lp2048
S'seen,'
p2049
aI1030
aa(lp2050
S'relatively'
p2051
aI1031
aa(lp2052
S'Evidence'
p2053
aI1032
aa(lp2054
S'levoscoliosis'
p2055
aI1033
aa(lp2056
S'less'
p2057
aI1034
aa(lp2058
S'midlung,'
p2059
aI1035
aa(lp2060
S'habitus.'
p2061
aI1036
aa(lp2062
S'two'
p2063
aI1037
aa(lp2064
S'pneumonitis.'
p2065
aI1038
aa(lp2066
S'Midline'
p2067
aI1039
aa(lp2068
S'Bone'
p2069
aI1040
aa(lp2070
S'performed'
p2071
aI1041
aa(lp2072
S'etiology'
p2073
aI1042
aa(lp2074
S'fracture,'
p2075
aI1043
aa(lp2076
S'tips'
p2077
aI1044
aa(lp2078
S'scoliosis.'
p2079
aI1045
aa(lp2080
S'8'
aI1046
aa(lp2081
S'Pectus'
p2082
aI1047
aa(lp2083
S'eventration.'
p2084
aI1048
aa(lp2085
S'setting'
p2086
aI1049
aa(lp2087
S'collections.'
p2088
aI1050
aa(lp2089
S'caval'
p2090
aI1051
aa(lp2091
S'fibrotic'
p2092
aI1052
aa(lp2093
S'diameter'
p2094
aI1053
aa(lp2095
S'trapping'
p2096
aI1054
aa(lp2097
S'Evaluation'
p2098
aI1055
aa(lp2099
S'lingula'
p2100
aI1056
aa(lp2101
S'infrahilar'
p2102
aI1057
aa(lp2103
S'platelike'
p2104
aI1058
aa(lp2105
S'studies'
p2106
aI1059
aa(lp2107
S'Cholecystectomy'
p2108
aI1060
aa(lp2109
S'TB.'
p2110
aI1061
aa(lp2111
S'space.'
p2112
aI1062
aa(lp2113
S'asymmetric'
p2114
aI1063
aa(lp2115
S'Rotated'
p2116
aI1064
aa(lp2117
S'tissues.'
p2118
aI1065
aa(lp2119
S'arteries'
p2120
aI1066
aa(lp2121
S'nondisplaced'
p2122
aI1067
aa(lp2123
S'favored'
p2124
aI1068
aa(lp2125
S'tracheostomy'
p2126
aI1069
aa(lp2127
S'rib,'
p2128
aI1070
aa(lp2129
S'XXXX-A-XXXX'
p2130
aI1071
aa(lp2131
S'hours'
p2132
aI1072
aa(lp2133
S'well-inflated'
p2134
aI1073
aa(lp2135
S'XXXX/XXXX.'
p2136
aI1074
aa(lp2137
S'overlap'
p2138
aI1075
aa(lp2139
S'single'
p2140
aI1076
aa(lp2141
S'dextrocurvature'
p2142
aI1077
aa(lp2143
S'history.'
p2144
aI1078
aa(lp2145
S'rotated.'
p2146
aI1079
aa(lp2147
S'corresponding'
p2148
aI1080
aa(lp2149
S'portions'
p2150
aI1081
aa(lp2151
S'tortuosity.'
p2152
aI1082
aa(lp2153
S'airspace.'
p2154
aI1083
aa(lp2155
S'imaging.'
p2156
aI1084
aa(lp2157
S'mass,'
p2158
aI1085
aa(lp2159
S'knee:'
p2160
aI1086
aa(lp2161
S'reflecting'
p2162
aI1087
aa(lp2163
S'active/acute'
p2164
aI1088
aa(lp2165
S'prominence,'
p2166
aI1089
aa(lp2167
S'clinically.'
p2168
aI1090
aa(lp2169
S'Opacity'
p2170
aI1091
aa(lp2171
S'bullous'
p2172
aI1092
aa(lp2173
S'Bandlike'
p2174
aI1093
aa(lp2175
S'stent.'
p2176
aI1094
aa(lp2177
S'subcutaneous'
p2178
aI1095
aa(lp2179
S'rightward'
p2180
aI1096
aa(lp2181
S'notified'
p2182
aI1097
aa(lp2183
S'question'
p2184
aI1098
aa(lp2185
S'Acute'
p2186
aI1099
aa(lp2187
S'node'
p2188
aI1100
aa(lp2189
S'stability.'
p2190
aI1101
aa(lp2191
S'reactive'
p2192
aI1102
aa(lp2193
S'following'
p2194
aI1103
aa(lp2195
S'hip'
p2196
aI1104
aa(lp2197
S'engorged.'
p2198
aI1105
aa(lp2199
S'1.9'
p2200
aI1106
aa(lp2201
S'atherosclerosis.'
p2202
aI1107
aa(lp2203
S'tortuous,'
p2204
aI1108
aa(lp2205
S'Apparent'
p2206
aI1109
aa(lp2207
S'predominantly'
p2208
aI1110
aa(lp2209
S'fullness'
p2210
aI1111
aa(lp2211
S'shift.'
p2212
aI1112
aa(lp2213
S'weeks'
p2214
aI1113
aa(lp2215
S'sarcoidosis.'
p2216
aI1114
aa(lp2217
S'catheter,'
p2218
aI1115
aa(lp2219
S'combination'
p2220
aI1116
aa(lp2221
S'femoral'
p2222
aI1117
aa(lp2223
S'available,'
p2224
aI1118
aa(lp2225
S'head.'
p2226
aI1119
aa(lp2227
S'thorax.'
p2228
aI1120
aa(lp2229
S'mitral'
p2230
aI1121
aa(lp2231
S'apparent'
p2232
aI1122
aa(lp2233
S'atelectatic'
p2234
aI1123
aa(lp2235
S'Similar'
p2236
aI1124
aa(lp2237
S'diffusely'
p2238
aI1125
aa(lp2239
S'after'
p2240
aI1126
aa(lp2241
S'very'
p2242
aI1127
aa(lp2243
S'evaluated'
p2244
aI1128
aa(lp2245
S'between'
p2246
aI1129
aa(lp2247
S'Very'
p2248
aI1130
aa(lp2249
S'Apical'
p2250
aI1131
aa(lp2251
S'Redemonstrated'
p2252
aI1132
aa(lp2253
S'Lumbar'
p2254
aI1133
aa(lp2255
S'junction'
p2256
aI1134
aa(lp2257
S'now'
p2258
aI1135
aa(lp2259
S'thickening,'
p2260
aI1136
aa(lp2261
S'quality'
p2262
aI1137
aa(lp2263
S'apices'
p2264
aI1138
aa(lp2265
S'approximating'
p2266
aI1139
aa(lp2267
S'hypoventilation'
p2268
aI1140
aa(lp2269
S'ectatic.'
p2270
aI1141
aa(lp2271
S'focus'
p2272
aI1142
aa(lp2273
S'obtained'
p2274
aI1143
aa(lp2275
S'aneurysm.'
p2276
aI1144
aa(lp2277
S'nonspecific'
p2278
aI1145
aa(lp2279
S'causing'
p2280
aI1146
aa(lp2281
S'consolidations'
p2282
aI1147
aa(lp2283
S'Incidental'
p2284
aI1148
aa(lp2285
S'Decreased'
p2286
aI1149
aa(lp2287
S'opacification.'
p2288
aI1150
aa(lp2289
S'this.'
p2290
aI1151
aa(lp2291
S'kyphotic'
p2292
aI1152
aa(lp2293
S'density.'
p2294
aI1153
aa(lp2295
S'air-fluid'
p2296
aI1154
aa(lp2297
S'evaluated.'
p2298
aI1155
aa(lp2299
S'film'
p2300
aI1156
aa(lp2301
S'Lower'
p2302
aI1157
aa(lp2303
S'T9'
p2304
aI1158
aa(lp2305
S'overlapping'
p2306
aI1159
aa(lp2307
S'sulci'
p2308
aI1160
aa(lp2309
S'fissure'
p2310
aI1161
aa(lp2311
S'T12.'
p2312
aI1162
aa(lp2313
S'largest'
p2314
aI1163
aa(lp2315
S'lobectomy.'
p2316
aI1164
aa(lp2317
S'replacement.'
p2318
aI1165
aa(lp2319
S'larger'
p2320
aI1166
aa(lp2321
S'follow'
p2322
aI1167
aa(lp2323
S'Within'
p2324
aI1168
aa(lp2325
S'containing'
p2326
aI1169
aa(lp2327
S'Subtle'
p2328
aI1170
aa(lp2329
S'3.3'
p2330
aI1171
aa(lp2331
S'studies.'
p2332
aI1172
aa(lp2333
S"There's"
p2334
aI1173
aa(lp2335
S'resolved.'
p2336
aI1174
aa(lp2337
S'Appearance'
p2338
aI1175
aa(lp2339
S'cancer.'
p2340
aI1176
aa(lp2341
S'aneurysm'
p2342
aI1177
aa(lp2343
S'axilla.'
p2344
aI1178
aa(lp2345
S'obscure'
p2346
aI1179
aa(lp2347
S'diminished'
p2348
aI1180
aa(lp2349
S'disease..'
p2350
aI1181
aa(lp2351
S'evaluate.'
p2352
aI1182
aa(lp2353
S'pleura,'
p2354
aI1183
aa(lp2355
S'Questionable'
p2356
aI1184
aa(lp2357
S'dialysis'
p2358
aI1185
aa(lp2359
S'cardiophrenic'
p2360
aI1186
aa(lp2361
S'Basilar'
p2362
aI1187
aa(lp2363
S'stimulator'
p2364
aI1188
aa(lp2365
S'exaggerated'
p2366
aI1189
aa(lp2367
S'Tortuosity'
p2368
aI1190
aa(lp2369
S'disease/atelectasis.'
p2370
aI1191
aa(lp2371
S'ventricular'
p2372
aI1192
aa(lp2373
S'resection'
p2374
aI1193
aa(lp2375
S'structure'
p2376
aI1194
aa(lp2377
S'negative'
p2378
aI1195
aa(lp2379
S'Hyperexpansion'
p2380
aI1196
aa(lp2381
S'atherosclerosis'
p2382
aI1197
aa(lp2383
S'alignment'
p2384
aI1198
aa(lp2385
S'remaining'
p2386
aI1199
aa(lp2387
S'airways.'
p2388
aI1200
aa(lp2389
S'clavicle,'
p2390
aI1201
aa(lp2391
S'part'
p2392
aI1202
aa(lp2393
S'dextro'
p2394
aI1203
aa(lp2395
S'widened'
p2396
aI1204
aa(lp2397
S'continued'
p2398
aI1205
aa(lp2399
S'region,'
p2400
aI1206
aa(lp2401
S'scoliotic'
p2402
aI1207
aa(lp2403
S'Clips'
p2404
aI1208
aa(lp2405
S'On'
p2406
aI1209
aa(lp2407
S'tunneled'
p2408
aI1210
aa(lp2409
S'stent'
p2410
aI1211
aa(lp2411
S'1.5'
p2412
aI1212
aa(lp2413
S'screw'
p2414
aI1213
aa(lp2415
S'cholecystectomy'
p2416
aI1214
aa(lp2417
S'Minimally'
p2418
aI1215
aa(lp2419
S'about'
p2420
aI1216
aa(lp2421
S'please'
p2422
aI1217
aa(lp2423
S'trachea.'
p2424
aI1218
aa(lp2425
S'bullet'
p2426
aI1219
aa(lp2427
S'like'
p2428
aI1220
aa(lp2429
S'Hyperinflation'
p2430
aI1221
aa(lp2431
S'well.'
p2432
aI1222
aa(lp2433
S'granuloma,'
p2434
aI1223
aa(lp2435
S'Retrocardiac'
p2436
aI1224
aa(lp2437
S'see'
p2438
aI1225
aa(lp2439
S'narrowing'
p2440
aI1226
aa(lp2441
S'spine..'
p2442
aI1227
aa(lp2443
S'radiopaque'
p2444
aI1228
aa(lp2445
S'Three'
p2446
aI1229
aa(lp2447
S'sided'
p2448
aI1230
aa(lp2449
S'shadows.'
p2450
aI1231
aa(lp2451
S'presence'
p2452
aI1232
aa(lp2453
S'determine'
p2454
aI1233
aa(lp2455
S'localized'
p2456
aI1234
aa(lp2457
S'An'
p2458
aI1235
aa(lp2459
S'pectus'
p2460
aI1236
aa(lp2461
S'lines'
p2462
aI1237
aa(lp2463
S'mastectomy.'
p2464
aI1238
aa(lp2465
S'neck.'
p2466
aI1239
aa(lp2467
S'S-shaped'
p2468
aI1240
aa(lp2469
S'it'
p2470
aI1241
aa(lp2471
S'exams.'
p2472
aI1242
aa(lp2473
S'granulomata'
p2474
aI1243
aa(lp2475
S'1.8'
p2476
aI1244
aa(lp2477
S'cardiothoracic'
p2478
aI1245
aa(lp2479
S'wall.'
p2480
aI1246
aa(lp2481
S'relative'
p2482
aI1247
aa(lp2483
S'Dextroscoliosis'
p2484
aI1248
aa(lp2485
S'Calcific'
p2486
aI1249
aa(lp2487
S'Ill-defined'
p2488
aI1250
aa(lp2489
S'reticular'
p2490
aI1251
aa(lp2491
S'Healed'
p2492
aI1252
aa(lp2493
S'cardio'
p2494
aI1253
aa(lp2495
S'maintained.'
p2496
aI1254
aa(lp2497
S'Hyperlucent'
p2498
aI1255
aa(lp2499
S'should'
p2500
aI1256
aa(lp2501
S'Note'
p2502
aI1257
aa(lp2503
S'subpleural'
p2504
aI1258
aa(lp2505
S'malignancy.'
p2506
aI1259
aa(lp2507
S'Overall,'
p2508
aI1260
aa(lp2509
S'humerus.'
p2510
aI1261
aa(lp2511
S'dextroscoliosis.'
p2512
aI1262
aa(lp2513
S'resolved'
p2514
aI1263
aa(lp2515
S'/'
aI1264
aa(lp2516
S'Prominence'
p2517
aI1265
aa(lp2518
S'projection'
p2519
aI1266
aa(lp2520
S'material'
p2521
aI1267
aa(lp2522
S'hyperinflated,'
p2523
aI1268
aa(lp2524
S'ventricle,'
p2525
aI1269
aa(lp2526
S'well-seen'
p2527
aI1270
aa(lp2528
S'humerus'
p2529
aI1271
aa(lp2530
S'shunt'
p2531
aI1272
aa(lp2532
S'characteristic'
p2533
aI1273
aa(lp2534
S'arterial'
p2535
aI1274
aa(lp2536
S'transverse'
p2537
aI1275
aa(lp2538
S'consolidative'
p2539
aI1276
aa(lp2540
S'renal'
p2541
aI1277
aa(lp2542
S'May'
p2543
aI1278
aa(lp2544
S'portion'
p2545
aI1279
aa(lp2546
S'Relative'
p2547
aI1280
aa(lp2548
S'extremity'
p2549
aI1281
aa(lp2550
S'10'
p2551
aI1282
aa(lp2552
S'9'
aI1283
aa(lp2553
S'irregularities'
p2554
aI1284
aa(lp2555
S'ectasia/tortuosity,'
p2556
aI1285
aa(lp2557
S'discoid'
p2558
aI1286
aa(lp2559
S'abdomen,'
p2560
aI1287
aa(lp2561
S'External'
p2562
aI1288
aa(lp2563
S'lymphadenopathy'
p2564
aI1289
aa(lp2565
S'sulci.'
p2566
aI1290
aa(lp2567
S'X-XXXX'
p2568
aI1291
aa(lp2569
S'considerations'
p2570
aI1292
aa(lp2571
S'posteriorly'
p2572
aI1293
aa(lp2573
S'femur'
p2574
aI1294
aa(lp2575
S'For'
p2576
aI1295
aa(lp2577
S'Calcification'
p2578
aI1296
aa(lp2579
S'stable,'
p2580
aI1297
aa(lp2581
S'hyperinflation,'
p2582
aI1298
aa(lp2583
S'thoracotomy'
p2584
aI1299
aa(lp2585
S'motion.'
p2586
aI1300
aa(lp2587
S'greatest'
p2588
aI1301
aa(lp2589
S'Cannot'
p2590
aI1302
aa(lp2591
S'hemithorax.'
p2592
aI1303
aa(lp2593
S'background'
p2594
aI1304
aa(lp2595
S'Contrast'
p2596
aI1305
aa(lp2597
S'oriented'
p2598
aI1306
aa(lp2599
S'dated'
p2600
aI1307
aa(lp2601
S'coarsened'
p2602
aI1308
aa(lp2603
S'increased.'
p2604
aI1309
aa(lp2605
S'colon.'
p2606
aI1310
aa(lp2607
S'hyperlucency'
p2608
aI1311
aa(lp2609
S'reflects'
p2610
aI1312
aa(lp2611
S'suture'
p2612
aI1313
aa(lp2613
S'hemidiaphragms'
p2614
aI1314
aa(lp2615
S'glenohumeral'
p2616
aI1315
aa(lp2617
S'AICD'
p2618
aI1316
aa(lp2619
S'thin'
p2620
aI1317
aa(lp2621
S'however,'
p2622
aI1318
aa(lp2623
S'hiatus'
p2624
aI1319
aa(lp2625
S'decreased.'
p2626
aI1320
aa(lp2627
S'well-expanded'
p2628
aI1321
aa(lp2629
S'hilum,'
p2630
aI1322
aa(lp2631
S'fibrosis,'
p2632
aI1323
aa(lp2633
S'Underlying'
p2634
aI1324
aa(lp2635
S'suggested'
p2636
aI1325
aa(lp2637
S'defibrillator'
p2638
aI1326
aa(lp2639
S'advanced'
p2640
aI1327
aa(lp2641
S'hyperexpanded,'
p2642
aI1328
aa(lp2643
S'masses,'
p2644
aI1329
aa(lp2645
S'loss.'
p2646
aI1330
aa(lp2647
S'demineralization.'
p2648
aI1331
aa(lp2649
S'ribs,'
p2650
aI1332
aa(lp2651
S'remainder'
p2652
aI1333
aa(lp2653
S'views.'
p2654
aI1334
aa(lp2655
S'whose'
p2656
aI1335
aa(lp2657
S'although'
p2658
aI1336
aa(lp2659
S'absence'
p2660
aI1337
aa(lp2661
S'Remainder'
p2662
aI1338
aa(lp2663
S'Unchanged.'
p2664
aI1339
aa(lp2665
S'markedly'
p2666
aI1340
aa(lp2667
S'splenic'
p2668
aI1341
aa(lp2669
S'gastroesophageal'
p2670
aI1342
aa(lp2671
S'redemonstrated.'
p2672
aI1343
aa(lp2673
S'shape.'
p2674
aI1344
aa(lp2675
S'entirely'
p2676
aI1345
aa(lp2677
S'intravenous'
p2678
aI1346
aa(lp2679
S'Catheter'
p2680
aI1347
aa(lp2681
S'Suspected'
p2682
aI1348
aa(lp2683
S'Dilated'
p2684
aI1349
aa(lp2685
S'body,'
p2686
aI1350
aa(lp2687
S'elevation.'
p2688
aI1351
aa(lp2689
S'clavicular'
p2690
aI1352
aa(lp2691
S'atelectasis..'
p2692
aI1353
aa(lp2693
S'critical'
p2694
aI1354
aa(lp2695
S'completely'
p2696
aI1355
aa(lp2697
S'pneumothorax..'
p2698
aI1356
aa(lp2699
S'bilaterally.There'
p2700
aI1357
aa(lp2701
S'radiographically'
p2702
aI1358
aa(lp2703
S'image'
p2704
aI1359
aa(lp2705
S'Rounded'
p2706
aI1360
aa(lp2707
S'radiographs.'
p2708
aI1361
aa(lp2709
S'procedure.'
p2710
aI1362
aa(lp2711
S'warranted.'
p2712
aI1363
aa(lp2713
S'curvilinear'
p2714
aI1364
aa(lp2715
S'increasing'
p2716
aI1365
aa(lp2717
S'particularly'
p2718
aI1366
aa(lp2719
S'time'
p2720
aI1367
aa(lp2721
S'convexity'
p2722
aI1368
aa(lp2723
S'breast.'
p2724
aI1369
aa(lp2725
S'vertebra.'
p2726
aI1370
aa(lp2727
S'graft'
p2728
aI1371
aa(lp2729
S'third'
p2730
aI1372
aa(lp2731
S'Consolidation'
p2732
aI1373
aa(lp2733
S'1.2'
p2734
aI1374
aa(lp2735
S'aspiration.'
p2736
aI1375
aa(lp2737
S'bronchi'
p2738
aI1376
aa(lp2739
S'Resolution'
p2740
aI1377
aa(lp2741
S'10th'
p2742
aI1378
aa(lp2743
S'lesion.'
p2744
aI1379
aa(lp2745
S'retraction.'
p2746
aI1380
aa(lp2747
S'T10'
p2748
aI1381
aa(lp2749
S'osteopenia'
p2750
aI1382
aa(lp2751
S'hemidiaphragms,'
p2752
aI1383
aa(lp2753
S'identified..'
p2754
aI1384
aa(lp2755
S'closure'
p2756
aI1385
aa(lp2757
S'posterolateral'
p2758
aI1386
aa(lp2759
S'Abdomen.'
p2760
aI1387
aa(lp2761
S'placed'
p2762
aI1388
aa(lp2763
S'obstruction.'
p2764
aI1389
aa(lp2765
S'bronchitis.'
p2766
aI1390
aa(lp2767
S'obscures'
p2768
aI1391
aa(lp2769
S'bronchiectasis,'
p2770
aI1392
aa(lp2771
S'oblique'
p2772
aI1393
aa(lp2773
S'peribronchial'
p2774
aI1394
aa(lp2775
S'overload.'
p2776
aI1395
aa(lp2777
S'uncertain'
p2778
aI1396
aa(lp2779
S'Osteopenia.'
p2780
aI1397
aa(lp2781
S'lesions.'
p2782
aI1398
aa(lp2783
S'suggestion'
p2784
aI1399
aa(lp2785
S'layering'
p2786
aI1400
aa(lp2787
S'indicated,'
p2788
aI1401
aa(lp2789
S'periphery'
p2790
aI1402
aa(lp2791
S'tube.'
p2792
aI1403
aa(lp2793
S'Coronary'
p2794
aI1404
aa(lp2795
S'ovoid'
p2796
aI1405
aa(lp2797
S'Numerous'
p2798
aI1406
aa(lp2799
S'satisfactory'
p2800
aI1407
aa(lp2801
S'correlation.'
p2802
aI1408
aa(lp2803
S'knee'
p2804
aI1409
aa(lp2805
S'ankle.'
p2806
aI1410
aa(lp2807
S'innominate'
p2808
aI1411
aa(lp2809
S'T6,'
p2810
aI1412
aa(lp2811
S'fibronodular'
p2812
aI1413
aa(lp2813
S'glenoid,'
p2814
aI1414
aa(lp2815
S'can'
p2816
aI1415
aa(lp2817
S'level.'
p2818
aI1416
aa(lp2819
S'brachiocephalic'
p2820
aI1417
aa(lp2821
S'rotator'
p2822
aI1418
aa(lp2823
S'joints.'
p2824
aI1419
aa(lp2825
S'examinations.'
p2826
aI1420
aa(lp2827
S'destruction.'
p2828
aI1421
aa(lp2829
S'compartment.'
p2830
aI1422
aa(lp2831
S'lingula,'
p2832
aI1423
aa(lp2833
S'located'
p2834
aI1424
aa(lp2835
S'dislocation'
p2836
aI1425
aa(lp2837
S'glenoid'
p2838
aI1426
aa(lp2839
S'tenderness.'
p2840
aI1427
aa(lp2841
S'notable'
p2842
aI1428
aa(lp2843
S'ventricle'
p2844
aI1429
aa(lp2845
S'1.4'
p2846
aI1430
aa(lp2847
S'Technically'
p2848
aI1431
aa(lp2849
S'patient.'
p2850
aI1432
aa(lp2851
S'unfolded.'
p2852
aI1433
aa(lp2853
S'colonic'
p2854
aI1434
aa(lp2855
S'blunting.'
p2856
aI1435
aa(lp2857
S'examinations'
p2858
aI1436
aa(lp2859
S'cavity.'
p2860
aI1437
aa(lp2861
S'scarring/atelectasis.'
p2862
aI1438
aa(lp2863
S'Correlation'
p2864
aI1439
aa(lp2865
S'available.'
p2866
aI1440
aa(lp2867
S'Decreasing'
p2868
aI1441
aa(lp2869
S'decrease'
p2870
aI1442
aa(lp2871
S'consolidating'
p2872
aI1443
aa(lp2873
S'reticulonodular'
p2874
aI1444
aa(lp2875
S'sutures'
p2876
aI1445
aa(lp2877
S'enlargement,'
p2878
aI1446
aa(lp2879
S'supine'
p2880
aI1447
aa(lp2881
S'Anticipated'
p2882
aI1448
aa(lp2883
S'excavatum'
p2884
aI1449
aa(lp2885
S'traumatic'
p2886
aI1450
aa(lp2887
S'neoplasm.'
p2888
aI1451
aa(lp2889
S'compartment'
p2890
aI1452
aa(lp2891
S'T11'
p2892
aI1453
aa(lp2893
S'Scarring'
p2894
aI1454
aa(lp2895
S'elements'
p2896
aI1455
aa(lp2897
S'costochondral'
p2898
aI1456
aa(lp2899
S'Anterior'
p2900
aI1457
aa(lp2901
S'courses'
p2902
aI1458
aa(lp2903
S'SVC'
p2904
aI1459
aa(lp2905
S'distribution'
p2906
aI1460
aa(lp2907
S'characterized'
p2908
aI1461
aa(lp2909
S'2.1'
p2910
aI1462
aa(lp2911
S'4th'
p2912
aI1463
aa(lp2913
S'Pacemaker'
p2914
aI1464
aa(lp2915
S'though'
p2916
aI1465
aa(lp2917
S'hernia,'
p2918
aI1466
aa(lp2919
S'Mid'
p2920
aI1467
aa(lp2921
S'After'
p2922
aI1468
aa(lp2923
S'series.'
p2924
aI1469
aa(lp2925
S'bibasal'
p2926
aI1470
aa(lp2927
S'Multifocal'
p2928
aI1471
aa(lp2929
S'unchanged,'
p2930
aI1472
aa(lp2931
S'subphrenic'
p2932
aI1473
aa(lp2933
S','
aI1474
aa(lp2934
S'will'
p2935
aI1475
aa(lp2936
S'thyroid'
p2937
aI1476
aa(lp2938
S'interstitium.'
p2939
aI1477
aa(lp2940
S'radiodense'
p2941
aI1478
aa(lp2942
S'desired'
p2943
aI1479
aa(lp2944
S'placement.'
p2945
aI1480
aa(lp2946
S'dense,'
p2947
aI1481
aa(lp2948
S'foci'
p2949
aI1482
aa(lp2950
S'large,'
p2951
aI1483
aa(lp2952
S'repeat'
p2953
aI1484
aa(lp2954
S'feeding'
p2955
aI1485
aa(lp2956
S'indicated'
p2957
aI1486
aa(lp2958
S'fifth'
p2959
aI1487
aa(lp2960
S'pneumomediastinum.'
p2961
aI1488
aa(lp2962
S'none'
p2963
aI1489
aa(lp2964
S'unfolded'
p2965
aI1490
aa(lp2966
S'features'
p2967
aI1491
aa(lp2968
S'Atherosclerosis'
p2969
aI1492
aa(lp2970
S'osteopenia.'
p2971
aI1493
aa(lp2972
S'whether'
p2973
aI1494
aa(lp2974
S'Distal'
p2975
aI1495
aa(lp2976
S'Airspace'
p2977
aI1496
aa(lp2978
S'incidentally'
p2979
aI1497
aa(lp2980
S'dual-XXXX'
p2981
aI1498
aa(lp2982
S'joint.'
p2983
aI1499
aa(lp2984
S'Hiatal'
p2985
aI1500
aa(lp2986
S'17'
p2987
aI1501
aa(lp2988
S'imaging,'
p2989
aI1502
aa(lp2990
S'Increasing'
p2991
aI1503
aa(lp2992
S'Accounting'
p2993
aI1504
aa(lp2994
S'granulomas/lymph'
p2995
aI1505
aa(lp2996
S'retraction'
p2997
aI1506
aa(lp2998
S'resolving'
p2999
aI1507
aa(lp3000
S'margin'
p3001
aI1508
aa(lp3002
S'congestive'
p3003
aI1509
aa(lp3004
S'obscuring'
p3005
aI1510
aa(lp3006
S'questions'
p3007
aI1511
aa(lp3008
S'Levocurvature'
p3009
aI1512
aa(lp3010
S'margination.'
p3011
aI1513
aa(lp3012
S'indeterminant'
p3013
aI1514
aa(lp3014
S'Enteric'
p3015
aI1515
aa(lp3016
S'Veriphy'
p3017
aI1516
aa(lp3018
S'your'
p3019
aI1517
aa(lp3020
S'idiopathic'
p3021
aI1518
aa(lp3022
S'Stable.'
p3023
aI1519
aa(lp3024
S'Mediport'
p3025
aI1520
aa(lp3026
S'rotated'
p3027
aI1521
aa(lp3028
S'into'
p3029
aI1522
aa(lp3030
S'aerated'
p3031
aI1523
aa(lp3032
S'tubes.'
p3033
aI1524
aa(lp3034
S'Sequela'
p3035
aI1525
aa(lp3036
S'aspiration,'
p3037
aI1526
aa(lp3038
S'margination'
p3039
aI1527
aa(lp3040
S'useful.'
p3041
aI1528
aa(lp3042
S'Maybe'
p3043
aI1529
aa(lp3044
S'1.6'
p3045
aI1530
aa(lp3046
S'Nonspecific'
p3047
aI1531
aa(lp3048
S'followed'
p3049
aI1532
aa(lp3050
S'tumor.'
p3051
aI1533
aa(lp3052
S'intact,'
p3053
aI1534
aa(lp3054
S'XXXX-of-view.'
p3055
aI1535
aa(lp3056
S'VP'
p3057
aI1536
aa(lp3058
S'annular'
p3059
aI1537
aa(lp3060
S'1.0'
p3061
aI1538
aa(lp3062
S'thickness.'
p3063
aI1539
aa(lp3064
S'pattern.'
p3065
aI1540
aa(lp3066
S'Clinical'
p3067
aI1541
aa(lp3068
S'parahilar'
p3069
aI1542
aa(lp3070
S'ICD'
p3071
aI1543
aa(lp3072
S'therapy'
p3073
aI1544
aa(lp3074
S'already'
p3075
aI1545
aa(lp3076
S'remarkable.'
p3077
aI1546
aa(lp3078
S'END'
p3079
aI1547
aa(lp3080
S'Intact'
p3081
aI1548
aa(lp3082
S'3.5'
p3083
aI1549
aa(lp3084
S'OF'
p3085
aI1550
aa(lp3086
S'Round'
p3087
aI1551
aa(lp3088
S'REPORT.'
p3089
aI1552
aa(lp3090
S'collection.'
p3091
aI1553
aa(lp3092
S'partly'
p3093
aI1554
aa(lp3094
S'Subsegmental'
p3095
aI1555
aa(lp3096
S'total'
p3097
aI1556
aa(lp3098
S'tubes'
p3099
aI1557
aa(lp3100
S'radiation'
p3101
aI1558
aa(lp3102
S'Generalized'
p3103
aI1559
aa(lp3104
S'months'
p3105
aI1560
aa(lp3106
S'TIPS'
p3107
aI1561
aa(lp3108
S'Endotracheal'
p3109
aI1562
aa(lp3110
S'beneath'
p3111
aI1563
aa(lp3112
S'shoulder:'
p3113
aI1564
aa(lp3114
S'levels'
p3115
aI1565
aa(lp3116
S'markers.'
p3117
aI1566
aa(lp3118
S'Mild,'
p3119
aI1567
aa(lp3120
S'short'
p3121
aI1568
aa(lp3122
S'Bullae'
p3123
aI1569
aa(lp3124
S'regions,'
p3125
aI1570
aa(lp3126
S'levels.'
p3127
aI1571
aa(lp3128
S'Shunt'
p3129
aI1572
aa(lp3130
S'motion'
p3131
aI1573
aa(lp3132
S'rotation'
p3133
aI1574
aa(lp3134
S'interstitium'
p3135
aI1575
aa(lp3136
S'subpulmonic'
p3137
aI1576
aa(lp3138
S'vertebroplasty'
p3139
aI1577
aa(lp3140
S'Elevation'
p3141
aI1578
aa(lp3142
S'myeloma.'
p3143
aI1579
aa(lp3144
S'lucency.'
p3145
aI1580
aa(lp3146
S'prosthetic'
p3147
aI1581
aa(lp3148
S'cortex'
p3149
aI1582
aa(lp3150
S'view).'
p3151
aI1583
aa(lp3152
S'cuffing'
p3153
aI1584
aa(lp3154
S'notably'
p3155
aI1585
aa(lp3156
S'Lingular'
p3157
aI1586
aa(lp3158
S'line.'
p3159
aI1587
aa(lp3160
S'receipt'
p3161
aI1588
aa(lp3162
S'diaphragm,'
p3163
aI1589
aa(lp3164
S'dependent'
p3165
aI1590
aa(lp3166
S'centrally'
p3167
aI1591
aa(lp3168
S'fragment'
p3169
aI1592
aa(lp3170
S'osteopenia,'
p3171
aI1593
aa(lp3172
S'deformities,'
p3173
aI1594
aa(lp3174
S'ectatic,'
p3175
aI1595
aa(lp3176
S'Peripheral'
p3177
aI1596
aa(lp3178
S'IV'
p3179
aI1597
aa(lp3180
S'Contour'
p3181
aI1598
aa(lp3182
S'left-sided.'
p3183
aI1599
aa(lp3184
S'physician'
p3185
aI1600
aa(lp3186
S'p.m.'
p3187
aI1601
aa(lp3188
S'loss,'
p3189
aI1602
aa(lp3190
S'Senescent'
p3191
aI1603
aa(lp3192
S'Fractures'
p3193
aI1604
aa(lp3194
S'pattern,'
p3195
aI1605
aa(lp3196
S'shift'
p3197
aI1606
aa(lp3198
S'recommendations'
p3199
aI1607
aa(lp3200
S'posteriorly.'
p3201
aI1608
aa(lp3202
S'telephone'
p3203
aI1609
aa(lp3204
S'DISH'
p3205
aI1610
aa(lp3206
S'Several'
p3207
aI1611
aa(lp3208
S'definitively'
p3209
aI1612
aa(lp3210
S'XXXX-a-XXXX'
p3211
aI1613
aa(lp3212
S'alternatively'
p3213
aI1614
aa(lp3214
S'silhouettes.'
p3215
aI1615
aa(lp3216
S'end.'
p3217
aI1616
aa(lp3218
S'Cervical'
p3219
aI1617
aa(lp3220
S'I'
aI1618
aa(lp3221
S'cardia'
p3222
aI1619
aa(lp3223
S'progression'
p3224
aI1620
aa(lp3225
S'do'
p3226
aI1621
aa(lp3227
S'message'
p3228
aI1622
aa(lp3229
S'detailed'
p3230
aI1623
aa(lp3231
S'structures,'
p3232
aI1624
aa(lp3233
S'L1'
p3234
aI1625
aa(lp3235
S'T12'
p3236
aI1626
aa(lp3237
S'Lumbosacral'
p3238
aI1627
aa(lp3239
S'regions.'
p3240
aI1628
aa(lp3241
S'appreciable'
p3242
aI1629
aa(lp3243
S'before'
p3244
aI1630
aa(lp3245
S'portable'
p3246
aI1631
aa(lp3247
S'scapula'
p3248
aI1632
aa(lp3249
S'1.7'
p3250
aI1633
aa(lp3251
S'fractured.'
p3252
aI1634
aa(lp3253
S'Lobulated'
p3254
aI1635
aa(lp3255
S'vertebrae'
p3256
aI1636
aa(lp3257
S'benign'
p3258
aI1637
aa(lp3259
S'Ribs.'
p3260
aI1638
aa(lp3261
S'Pelvis.'
p3262
aI1639
aa(lp3263
S'obliteration'
p3264
aI1640
aa(lp3265
S'projectile'
p3266
aI1641
aa(lp3267
S'Calcifications'
p3268
aI1642
aa(lp3269
S'another'
p3270
aI1643
aa(lp3271
S'definitely'
p3272
aI1644
aa(lp3273
S'true'
p3274
aI1645
aa(lp3275
S'displacement'
p3276
aI1646
aa(lp3277
S'bronchial'
p3278
aI1647
aa(lp3279
S'poorly'
p3280
aI1648
aa(lp3281
S'second'
p3282
aI1649
aa(lp3283
S'sequelae'
p3284
aI1650
aa(lp3285
S'characterization'
p3286
aI1651
aa(lp3287
S'Cardiopulmonary'
p3288
aI1652
aa(lp3289
S'hyperlucent'
p3290
aI1653
aa(lp3291
S'denser'
p3292
aI1654
aa(lp3293
S'indeterminate'
p3294
aI1655
aa(lp3295
S'stool'
p3296
aI1656
aa(lp3297
S'Advanced'
p3298
aI1657
aa(lp3299
S'benefit'
p3300
aI1658
aa(lp3301
S'useful'
p3302
aI1659
aa(lp3303
S'Irregularity'
p3304
aI1660
aa(lp3305
S'Suggest'
p3306
aI1661
aa(lp3307
S'subchondral'
p3308
aI1662
aa(lp3309
S'potential'
p3310
aI1663
aa(lp3311
S'Pelvis'
p3312
aI1664
aa(lp3313
S'DISH.'
p3314
aI1665
aa(lp3315
S'Given'
p3316
aI1666
aa(lp3317
S'arthritis.'
p3318
aI1667
aa(lp3319
S'sclerosis'
p3320
aI1668
aa(lp3321
S'pacemaker.'
p3322
aI1669
aa(lp3323
S'contain'
p3324
aI1670
aa(lp3325
S'Flowing'
p3326
aI1671
aa(lp3327
S'L1,'
p3328
aI1672
aa(lp3329
S'aeration.'
p3330
aI1673
aa(lp3331
S'highly'
p3332
aI1674
aa(lp3333
S'positional.'
p3334
aI1675
aa(lp3335
S'deviation'
p3336
aI1676
aa(lp3337
S'lymphadenopathy,'
p3338
aI1677
aa(lp3339
S'terminates'
p3340
aI1678
aa(lp3341
S'osteoarthritis.'
p3342
aI1679
aa(lp3343
S'marginal'
p3344
aI1680
aa(lp3345
S'side.'
p3346
aI1681
aa(lp3347
S'clearing'
p3348
aI1682
aa(lp3349
S'carinatum.'
p3350
aI1683
aa(lp3351
S'Deformity'
p3352
aI1684
aa(lp3353
S'consideration.'
p3354
aI1685
aa(lp3355
S'addition,'
p3356
aI1686
aa(lp3357
S'residuals'
p3358
aI1687
aa(lp3359
S'superficial'
p3360
aI1688
aa(lp3361
S'appearance,'
p3362
aI1689
aa(lp3363
S'onset'
p3364
aI1690
aa(lp3365
S'exams'
p3366
aI1691
aa(lp3367
S'Although'
p3368
aI1692
aa(lp3369
S'fissural'
p3370
aI1693
aa(lp3371
S'masslike'
p3372
aI1694
aa(lp3373
S'malignancy'
p3374
aI1695
aa(lp3375
S'septal'
p3376
aI1696
aa(lp3377
S'limit'
p3378
aI1697
aa(lp3379
S'leads,'
p3380
aI1698
aa(lp3381
S'results'
p3382
aI1699
aa(lp3383
S'callus'
p3384
aI1700
aa(lp3385
S'Volume'
p3386
aI1701
aa(lp3387
S'circular'
p3388
aI1702
aa(lp3389
S'Irregular'
p3390
aI1703
aa(lp3391
S'horizontal'
p3392
aI1704
aa(lp3393
S'attenuation'
p3394
aI1705
aa(lp3395
S'Feeding'
p3396
aI1706
aa(lp3397
S'collecting'
p3398
aI1707
aa(lp3399
S'tricompartmental'
p3400
aI1708
aa(lp3401
S'width.'
p3402
aI1709
aa(lp3403
S'obliquely'
p3404
aI1710
aa(lp3405
S'Crowded'
p3406
aI1711
aa(lp3407
S'conspicuous'
p3408
aI1712
aa(lp3409
S'hip.'
p3410
aI1713
aa(lp3411
S'negative.'
p3412
aI1714
aa(lp3413
S'Worsening'
p3414
aI1715
aa(lp3415
S'airway'
p3416
aI1716
aa(lp3417
S'improved.'
p3418
aI1717
aa(lp3419
S'accentuated.'
p3420
aI1718
aa(lp3421
S'humerus,'
p3422
aI1719
aa(lp3423
S'Gastrostomy'
p3424
aI1720
aa(lp3425
S'disrupted.'
p3426
aI1721
aa(lp3427
S'immediately'
p3428
aI1722
aa(lp3429
S'Asymmetric'
p3430
aI1723
aa(lp3431
S'telephone.'
p3432
aI1724
aa(lp3433
S'zones.'
p3434
aI1725
aa(lp3435
S'workup'
p3436
aI1726
aa(lp3437
S'Couple'
p3438
aI1727
aa(lp3439
S'scars'
p3440
aI1728
aa(lp3441
S'progression.'
p3442
aI1729
aa(lp3443
S'Significant'
p3444
aI1730
aa(lp3445
S'T5'
p3446
aI1731
aa(lp3447
S'symptoms'
p3448
aI1732
aa(lp3449
S'calcaneal'
p3450
aI1733
aa(lp3451
S'13'
p3452
aI1734
aa(lp3453
S'care'
p3454
aI1735
aa(lp3455
S'Vertebral'
p3456
aI1736
aa(lp3457
S'chronic.'
p3458
aI1737
aa(lp3459
S'postsurgical.'
p3460
aI1738
aa(lp3461
S'bronchiectasis.'
p3462
aI1739
aa(lp3463
S'NECK.'
p3464
aI1740
aa(lp3465
S'TISSUE'
p3466
aI1741
aa(lp3467
S'infection/pneumonia.'
p3468
aI1742
aa(lp3469
S'moved'
p3470
aI1743
aa(lp3471
S'artifacts,'
p3472
aI1744
aa(lp3473
S'sparing'
p3474
aI1745
aa(lp3475
S'symmetric.'
p3476
aI1746
aa(lp3477
S'epiglottis'
p3478
aI1747
aa(lp3479
S'orthopedic'
p3480
aI1748
aa(lp3481
S'injuries.'
p3482
aI1749
aa(lp3483
S'Also'
p3484
aI1750
aa(lp3485
S'4.5'
p3486
aI1751
aa(lp3487
S'prevertebral'
p3488
aI1752
aa(lp3489
S'Results'
p3490
aI1753
aa(lp3491
S'scars.'
p3492
aI1754
aa(lp3493
S'subcarinal'
p3494
aI1755
aa(lp3495
S'Moderately'
p3496
aI1756
aa(lp3497
S'width'
p3498
aI1757
aa(lp3499
S'amputation.'
p3500
aI1758
aa(lp3501
S'process,'
p3502
aI1759
aa(lp3503
S'specifically'
p3504
aI1760
aa(lp3505
S'ICD/pacemaker.'
p3506
aI1761
aa(lp3507
S'recurrence.'
p3508
aI1762
aa(lp3509
S'effusion/hemothorax.'
p3510
aI1763
aa(lp3511
S'wedge-shaped'
p3512
aI1764
aa(lp3513
S'dual'
p3514
aI1765
aa(lp3515
S'define'
p3516
aI1766
aa(lp3517
S'densities.'
p3518
aI1767
aa(lp3519
S'essentially'
p3520
aI1768
aa(lp3521
S'inferiorly.'
p3522
aI1769
aa(lp3523
S'Granulomas.'
p3524
aI1770
aa(lp3525
S'Additional'
p3526
aI1771
aa(lp3527
S'syndesmophytes'
p3528
aI1772
aa(lp3529
S'displacement.'
p3530
aI1773
aa(lp3531
S'Suture'
p3532
aI1774
aa(lp3533
S'positioning'
p3534
aI1775
aa(lp3535
S'pelvis.'
p3536
aI1776
aa(lp3537
S'hypoventilated.'
p3538
aI1777
aa(lp3539
S'Air-fluid'
p3540
aI1778
aa(lp3541
S'pneumothoraces'
p3542
aI1779
aa(lp3543
S'aspiration'
p3544
aI1780
aa(lp3545
S'(on'
p3546
aI1781
aa(lp3547
S'cassettes)'
p3548
aI1782
aa(lp3549
S'detail.'
p3550
aI1783
aa(lp3551
S'based'
p3552
aI1784
aa(lp3553
S'low,'
p3554
aI1785
aa(lp3555
S'Nonobstructive'
p3556
aI1786
aa(lp3557
S'interpretation,'
p3558
aI1787
aa(lp3559
S'assist'
p3560
aI1788
aa(lp3561
S'opportunity'
p3562
aI1789
aa(lp3563
S'inlet.'
p3564
aI1790
aa(lp3565
S'allowing'
p3566
aI1791
aa(lp3567
S'paraspinal'
p3568
aI1792
aa(lp3569
S"XXXX's"
p3570
aI1793
aa(lp3571
S'tenting'
p3572
aI1794
aa(lp3573
S'Comparison:'
p3574
aI1795
aa(lp3575
S'PIC'
p3576
aI1796
aa(lp3577
S'needed'
p3578
aI1797
aa(lp3579
S'Metastatic'
p3580
aI1798
aa(lp3581
S'being'
p3582
aI1799
aa(lp3583
S'sternum.'
p3584
aI1800
aa(lp3585
S'possible.'
p3586
aI1801
aa(lp3587
S'degree'
p3588
aI1802
aa(lp3589
S'3rd'
p3590
aI1803
aa(lp3591
S'radiograph,'
p3592
aI1804
aa(lp3593
S'image.'
p3594
aI1805
aa(lp3595
S'ventricles.'
p3596
aI1806
aa(lp3597
S'corresponds'
p3598
aI1807
aa(lp3599
S'surface.'
p3600
aI1808
aa(lp3601
S'medication'
p3602
aI1809
aa(lp3603
S'injection'
p3604
aI1810
aa(lp3605
S'Inferior'
p3606
aI1811
aa(lp3607
S'radiologist,'
p3608
aI1812
aa(lp3609
S'ago.'
p3610
aI1813
aa(lp3611
S'bronchiectasis'
p3612
aI1814
aa(lp3613
S'years'
p3614
aI1815
aa(lp3615
S'zones'
p3616
aI1816
aa(lp3617
S'elbow'
p3618
aI1817
aa(lp3619
S'circumscribed'
p3620
aI1818
aa(lp3621
S'Previous'
p3622
aI1819
aa(lp3623
S'thought'
p3624
aI1820
aa(lp3625
S'summation'
p3626
aI1821
aa(lp3627
S'LV'
p3628
aI1822
aa(lp3629
S'Unclear'
p3630
aI1823
aa(lp3631
S'trachea,'
p3632
aI1824
aa(lp3633
S'elevated,'
p3634
aI1825
aa(lp3635
S'redemonstrated,'
p3636
aI1826
aa(lp3637
S'component'
p3638
aI1827
aa(lp3639
S'caliber'
p3640
aI1828
aa(lp3641
S'examination,'
p3642
aI1829
aa(lp3643
S'warranted'
p3644
aI1830
aa(lp3645
S'12th'
p3646
aI1831
aa(lp3647
S'sulcus.'
p3648
aI1832
aa(lp3649
S'pneumonitis'
p3650
aI1833
aa(lp3651
S'concern,'
p3652
aI1834
aa(lp3653
S'electronic'
p3654
aI1835
aa(lp3655
S'Also,'
p3656
aI1836
aa(lp3657
S'filled'
p3658
aI1837
aa(lp3659
S'subacute'
p3660
aI1838
aa(lp3661
S'recess'
p3662
aI1839
aa(lp3663
S'Age'
p3664
aI1840
aa(lp3665
S'hips'
p3666
aI1841
aa(lp3667
S'Lucent'
p3668
aI1842
aa(lp3669
S'metastases.'
p3670
aI1843
aa(lp3671
S'Prosthetic'
p3672
aI1844
aa(lp3673
S'certified'
p3674
aI1845
aa(lp3675
S'left-to-right'
p3676
aI1846
aa(lp3677
S'right,'
p3678
aI1847
aa(lp3679
S'Developing'
p3680
aI1848
aa(lp3681
S'testes'
p3682
aI1849
aa(lp3683
S'Obscured'
p3684
aI1850
aa(lp3685
S'infracarinal'
p3686
aI1851
aa(lp3687
S'change,'
p3688
aI1852
aa(lp3689
S'CHEST.'
p3690
aI1853
aa(lp3691
S'suspect'
p3692
aI1854
aa(lp3693
S'prior,'
p3694
aI1855
aa(lp3695
S'persistently'
p3696
aI1856
aa(lp3697
S'considered'
p3698
aI1857
aa(lp3699
S'8-12'
p3700
aI1858
aa(lp3701
S'atrium,'
p3702
aI1859
aa(lp3703
S'Fracture-dislocation'
p3704
aI1860
aa(lp3705
S'below.'
p3706
aI1861
aa(lp3707
S'persist'
p3708
aI1862
aa(lp3709
S'weeks.'
p3710
aI1863
aa(lp3711
S'IMPRESSION:'
p3712
aI1864
aa(lp3713
S'identify'
p3714
aI1865
aa(lp3715
S'spine:'
p3716
aI1866
aa(lp3717
S'separation'
p3718
aI1867
aa(lp3719
S'SOFT'
p3720
aI1868
aa(lp3721
S'CHEST'
p3722
aI1869
aa(lp3723
S'exaggeration'
p3724
aI1870
aa(lp3725
S'films,'
p3726
aI1871
aa(lp3727
S'To'
p3728
aI1872
aa(lp3729
S'acknowledged'
p3730
aI1873
aa(lp3731
S'confluence'
p3732
aI1874
aa(lp3733
S'loculation.'
p3734
aI1875
aa(lp3735
S'Does'
p3736
aI1876
aa(lp3737
S'nonemergent'
p3738
aI1877
aa(lp3739
S'tendinitis.'
p3740
aI1878
aa(lp3741
S'otherwise,'
p3742
aI1879
aa(lp3743
S'only.'
p3744
aI1880
aa(lp3745
S'forearm.'
p3746
aI1881
aa(lp3747
S'pads.'
p3748
aI1882
aa(lp3749
S'As'
p3750
aI1883
aa(lp3751
S'lesion,'
p3752
aI1884
aa(lp3753
S'localize'
p3754
aI1885
aa(lp3755
S'setting.'
p3756
aI1886
aa(lp3757
S'formations.'
p3758
aI1887
aa(lp3759
S'XXXX-filled'
p3760
aI1888
aa(lp3761
S'Again,'
p3762
aI1889
aa(lp3763
S'degraded'
p3764
aI1890
aa(lp3765
S'rotated,'
p3766
aI1891
aa(lp3767
S'mostly'
p3768
aI1892
aa(lp3769
S'haziness'
p3770
aI1893
aa(lp3771
S'tapering'
p3772
aI1894
aa(lp3773
S'Underinflated'
p3774
aI1895
aa(lp3775
S'Result'
p3776
aI1896
aa(lp3777
S'shielded.'
p3778
aI1897
aa(lp3779
S'formation.'
p3780
aI1898
aa(lp3781
S'pathologic'
p3782
aI1899
aa(lp3783
S'inflammation,'
p3784
aI1900
aa(lp3785
S'scar,'
p3786
aI1901
aa(lp3787
S'Residual'
p3788
aI1902
aa(lp3789
S'nerve'
p3790
aI1903
aa(lp3791
S'surrounding'
p3792
aI1904
aa(lp3793
S'3.7'
p3794
aI1905
aa(lp3795
S'subluxation.'
p3796
aI1906
aa(lp3797
S'positioned'
p3798
aI1907
aa(lp3799
S'postop'
p3800
aI1908
aa(lp3801
S'(XXXX'
p3802
aI1909
aa(lp3803
S'Spurring'
p3804
aI1910
aa(lp3805
S'etiology.'
p3806
aI1911
aa(lp3807
S'rotatory'
p3808
aI1912
aa(lp3809
S'right-to-left'
p3810
aI1913
aa(lp3811
S'3.2'
p3812
aI1914
aa(lp3813
S'around'
p3814
aI1915
aa(lp3815
S'reaction.'
p3816
aI1916
aa(lp3817
S'Sternotomy.'
p3818
aI1917
aa(lp3819
S'esophagectomy'
p3820
aI1918
aa(lp3821
S'nodule/mass'
p3822
aI1919
aa(lp3823
S'except'
p3824
aI1920
aa(lp3825
S'described,'
p3826
aI1921
aa(lp3827
S'behind'
p3828
aI1922
aa(lp3829
S'patellofemoral'
p3830
aI1923
aa(lp3831
S'grafting.'
p3832
aI1924
aa(lp3833
S'tortuous/ectatic'
p3834
aI1925
aa(lp3835
S'dominant'
p3836
aI1926
aa(lp3837
S'review'
p3838
aI1927
aa(lp3839
S'sacroiliac'
p3840
aI1928
aa(lp3841
S'vasculatures'
p3842
aI1929
aa(lp3843
S'alignment.'
p3844
aI1930
aa(lp3845
S'Leads'
p3846
aI1931
aa(lp3847
S'bullae'
p3848
aI1932
aa(lp3849
S'informative'
p3850
aI1933
aa(lp3851
S'Significantly'
p3852
aI1934
aa(lp3853
S'sixth'
p3854
aI1935
aa(lp3855
S'Lordotic'
p3856
aI1936
aa(lp3857
S'superior-most'
p3858
aI1937
aa(lp3859
S'IVC'
p3860
aI1938
aa(lp3861
S'establish'
p3862
aI1939
aa(lp3863
S'origin'
p3864
aI1940
aa(lp3865
S'clavicle:'
p3866
aI1941
aa(lp3867
S'cavity'
p3868
aI1942
aa(lp3869
S'assess'
p3870
aI1943
aa(lp3871
S'stents'
p3872
aI1944
aa(lp3873
S'Sacrum'
p3874
aI1945
aa(lp3875
S'vein'
p3876
aI1946
aa(lp3877
S'comparisons.'
p3878
aI1947
aa(lp3879
S'Unfolding'
p3880
aI1948
aa(lp3881
S'bodies,'
p3882
aI1949
aa(lp3883
S'uncalcified'
p3884
aI1950
aa(lp3885
S'flowing'
p3886
aI1951
aa(lp3887
S'7mm'
p3888
aI1952
aa(lp3889
S'2.2'
p3890
aI1953
aa(lp3891
S'stomach.'
p3892
aI1954
aa(lp3893
S'performed,'
p3894
aI1955
aa(lp3895
S'contrast-enhanced'
p3896
aI1956
aa(lp3897
S'regarding'
p3898
aI1957
aa(lp3899
S'Grossly,'
p3900
aI1958
aa(lp3901
S'Levoscoliosis'
p3902
aI1959
aa(lp3903
S'findings,'
p3904
aI1960
aa(lp3905
S'reticular-nodular'
p3906
aI1961
aa(lp3907
S'leads.'
p3908
aI1962
aa(lp3909
S'abnormality,'
p3910
aI1963
aa(lp3911
S'Overlying'
p3912
aI1964
aa(lp3913
S'lumpectomy.'
p3914
aI1965
aa(lp3915
S'KUB'
p3916
aI1966
aa(lp3917
S'Stent'
p3918
aI1967
aa(lp3919
S'hydropneumothorax'
p3920
aI1968
aa(lp3921
S'Descending'
p3922
aI1969
aa(lp3923
S'carinatum'
p3924
aI1970
aa(lp3925
S'Radiographic'
p3926
aI1971
aa(lp3927
S'punctate'
p3928
aI1972
aa(lp3929
S'juxtahilar'
p3930
aI1973
aa(lp3931
S'degeneration'
p3932
aI1974
aa(lp3933
S'examination..'
p3934
aI1975
aa(lp3935
S'wall,'
p3936
aI1976
aa(lp3937
S'tube,'
p3938
aI1977
aa(lp3939
S'area,'
p3940
aI1978
aa(lp3941
S'KUB.'
p3942
aI1979
aa(lp3943
S'redistribution'
p3944
aI1980
aa(lp3945
S'XXXX/fluid'
p3946
aI1981
aa(lp3947
S'obstruction'
p3948
aI1982
aa(lp3949
S'nonspecific.'
p3950
aI1983
aa(lp3951
S'asbestos'
p3952
aI1984
aa(lp3953
S'biventricular'
p3954
aI1985
aa(lp3955
S'midabdomen.'
p3956
aI1986
aa(lp3957
S'films.'
p3958
aI1987
aa(lp3959
S'plaque'
p3960
aI1988
aa(lp3961
S'spurring.'
p3962
aI1989
aa(lp3963
S'traction'
p3964
aI1990
aa(lp3965
S'prostheses'
p3966
aI1991
aa(lp3967
S'hemodialysis'
p3968
aI1992
aa(lp3969
S'exposure.'
p3970
aI1993
aa(lp3971
S'histoplasmosis'
p3972
aI1994
aa(lp3973
S'spaces,'
p3974
aI1995
aa(lp3975
S'Innumerable'
p3976
aI1996
aa(lp3977
S'evaluation,'
p3978
aI1997
aa(lp3979
S'scans.'
p3980
aI1998
aa(lp3981
S'foot.'
p3982
aI1999
aa(lp3983
S'retrohilar'
p3984
aI2000
aa(lp3985
S'lobulated'
p3986
aI2001
aa(lp3987
S'stripe,'
p3988
aI2002
aa(lp3989
S'CHF'
p3990
aI2003
aa(lp3991
S'readily'
p3992
aI2004
aa(lp3993
S'Tortuous,'
p3994
aI2005
aa(lp3995
S'fissures.'
p3996
aI2006
aa(lp3997
S'well-demonstrated'
p3998
aI2007
aa(lp3999
S'limits..'
p4000
aI2008
aa(lp4001
S'prominent,'
p4002
aI2009
aa(lp4003
S'dissection.'
p4004
aI2010
aa(lp4005
S'ectasia.'
p4006
aI2011
aa(lp4007
S'ectasia/tortuosity'
p4008
aI2012
aa(lp4009
S'sulcus,'
p4010
aI2013
aa(lp4011
S'curvature.'
p4012
aI2014
aa(lp4013
S'earlier'
p4014
aI2015
aa(lp4015
S'occluder'
p4016
aI2016
aa(lp4017
S'Atrial'
p4018
aI2017
aa(lp4019
S'embolization'
p4020
aI2018
aa(lp4021
S'lucencies'
p4022
aI2019
aa(lp4023
S'called'
p4024
aI2020
aa(lp4025
S'based.'
p4026
aI2021
aa(lp4027
S'outflow'
p4028
aI2022
aa(lp4029
S'chronicity'
p4030
aI2023
aa(lp4031
S'arm'
p4032
aI2024
aa(lp4033
S'defined'
p4034
aI2025
aa(lp4035
S'lucent'
p4036
aI2026
aa(lp4037
S'either'
p4038
aI2027
aa(lp4039
S'3.8'
p4040
aI2028
aa(lp4041
S'Remaining'
p4042
aI2029
aa(lp4043
S'XXXX/granulomas.'
p4044
aI2030
aa(lp4045
S'hyper'
p4046
aI2031
aa(lp4047
S'demineralization'
p4048
aI2032
aa(lp4049
S'exclude.'
p4050
aI2033
aa(lp4051
S'cyst'
p4052
aI2034
aa(lp4053
S'ratio'
p4054
aI2035
aa(lp4055
S'Ectatic'
p4056
aI2036
aa(lp4057
S'embolism'
p4058
aI2037
aa(lp4059
S"They're"
p4060
aI2038
aa(lp4061
S'old.'
p4062
aI2039
aa(lp4063
S'chronic,'
p4064
aI2040
aa(lp4065
S'mild,'
p4066
aI2041
aa(lp4067
S'projectional'
p4068
aI2042
aa(lp4069
S'certainty.'
p4070
aI2043
aa(lp4071
S'fragment.'
p4072
aI2044
aa(lp4073
S'stated'
p4074
aI2045
aa(lp4075
S'calcium'
p4076
aI2046
aa(lp4077
S'scapular'
p4078
aI2047
aa(lp4079
S'common'
p4080
aI2048
aa(lp4081
S'Atypical'
p4082
aI2049
aa(lp4083
S'fragments'
p4084
aI2050
aa(lp4085
S'same'
p4086
aI2051
aa(lp4087
S'Not'
p4088
aI2052
aa(lp4089
S'graft.'
p4090
aI2053
aa(lp4091
S'measure'
p4092
aI2054
aa(lp4093
S'technique'
p4094
aI2055
aa(lp4095
S'air-filled'
p4096
aI2056
aa(lp4097
S'limited.'
p4098
aI2057
aa(lp4099
S'positioning.'
p4100
aI2058
aa(lp4101
S'acetabulum'
p4102
aI2059
aa(lp4103
S'Improving'
p4104
aI2060
aa(lp4105
S'residual.'
p4106
aI2061
aa(lp4107
S'markers'
p4108
aI2062
aa(lp4109
S'minimally'
p4110
aI2063
aa(lp4111
S'case'
p4112
aI2064
aa(lp4113
S'features.'
p4114
aI2065
aa(lp4115
S'complicating'
p4116
aI2066
aa(lp4117
S'discuss'
p4118
aI2067
aa(lp4119
S'CABG,'
p4120
aI2068
aa(lp4121
S'All'
p4122
aI2069
aa(lp4123
S'performance'
p4124
aI2070
aa(lp4125
S'Epigastric'
p4126
aI2071
aa(lp4127
S'Possibility'
p4128
aI2072
aa(lp4129
S'Azygos'
p4130
aI2073
aa(lp4131
S'nonenlarged'
p4132
aI2074
aa(lp4133
S'reside'
p4134
aI2075
aa(lp4135
S'Bullous'
p4136
aI2076
aa(lp4137
S'Few'
p4138
aI2077
aa(lp4139
S'globular'
p4140
aI2078
aa(lp4141
S'repositioning'
p4142
aI2079
aa(lp4143
S'further,'
p4144
aI2080
aa(lp4145
S'costicartilage'
p4146
aI2081
aa(lp4147
S'line,'
p4148
aI2082
aa(lp4149
S'dimension'
p4150
aI2083
aa(lp4151
S'Partial'
p4152
aI2084
aa(lp4153
S'atelectasis/scar.'
p4154
aI2085
aa(lp4155
S'Increase'
p4156
aI2086
aa(lp4157
S'hemidiaphragm,'
p4158
aI2087
aa(lp4159
S'dextrocardia.'
p4160
aI2088
aa(lp4161
S'characterize.'
p4162
aI2089
aa(lp4163
S'fat,'
p4164
aI2090
aa(lp4165
S'4th,'
p4166
aI2091
aa(lp4167
S'Postop'
p4168
aI2092
aa(lp4169
S'2.0'
p4170
aI2093
aa(lp4171
S'performed.'
p4172
aI2094
aa(lp4173
S'erosions'
p4174
aI2095
aa(lp4175
S'visualized,'
p4176
aI2096
aa(lp4177
S'ordering'
p4178
aI2097
aa(lp4179
S'Thanks.'
p4180
aI2098
aa(lp4181
S'prosthesis.'
p4182
aI2099
aa(lp4183
S'deep'
p4184
aI2100
aa(lp4185
S'until'
p4186
aI2101
aa(lp4187
S'coronal'
p4188
aI2102
aa(lp4189
S'level,'
p4190
aI2103
aa(lp4191
S'rectum.'
p4192
aI2104
aa(lp4193
S'perhaps'
p4194
aI2105
aa(lp4195
S'number'
p4196
aI2106
aa(lp4197
S'At'
p4198
aI2107
aa(lp4199
S'especially'
p4200
aI2108
aa(lp4201
S'generator.'
p4202
aI2109
aa(lp4203
S'cleared'
p4204
aI2110
aa(lp4205
S'atelectasis/scarring.'
p4206
aI2111
aa(lp4207
S'prosthesis'
p4208
aI2112
aa(lp4209
S'smaller'
p4210
aI2113
aa(lp4211
S'Air'
p4212
aI2114
aa(lp4213
S'stability'
p4214
aI2115
aa(lp4215
S'extremely'
p4216
aI2116
aa(lp4217
S'result.'
p4218
aI2117
aa(lp4219
S'inferiorly'
p4220
aI2118
aa(lp4221
S'sagittal'
p4222
aI2119
aa(lp4223
S'vein,'
p4224
aI2120
aa(lp4225
S'OR'
p4226
aI2121
aa(lp4227
S'position,'
p4228
aI2122
aa(lp4229
S'pleuroparenchymal'
p4230
aI2123
aa(lp4231
S'assessment'
p4232
aI2124
aa(lp4233
S'Subcutaneous'
p4234
aI2125
aa(lp4235
S'compressive'
p4236
aI2126
aa(lp4237
S'skin'
p4238
aI2127
aa(lp4239
S'epigastric'
p4240
aI2128
aa(lp4241
S'evident.'
p4242
aI2129
aa(lp4243
S'innumerable'
p4244
aI2130
aa(lp4245
S'Granulomas'
p4246
aI2131
aa(lp4247
S'removed'
p4248
aI2132
aa(lp4249
S'piriform'
p4250
aI2133
aa(lp4251
S'included'
p4252
aI2134
aa(lp4253
S'symmetrically'
p4254
aI2135
aa(lp4255
S'generalized'
p4256
aI2136
aa(lp4257
S'persists'
p4258
aI2137
aa(lp4259
S'results.'
p4260
aI2138
aa(lp4261
S'liver.'
p4262
aI2139
aa(lp4263
S'suspected'
p4264
aI2140
aa(lp4265
S'considering'
p4266
aI2141
aa(lp4267
S'Lucency'
p4268
aI2142
aa(lp4269
S'osteoarthritis'
p4270
aI2143
aa(lp4271
S'scaphoid.'
p4272
aI2144
aa(lp4273
S'ring'
p4274
aI2145
aa(lp4275
S'thorax,'
p4276
aI2146
aa(lp4277
S'correct'
p4278
aI2147
aa(lp4279
S'end'
p4280
aI2148
aa(lp4281
S'Pneumoperitoneum,'
p4282
aI2149
aa(lp4283
S'coursing'
p4284
aI2150
aa(lp4285
S'12'
p4286
aI2151
aa(lp4287
S'regions'
p4288
aI2152
aa(lp4289
S'artery.'
p4290
aI2153
aa(lp4291
S'bridging.'
p4292
aI2154
aa(lp4293
S'mm.'
p4294
aI2155
aa(lp4295
S'osteopenic.'
p4296
aI2156
aa(lp4297
S'tenderness'
p4298
aI2157
aa(lp4299
S'grade'
p4300
aI2158
aa(lp4301
S'inflammation'
p4302
aI2159
aa(lp4303
S'implants'
p4304
aI2160
aa(lp4305
S'KV'
p4306
aI2161
aa(lp4307
S'carina,'
p4308
aI2162
aa(lp4309
S'densely'
p4310
aI2163
aa(lp4311
S'strandy'
p4312
aI2164
aa(lp4313
S'passive'
p4314
aI2165
aa(lp4315
S'atelectasis/scarring'
p4316
aI2166
aa(lp4317
S'Endplate'
p4318
aI2167
aa(lp4319
S'primarily'
p4320
aI2168
aa(lp4321
S'tissues,'
p4322
aI2169
aa(lp4323
S'vertebra'
p4324
aI2170
aa(lp4325
S'projection,'
p4326
aI2171
aa(lp4327
S'heavily'
p4328
aI2172
aa(lp4329
S'dextroscoliosis,'
p4330
aI2173
aa(lp4331
S'vertebrae,'
p4332
aI2174
aa(lp4333
S'hypoinflation.'
p4334
aI2175
aa(lp4335
S'atelectasis/infiltrate.'
p4336
aI2176
aa(lp4337
S'non-calcified'
p4338
aI2177
aa(lp4339
S'postradiation'
p4340
aI2178
aa(lp4341
S'Nipple'
p4342
aI2179
aa(lp4343
S'repair.'
p4344
aI2180
aa(lp4345
S'recesses'
p4346
aI2181
aa(lp4347
S'paraspinal/retrocrural'
p4348
aI2182
aa(lp4349
S'limited,'
p4350
aI2183
aa(lp4351
S'Examination'
p4352
aI2184
aa(lp4353
S'bronchiolitis.'
p4354
aI2185
aa(lp4355
S'viral'
p4356
aI2186
aa(lp4357
S'evident'
p4358
aI2187
aa(lp4359
S'enlarging'
p4360
aI2188
aa(lp4361
S'(lateral'
p4362
aI2189
aa(lp4363
S'thickening/scarring.'
p4364
aI2190
aa(lp4365
S'cavitation.'
p4366
aI2191
aa(lp4367
S'goiter.'
p4368
aI2192
aa(lp4369
S'complication.'
p4370
aI2193
aa(lp4371
S'5th,'
p4372
aI2194
aa(lp4373
S'stripe.'
p4374
aI2195
aa(lp4375
S'exposure'
p4376
aI2196
aa(lp4377
S'interposition'
p4378
aI2197
aa(lp4379
S'levoscoliosis.'
p4380
aI2198
aa(lp4381
S'suspected.'
p4382
aI2199
aa(lp4383
S'mixed'
p4384
aI2200
aa(lp4385
S'hyperexpansion,'
p4386
aI2201
aa(lp4387
S'osteodystrophy'
p4388
aI2202
aa(lp4389
S'require'
p4390
aI2203
aa(lp4391
S'hyperdense'
p4392
aI2204
aa(lp4393
S'favoring'
p4394
aI2205
aa(lp4395
S'node,'
p4396
aI2206
aa(lp4397
S'habitus'
p4398
aI2207
aa(lp4399
S'recess,'
p4400
aI2208
aa(lp4401
S'engorged'
p4402
aI2209
aa(lp4403
S'Obscuration'
p4404
aI2210
aa(lp4405
S'Been'
p4406
aI2211
aa(lp4407
S'Now'
p4408
aI2212
aa(lp4409
S'condition.'
p4410
aI2213
aa(lp4411
S'near-complete'
p4412
aI2214
aa(lp4413
S'Malpositioned'
p4414
aI2215
aa(lp4415
S'bronchopulmonary'
p4416
aI2216
aa(lp4417
S'planning.'
p4418
aI2217
aa(lp4419
S'age'
p4420
aI2218
aa(lp4421
S'purpose'
p4422
aI2219
aa(lp4423
S'atelectatic/fibrotic'
p4424
aI2220
aa(lp4425
S'1.Severe'
p4426
aI2221
aa(lp4427
S'narrowed'
p4428
aI2222
aa(lp4429
S'CXR'
p4430
aI2223
aa(lp4431
S'tip.'
p4432
aI2224
aa(lp4433
S'clarification.'
p4434
aI2225
aa(lp4435
S'Study'
p4436
aI2226
aa(lp4437
S'mediastinum.There'
p4438
aI2227
aa(lp4439
S'nonspecific,'
p4440
aI2228
aa(lp4441
S'fully'
p4442
aI2229
aa(lp4443
S'effusion/pneumothorax.'
p4444
aI2230
aa(lp4445
S'COPD;'
p4446
aI2231
aa(lp4447
S'advancement'
p4448
aI2232
aa(lp4449
S'SVC;'
p4450
aI2233
aa(lp4451
S'fluid..'
p4452
aI2234
aa(lp4453
S'convexity,'
p4454
aI2235
aa(lp4455
S'appearances'
p4456
aI2236
aa(lp4457
S'infiltrate/atelectasis'
p4458
aI2237
aa(lp4459
S'shift,'
p4460
aI2238
aa(lp4461
S'pronounced'
p4462
aI2239
aa(lp4463
S'Opacification'
p4464
aI2240
aa(lp4465
S'Thin'
p4466
aI2241
aa(lp4467
S'atrium/cavoatrial'
p4468
aI2242
aa(lp4469
S'solid'
p4470
aI2243
aa(lp4471
S'interspace'
p4472
aI2244
aa(lp4473
S'series'
p4474
aI2245
aa(lp4475
S'postsurgical,'
p4476
aI2246
aa(lp4477
S'exchange.'
p4478
aI2247
aa(lp4479
S'exchanged'
p4480
aI2248
aa(lp4481
S'discordant,'
p4482
aI2249
aa(lp4483
S'triangular'
p4484
aI2250
aa(lp4485
S'Indistinct'
p4486
aI2251
aa(lp4487
S'verterbroplasty'
p4488
aI2252
aa(lp4489
S'stomach,'
p4490
aI2253
aa(lp4491
S'1.1'
p4492
aI2254
aa(lp4493
S'distending'
p4494
aI2255
aa(lp4495
S'zone,'
p4496
aI2256
aa(lp4497
S'metastases'
p4498
aI2257
aa(lp4499
S'suited'
p4500
aI2258
aa(lp4501
S'interspaces'
p4502
aI2259
aa(lp4503
S'Old,'
p4504
aI2260
aa(lp4505
S'collections'
p4506
aI2261
aa(lp4507
S'verify.'
p4508
aI2262
aa(lp4509
S'healed.'
p4510
aI2263
aa(lp4511
S'knees'
p4512
aI2264
aa(lp4513
S'SVC,'
p4514
aI2265
aa(lp4515
S'forefoot'
p4516
aI2266
aa(lp4517
S'midfoot,'
p4518
aI2267
aa(lp4519
S'Hindfoot,'
p4520
aI2268
aa(lp4521
S'demonstration'
p4522
aI2269
aa(lp4523
S'Two-view'
p4524
aI2270
aa(lp4525
S'knees.'
p4526
aI2271
aa(lp4527
S'Widening'
p4528
aI2272
aa(lp4529
S'Rib'
p4530
aI2273
aa(lp4531
S'streakiness,'
p4532
aI2274
aa(lp4533
S'streakiness'
p4534
aI2275
aa(lp4535
S'scarring/emphysematous'
p4536
aI2276
aa(lp4537
S'strongly'
p4538
aI2277
aa(lp4539
S'blunting,'
p4540
aI2278
aa(lp4541
S'sarcoid.'
p4542
aI2279
aa(lp4543
S'sarcoid,'
p4544
aI2280
aa(lp4545
S'cross-sectional'
p4546
aI2281
aa(lp4547
S'cartilages.'
p4548
aI2282
aa(lp4549
S'malignancy,'
p4550
aI2283
aa(lp4551
S'ring.'
p4552
aI2284
aa(lp4553
S'unilateral'
p4554
aI2285
aa(lp4555
S'film,'
p4556
aI2286
aa(lp4557
S'Paramediastinal'
p4558
aI2287
aa(lp4559
S'Age-indeterminate,'
p4560
aI2288
aa(lp4561
S'Nonemergent'
p4562
aI2289
aa(lp4563
S'findings/opacities/infiltrates'
p4564
aI2290
aa(lp4565
S'interstitium,'
p4566
aI2291
aa(lp4567
S'a.m.'
p4568
aI2292
aa(lp4569
S'accessory'
p4570
aI2293
aa(lp4571
S'department'
p4572
aI2294
aa(lp4573
S'sternoclavicular'
p4574
aI2295
aa(lp4575
S'attributable'
p4576
aI2296
aa(lp4577
S'Postsurgical/biopsy'
p4578
aI2297
aa(lp4579
S'mid/lower'
p4580
aI2298
aa(lp4581
S'blunted,'
p4582
aI2299
aa(lp4583
S'sent.'
p4584
aI2300
aa(lp4585
S'Recurrent'
p4586
aI2301
aa(lp4587
S'anchor'
p4588
aI2302
aa(lp4589
S'they'
p4590
aI2303
aa(lp4591
S'prostheses.'
p4592
aI2304
aa(lp4593
S'postsurgical/post'
p4594
aI2305
aa(lp4595
S'lobectomy,'
p4596
aI2306
aa(lp4597
S'identity.'
p4598
aI2307
aa(lp4599
S'reduced.'
p4600
aI2308
aa(lp4601
S'diaphragms,'
p4602
aI2309
aa(lp4603
S'improvement.'
p4604
aI2310
aa(lp4605
S'Hyperexpansion,'
p4606
aI2311
aa(lp4607
S'thickening/atelectasis'
p4608
aI2312
aa(lp4609
S'deviation.'
p4610
aI2313
aa(lp4611
S'space,'
p4612
aI2314
aa(lp4613
S'Suspicion'
p4614
aI2315
aa(lp4615
S'100%.'
p4616
aI2316
aa(lp4617
S'described.'
p4618
aI2317
aa(lp4619
S'6.0'
p4620
aI2318
aa(lp4621
S'Removal'
p4622
aI2319
aa(lp4623
S'faxed.'
p4624
aI2320
aa(lp4625
S'receipt.'
p4626
aI2321
aa(lp4627
S'accepted'
p4628
aI2322
aa(lp4629
S'XXXX/XXXX'
p4630
aI2323
aa(lp4631
S'XXXXPM'
p4632
aI2324
aa(lp4633
S'5.8'
p4634
aI2325
aa(lp4635
S'Right-to-left'
p4636
aI2326
aa(lp4637
S'silhouette;'
p4638
aI2327
aa(lp4639
S'Radiographically,'
p4640
aI2328
aa(lp4641
S'tract'
p4642
aI2329
aa(lp4643
S'2.No'
p4644
aI2330
aa(lp4645
S'physiology.'
p4646
aI2331
aa(lp4647
S'present,'
p4648
aI2332
aa(lp4649
S'scarring;'
p4650
aI2333
aa(lp4651
S'anteriorly.'
p4652
aI2334
aa(lp4653
S'radiography'
p4654
aI2335
aa(lp4655
S'posterobasal'
p4656
aI2336
aa(lp4657
S'pathology'
p4658
aI2337
aa(lp4659
S'pathology.'
p4660
aI2338
aa(lp4661
S'fold'
p4662
aI2339
aa(lp4663
S'beyond'
p4664
aI2340
aa(lp4665
S'Reticulonodular'
p4666
aI2341
aa(lp4667
S'segment.'
p4668
aI2342
aa(lp4669
S'Relatively'
p4670
aI2343
aa(lp4671
S'Size'
p4672
aI2344
aa(lp4673
S'narrowed.'
p4674
aI2345
aa(lp4675
S'necks.'
p4676
aI2346
aa(lp4677
S'Osteophytes'
p4678
aI2347
aa(lp4679
S'setting,'
p4680
aI2348
aa(lp4681
S'infection/pneumonia'
p4682
aI2349
aa(lp4683
S'ligamentous'
p4684
aI2350
aa(lp4685
S'Follow'
p4686
aI2351
aa(lp4687
S'assess.'
p4688
aI2352
aa(lp4689
S'T12-L1.'
p4690
aI2353
aa(lp4691
S'plateaus.'
p4692
aI2354
aa(lp4693
S'moderately-inflated'
p4694
aI2355
aa(lp4695
S'anomaly'
p4696
aI2356
aa(lp4697
S'developmental'
p4698
aI2357
aa(lp4699
S'congenital'
p4700
aI2358
aa(lp4701
S'Diffuse,'
p4702
aI2359
aa(lp4703
S'T12-L1'
p4704
aI2360
aa(lp4705
S'aspect.'
p4706
aI2361
aa(lp4707
S'recurrence'
p4708
aI2362
aa(lp4709
S'tibial'
p4710
aI2363
aa(lp4711
S'narrow.'
p4712
aI2364
aa(lp4713
S'Formed'
p4714
aI2365
aa(lp4715
S'marking.'
p4716
aI2366
aa(lp4717
S'distended'
p4718
aI2367
aa(lp4719
S'metastasis.'
p4720
aI2368
aa(lp4721
S'mechanical'
p4722
aI2369
aa(lp4723
S'artery,'
p4724
aI2370
aa(lp4725
S'piercing).'
p4726
aI2371
aa(lp4727
S'sternum'
p4728
aI2372
aa(lp4729
S'intramedullary'
p4730
aI2373
aa(lp4731
S'6.4'
p4732
aI2374
aa(lp4733
S'3-4'
p4734
aI2375
aa(lp4735
S'Conspicuous'
p4736
aI2376
aa(lp4737
S'bullae.'
p4738
aI2377
aa(lp4739
S'hypoventilation.'
p4740
aI2378
aa(lp4741
S'evaluated,'
p4742
aI2379
aa(lp4743
S'Dextroconvex'
p4744
aI2380
aa(lp4745
S'disruption'
p4746
aI2381
aa(lp4747
S'acute.'
p4748
aI2382
aa(lp4749
S'defect'
p4750
aI2383
aa(lp4751
S'enlargement.Prominence'
p4752
aI2384
aa(lp4753
S'Patchy,'
p4754
aI2385
aa(lp4755
S'configuration,'
p4756
aI2386
aa(lp4757
S'hypertrophy.'
p4758
aI2387
aa(lp4759
S'body(lateral'
p4760
aI2388
aa(lp4761
S'Limbus'
p4762
aI2389
aa(lp4763
S'voluntary'
p4764
aI2390
aa(lp4765
S'well-aerated'
p4766
aI2391
aa(lp4767
S'manifestations'
p4768
aI2392
aa(lp4769
S'fractured'
p4770
aI2393
aa(lp4771
S'upper/mid'
p4772
aI2394
aa(lp4773
S'incidentally,'
p4774
aI2395
aa(lp4775
S'mediastinal,'
p4776
aI2396
aa(lp4777
S'inability.'
p4778
aI2397
aa(lp4779
S'overlay'
p4780
aI2398
aa(lp4781
S'allow'
p4782
aI2399
aa(lp4783
S'reasonable'
p4784
aI2400
aa(lp4785
S'sclerotic.'
p4786
aI2401
aa(lp4787
S'S1'
p4788
aI2402
aa(lp4789
S'L4'
p4790
aI2403
aa(lp4791
S'L2-LXXXX'
p4792
aI2404
aa(lp4793
S'worst'
p4794
aI2405
aa(lp4795
S'narrow,'
p4796
aI2406
aa(lp4797
S'account'
p4798
aI2407
aa(lp4799
S'clothing'
p4800
aI2408
aa(lp4801
S'review.'
p4802
aI2409
aa(lp4803
S'Hilar'
p4804
aI2410
aa(lp4805
S'perforation.'
p4806
aI2411
aa(lp4807
S'pneumoperitoneum'
p4808
aI2412
aa(lp4809
S'magnification.'
p4810
aI2413
aa(lp4811
S'correction'
p4812
aI2414
aa(lp4813
S'oval-shaped'
p4814
aI2415
aa(lp4815
S'centrilobular'
p4816
aI2416
aa(lp4817
S'lobe/lingula'
p4818
aI2417
aa(lp4819
S'Wide'
p4820
aI2418
aa(lp4821
S'crosstable'
p4822
aI2419
aa(lp4823
S'Callus'
p4824
aI2420
aa(lp4825
S'questioned.'
p4826
aI2421
aa(lp4827
S'crosses'
p4828
aI2422
aa(lp4829
S'extension'
p4830
aI2423
aa(lp4831
S'detecting'
p4832
aI2424
aa(lp4833
S'smooth'
p4834
aI2425
aa(lp4835
S'Fractured'
p4836
aI2426
aa(lp4837
S'caudal'
p4838
aI2427
aa(lp4839
S'arteries/pulmonary'
p4840
aI2428
aa(lp4841
S'Verterbroplasty'
p4842
aI2429
aa(lp4843
S'Blunted'
p4844
aI2430
aa(lp4845
S'fossae.'
p4846
aI2431
aa(lp4847
S'supraclavicular'
p4848
aI2432
aa(lp4849
S'distinct'
p4850
aI2433
aa(lp4851
S'arteries,'
p4852
aI2434
aa(lp4853
S'sensitive'
p4854
aI2435
aa(lp4855
S'hydropneumothorax,'
p4856
aI2436
aa(lp4857
S'previously.'
p4858
aI2437
aa(lp4859
S'artifactually'
p4860
aI2438
aa(lp4861
S'likewise'
p4862
aI2439
aa(lp4863
S'Tortuous/ectatic'
p4864
aI2440
aa(lp4865
S'benign.'
p4866
aI2441
aa(lp4867
S'Torturous/ectatic'
p4868
aI2442
aa(lp4869
S'overlying.'
p4870
aI2443
aa(lp4871
S'XXXX.In'
p4872
aI2444
aa(lp4873
S'thin-walled'
p4874
aI2445
aa(lp4875
S'Morgagni'
p4876
aI2446
aa(lp4877
S'1.3'
p4878
aI2447
aa(lp4879
S'Tuberculosis'
p4880
aI2448
aa(lp4881
S'shunt.'
p4882
aI2449
aa(lp4883
S'Enlargement'
p4884
aI2450
aa(lp4885
S'arteriosum.'
p4886
aI2451
aa(lp4887
S'ligamentum'
p4888
aI2452
aa(lp4889
S'Presumed'
p4890
aI2453
aa(lp4891
S'artifactual.'
p4892
aI2454
aa(lp4893
S'towards'
p4894
aI2455
aa(lp4895
S'spiculated,'
p4896
aI2456
aa(lp4897
S'degenerate'
p4898
aI2457
aa(lp4899
S'bacterial'
p4900
aI2458
aa(lp4901
S'alternatively,'
p4902
aI2459
aa(lp4903
S'subcentimeter'
p4904
aI2460
aa(lp4905
S'resolve'
p4906
aI2461
aa(lp4907
S'valve.'
p4908
aI2462
aa(lp4909
S'suspicion,'
p4910
aI2463
aa(lp4911
S'discordant'
p4912
aI2464
aa(lp4913
S'comparisons,'
p4914
aI2465
aa(lp4915
S'Without'
p4916
aI2466
aa(lp4917
S'presumably'
p4918
aI2467
aa(lp4919
S'progression,'
p4920
aI2468
aa(lp4921
S'Perhaps'
p4922
aI2469
aa(lp4923
S'here'
p4924
aI2470
aa(lp4925
S'indolent'
p4926
aI2471
aa(lp4927
S'worrisome'
p4928
aI2472
aa(lp4929
S'normal.&gt;]'
p4930
aI2473
aa(lp4931
S'Expansile'
p4932
aI2474
aa(lp4933
S'underinflated,'
p4934
aI2475
aa(lp4935
S'institutions'
p4936
aI2476
aa(lp4937
S'subluxation'
p4938
aI2477
aa(lp4939
S'preserved'
p4940
aI2478
aa(lp4941
S'Glenohumeral'
p4942
aI2479
aa(lp4943
S'25%'
p4944
aI2480
aa(lp4945
S'superiorly'
p4946
aI2481
aa(lp4947
S'thirds'
p4948
aI2482
aa(lp4949
S'comminuted'
p4950
aI2483
aa(lp4951
S'thoraco'
p4952
aI2484
aa(lp4953
S'chest..'
p4954
aI2485
aa(lp4955
S'fragments,'
p4956
aI2486
aa(lp4957
S'hypoinflated,'
p4958
aI2487
aa(lp4959
S'dysmorphic'
p4960
aI2488
aa(lp4961
S'Markedly'
p4962
aI2489
aa(lp4963
S'visualization'
p4964
aI2490
aa(lp4965
S'chronically'
p4966
aI2491
aa(lp4967
S'perform'
p4968
aI2492
aa(lp4969
S'dislocations,'
p4970
aI2493
aa(lp4971
S'Hips'
p4972
aI2494
aa(lp4973
S'T8,'
p4974
aI2495
aa(lp4975
S'She'
p4976
aI2496
aa(lp4977
S'2.,'
p4978
aI2497
aa(lp4979
S'age-indeterminate,'
p4980
aI2498
aa(lp4981
S'pathology;'
p4982
aI2499
aa(lp4983
S'ossification'
p4984
aI2500
aa(lp4985
S'underinflation,'
p4986
aI2501
aa(lp4987
S'artifactual,'
p4988
aI2502
aa(lp4989
S'And'
p4990
aI2503
aa(lp4991
S'inflammatory/infectious'
p4992
aI2504
aa(lp4993
S'sulcal'
p4994
aI2505
aa(lp4995
S'From'
p4996
aI2506
aa(lp4997
S'reaction'
p4998
aI2507
aa(lp4999
S'Over'
p5000
aI2508
aa(lp5001
S'contour.Unfolded'
p5002
aI2509
aa(lp5003
S'attention'
p5004
aI2510
aa(lp5005
S'Incompletely'
p5006
aI2511
aa(lp5007
S'prosthesis,'
p5008
aI2512
aa(lp5009
S'-'
aI2513
aa(lp5010
S'superolateral'
p5011
aI2514
aa(lp5012
S'aspergilloma'
p5013
aI2515
aa(lp5014
S'aspergilloma-as'
p5015
aI2516
aa(lp5016
S'XXXX)'
p5017
aI2517
aa(lp5018
S'2.8'
p5019
aI2518
aa(lp5020
S'(4.3'
p5021
aI2519
aa(lp5022
S'base..'
p5023
aI2520
aa(lp5024
S'clavicles'
p5025
aI2521
aa(lp5026
S'actual'
p5027
aI2522
aa(lp5028
S'seems'
p5029
aI2523
aa(lp5030
S'focused'
p5031
aI2524
aa(lp5032
S'islands.'
p5033
aI2525
aa(lp5034
S'midright'
p5035
aI2526
aa(lp5036
S'anchors'
p5037
aI2527
aa(lp5038
S'outward'
p5039
aI2528
aa(lp5040
S'recalled'
p5041
aI2529
aa(lp5042
S'Deformed'
p5043
aI2530
aa(lp5044
S'Sacroiliac'
p5045
aI2531
aa(lp5046
S'Hip'
p5047
aI2532
aa(lp5048
S'Strandy'
p5049
aI2533
aa(lp5050
S'subglottic'
p5051
aI2534
aa(lp5052
S'Tip'
p5053
aI2535
aa(lp5054
S'Outward'
p5055
aI2536
aa(lp5056
S'Clearing'
p5057
aI2537
aa(lp5058
S'cleared.'
p5059
aI2538
aa(lp5060
S'out.'
p5061
aI2539
aa(lp5062
S'Spinal'
p5063
aI2540
aa(lp5064
S'ruled'
p5065
aI2541
aa(lp5066
S'inlet,'
p5067
aI2542
aa(lp5068
S'radiographs..'
p5069
aI2543
aa(lp5070
S'airway/bronchitic'
p5071
aI2544
aa(lp5072
S'T12,'
p5073
aI2545
aa(lp5074
S'Contrast-enhanced'
p5075
aI2546
aa(lp5076
S'Drainage'
p5077
aI2547
aa(lp5078
S'cavitations.'
p5079
aI2548
aa(lp5080
S'concomitant'
p5081
aI2549
aa(lp5082
S'Osteophytic'
p5083
aI2550
aa(lp5084
S'room'
p5085
aI2551
aa(lp5086
S'T7,'
p5087
aI2552
aa(lp5088
S'displaced,'
p5089
aI2553
aa(lp5090
S'smooth.'
p5091
aI2554
aa(lp5092
S'retention'
p5093
aI2555
aa(lp5094
S'communication'
p5095
aI2556
aa(lp5096
S'Primordial'
p5097
aI2557
aa(lp5098
S'conveyed'
p5099
aI2558
aa(lp5100
S'MRI.'
p5101
aI2559
aa(lp5102
S'needed,'
p5103
aI2560
aa(lp5104
S'T1Unchanged'
p5105
aI2561
aa(lp5106
S'deformity,'
p5107
aI2562
aa(lp5108
S'Abdominal'
p5109
aI2563
aa(lp5110
S'T1Degenerative'
p5111
aI2564
aa(lp5112
S'previous,'
p5113
aI2565
aa(lp5114
S'Large,'
p5115
aI2566
aa(lp5116
S'conceivably'
p5117
aI2567
aa(lp5118
S'osteocartilaginous'
p5119
aI2568
aa(lp5120
S'residua'
p5121
aI2569
aa(lp5122
S'25'
p5123
aI2570
aa(lp5124
S'pads,'
p5125
aI2571
aa(lp5126
S'Of'
p5127
aI2572
aa(lp5128
S'neoplastic'
p5129
aI2573
aa(lp5130
S'gallstone.'
p5131
aI2574
aa(lp5132
S'stable/unremarkable'
p5133
aI2575
aa(lp5134
S'noticed'
p5135
aI2576
aa(lp5136
S'spinal.'
p5137
aI2577
aa(lp5138
S'T6.'
p5139
aI2578
aa(lp5140
S'disease/emphysema.'
p5141
aI2579
aa(lp5142
S'Exam:'
p5143
aI2580
aa(lp5144
S'2V'
p5145
aI2581
aa(lp5146
S'FRONTAL/LATERAL'
p5147
aI2582
aa(lp5148
S'Date:'
p5149
aI2583
aa(lp5150
S'PM'
p5151
aI2584
aa(lp5152
S'reviewed'
p5153
aI2585
aa(lp5154
S'History:'
p5155
aI2586
aa(lp5156
S'Shortness'
p5157
aI2587
aa(lp5158
S'breath'
p5159
aI2588
aa(lp5160
S'FINDINGS:'
p5161
aI2589
aa(lp5162
S'explained'
p5163
aI2590
aa(lp5164
S'loops.'
p5165
aI2591
aa(lp5166
S'Haziness'
p5167
aI2592
aa(lp5168
S'vessel'
p5169
aI2593
aa(lp5170
S'demineralization,'
p5171
aI2594
aa(lp5172
S'irregularities,'
p5173
aI2595
aa(lp5174
S'artifact,'
p5175
aI2596
aa(lp5176
S'resolve,'
p5177
aI2597
aa(lp5178
S'suprapatellar'
p5179
aI2598
aa(lp5180
S'fracture-dislocation.'
p5181
aI2599
aa(lp5182
S'comparisons'
p5183
aI2600
aa(lp5184
S'enthesopathy.'
p5185
aI2601
aa(lp5186
S'inthe'
p5187
aI2602
aa(lp5188
S'hydropneumothorax.'
p5189
aI2603
aa(lp5190
S'mortise'
p5191
aI2604
aa(lp5192
S'having'
p5193
aI2605
aa(lp5194
S'laterally'
p5195
aI2606
aa(lp5196
S'Background'
p5197
aI2607
aa(lp5198
S'chin.'
p5199
aI2608
aa(lp5200
S'side'
p5201
aI2609
aa(lp5202
S'airways,'
p5203
aI2610
aa(lp5204
S'Portable'
p5205
aI2611
aa(lp5206
S'Diminutive'
p5207
aI2612
aa(lp5208
S'compensatory'
p5209
aI2613
aa(lp5210
S'Coarsened'
p5211
aI2614
aa(lp5212
S'simply'
p5213
aI2615
aa(lp5214
S'those'
p5215
aI2616
aa(lp5216
S'empyema'
p5217
aI2617
aa(lp5218
S'Corresponds'
p5219
aI2618
aa(lp5220
S'XXXX/XXXX,'
p5221
aI2619
aa(lp5222
S'projection),'
p5223
aI2620
aa(lp5224
S'peripherally'
p5225
aI2621
aa(lp5226
S'accentuation,'
p5227
aI2622
aa(lp5228
S'opaque.'
p5229
aI2623
aa(lp5230
S'totally'
p5231
aI2624
aa(lp5232
S'shifted'
p5233
aI2625
aa(lp5234
S'fistula.'
p5235
aI2626
aa(lp5236
S'bronchopleural'
p5237
aI2627
aa(lp5238
S'Midfoot'
p5239
aI2628
aa(lp5240
S'Ankle'
p5241
aI2629
aa(lp5242
S'patient..'
p5243
aI2630
aa(lp5244
S'uniformly'
p5245
aI2631
aa(lp5246
S'Dextro-convex'
p5247
aI2632
aa(lp5248
S'Supine'
p5249
aI2633
aa(lp5250
S'bowel.'
p5251
aI2634
aa(lp5252
S'nondilated'
p5253
aI2635
aa(lp5254
S'empyema.'
p5255
aI2636
aa(lp5256
S'cephalization,'
p5257
aI2637
aa(lp5258
S'midclavicular'
p5259
aI2638
aa(lp5260
S'fungal.'
p5261
aI2639
aa(lp5262
S'lymphoma'
p5263
aI2640
aa(lp5264
S"Hodgkin's"
p5265
aI2641
aa(lp5266
S'throughout.'
p5267
aI2642
aa(lp5268
S'dating'
p5269
aI2643
aa(lp5270
S'Osteophyte'
p5271
aI2644
aa(lp5272
S'spondylosis'
p5273
aI2645
aa(lp5274
S'biliary'
p5275
aI2646
aa(lp5276
S'vertically'
p5277
aI2647
aa(lp5278
S'quadrant,'
p5279
aI2648
aa(lp5280
S'thready'
p5281
aI2649
aa(lp5282
S'XXXX/lymphoma.'
p5283
aI2650
aa(lp5284
S'lymphoproliferative'
p5285
aI2651
aa(lp5286
S'consideration,'
p5287
aI2652
aa(lp5288
S'Sarcoidosis'
p5289
aI2653
aa(lp5290
S'Abdomen'
p5291
aI2654
aa(lp5292
S'back'
p5293
aI2655
aa(lp5294
S'enthesophyte.'
p5295
aI2656
aa(lp5296
S'anchors.'
p5297
aI2657
aa(lp5298
S'diaphragmatic'
p5299
aI2658
aa(lp5300
S'hump.'
p5301
aI2659
aa(lp5302
S'plantar'
p5303
aI2660
aa(lp5304
S'midfoot'
p5305
aI2661
aa(lp5306
S'0.9'
p5307
aI2662
aa(lp5308
S'cyst,'
p5309
aI2663
aa(lp5310
S'bilateral,'
p5311
aI2664
aa(lp5312
S'bullets'
p5313
aI2665
aa(lp5314
S'developed.'
p5315
aI2666
aa(lp5316
S'Nasogastric'
p5317
aI2667
aa(lp5318
S'underneath'
p5319
aI2668
aa(lp5320
S'submitted.'
p5321
aI2669
aa(lp5322
S'NO'
p5323
aI2670
aa(lp5324
S'great'
p5325
aI2671
aa(lp5326
S'segments.'
p5327
aI2672
aa(lp5328
S'sent'
p5329
aI2673
aa(lp5330
S'rule-out'
p5331
aI2674
aa(lp5332
S'fracture;'
p5333
aI2675
aa(lp5334
S'six'
p5335
aI2676
aa(lp5336
S'study..'
p5337
aI2677
aa(lp5338
S'First'
p5339
aI2678
aa(lp5340
S'pneumothoraces..'
p5341
aI2679
aa(lp5342
S'intrapulmonary'
p5343
aI2680
aa(lp5344
S'paraesophageal'
p5345
aI2681
aa(lp5346
S'anterolateral'
p5347
aI2682
aa(lp5348
S'Verification'
p5349
aI2683
aa(lp5350
S'bronchiectatic'
p5351
aI2684
aa(lp5352
S'laparoscopic'
p5353
aI2685
aa(lp5354
S'bilateral.'
p5355
aI2686
aa(lp5356
S'shortening'
p5357
aI2687
aa(lp5358
S'infectious/tuberculous'
p5359
aI2688
aa(lp5360
S'XXXX..'
p5361
aI2689
aa(lp5362
S'02/010/XXXX.'
p5363
aI2690
aa(lp5364
S'piercing.'
p5365
aI2691
aa(lp5366
S'Umbilical'
p5367
aI2692
aa(lp5368
S'out'
p5369
aI2693
aa(lp5370
S'Concern'
p5371
aI2694
aa(lp5372
S'effusion.Heart'
p5373
aI2695
aa(lp5374
S'extends'
p5375
aI2696
aa(lp5376
S'lucency,'
p5377
aI2697
aa(lp5378
S'crescentic'
p5379
aI2698
aa(lp5380
S'Cleared'
p5381
aI2699
aa(lp5382
S'Consolidation,'
p5383
aI2700
aa(lp5384
S'scarring/subsegmental'
p5385
aI2701
aa(lp5386
S'maximum'
p5387
aI2702
aa(lp5388
S'possibility.'
p5389
aI2703
aa(lp5390
S'artifactual'
p5391
aI2704
aa(lp5392
S'hemothorax.'
p5393
aI2705
aa(lp5394
S'L1.'
p5395
aI2706
aa(lp5396
S'cholecystectomy,'
p5397
aI2707
aa(lp5398
S'all'
p5399
aI2708
aa(lp5400
S'confidently'
p5401
aI2709
aa(lp5402
S'hilar/perihilar'
p5403
aI2710
aa(lp5404
S'cardiomyopathy.'
p5405
aI2711
aa(lp5406
S'Considerations'
p5407
aI2712
aa(lp5408
S'Widened'
p5409
aI2713
aa(lp5410
S"XXXX't"
p5411
aI2714
aa(lp5412
S'opacities;'
p5413
aI2715
aa(lp5414
S'per'
p5415
aI2716
aa(lp5416
S'decubitus.'
p5417
aI2717
aa(lp5418
S'lateral,'
p5419
aI2718
aa(lp5420
S'x-XXXX,'
p5421
aI2719
aa(lp5422
S'Malignancy'
p5423
aI2720
aa(lp5424
S'limits.Minimal'
p5425
aI2721
aa(lp5426
S'institution.'
p5427
aI2722
aa(lp5428
S'reformatted'
p5429
aI2723
aa(lp5430
S'months.'
p5431
aI2724
aa(lp5432
S'short-term'
p5433
aI2725
aa(lp5434
S'long-term'
p5435
aI2726
aa(lp5436
S'Irregular,'
p5437
aI2727
aa(lp5438
S'reformats.'
p5439
aI2728
aa(lp5440
S'factors.'
p5441
aI2729
aa(lp5442
S'Interstitium'
p5443
aI2730
aa(lp5444
S'previously<BR>described'
p5445
aI2731
aa(lp5446
S'extreme'
p5447
aI2732
aa(lp5448
S'nonconsolidating'
p5449
aI2733
aa(lp5450
S'normal.Calcified'
p5451
aI2734
aa(lp5452
S'dilation'
p5453
aI2735
aa(lp5454
S'19/33.'
p5455
aI2736
aa(lp5456
S'considered.'
p5457
aI2737
aa(lp5458
S'online'
p5459
aI2738
aa(lp5460
S'appendage.'
p5461
aI2739
aa(lp5462
S'aneurysm,'
p5463
aI2740
aa(lp5464
S'Circumscribed'
p5465
aI2741
aa(lp5466
S'time.'
p5467
aI2742
aa(lp5468
S'contusion'
p5469
aI2743
aa(lp5470
S'infectious,'
p5471
aI2744
aa(lp5472
S'NG'
p5473
aI2745
aa(lp5474
S'regular'
p5475
aI2746
aa(lp5476
S'Vascularity'
p5477
aI2747
aa(lp5478
S'groundglass'
p5479
aI2748
aa(lp5480
S'scan,'
p5481
aI2749
aa(lp5482
S'Similar-appearing'
p5483
aI2750
aa(lp5484
S'interruption'
p5485
aI2751
aa(lp5486
S'22'
p5487
aI2752
aa(lp5488
S'sulci,'
p5489
aI2753
aa(lp5490
S'14'
p5491
aI2754
aa(lp5492
S'B'
aI2755
aa(lp5493
S'diffuse,'
p5494
aI2756
aa(lp5495
S'compartments'
p5496
aI2757
aa(lp5497
S'granulomatous/tuberculous'
p5498
aI2758
aa(lp5499
S'nondiagnostic'
p5500
aI2759
aa(lp5501
S'intact..'
p5502
aI2760
aa(lp5503
S'prostate'
p5504
aI2761
aa(lp5505
S'lines.'
p5506
aI2762
aa(lp5507
S'LLeft'
p5508
aI2763
aa(lp5509
S'Pathologic'
p5510
aI2764
aa(lp5511
S'L2'
p5512
aI2765
aa(lp5513
S'Bibasilar,'
p5514
aI2766
aa(lp5515
S'incidental'
p5516
aI2767
aa(lp5517
S'markers,'
p5518
aI2768
aa(lp5519
S'pacemaker/ICD'
p5520
aI2769
aa(lp5521
S'relates'
p5522
aI2770
aa(lp5523
S'extremity.'
p5524
aI2771
aa(lp5525
S'bibasilar,'
p5526
aI2772
aa(lp5527
S'Skin'
p5528
aI2773
aa(lp5529
S'Accentuated'
p5530
aI2774
aa(lp5531
S'bipolar'
p5532
aI2775
aa(lp5533
S'evolving'
p5534
aI2776
aa(lp5535
S'pain.'
p5536
aI2777
aa(lp5537
S'Corticated'
p5538
aI2778
aa(lp5539
S'performed).'
p5540
aI2779
aa(lp5541
S'recently'
p5542
aI2780
aa(lp5543
S'(unless'
p5544
aI2781
aa(lp5545
S'cancer,'
p5546
aI2782
aa(lp5547
S'persist.'
p5548
aI2783
aa(lp5549
S'Flattening'
p5550
aI2784
aa(lp5551
S'opacification,'
p5552
aI2785
aa(lp5553
S'(this'
p5554
aI2786
aa(lp5555
S'MALIGNANCY'
p5556
aI2787
aa(lp5557
S'AS'
p5558
aI2788
aa(lp5559
S'LYMPHOMA'
p5560
aI2789
aa(lp5561
S'PRIMARY'
p5562
aI2790
aa(lp5563
S'LUNG'
p5564
aI2791
aa(lp5565
S'CANCER.'
p5566
aI2792
aa(lp5567
S'RECOMMEND'
p5568
aI2793
aa(lp5569
S'CONTRAST-ENHANCED'
p5570
aI2794
aa(lp5571
S'FOR'
p5572
aI2795
aa(lp5573
S'FURTHER'
p5574
aI2796
aa(lp5575
S'EVALUATION.'
p5576
aI2797
aa(lp5577
S'vasculaturity'
p5578
aI2798
aa(lp5579
S'expansion'
p5580
aI2799
aa(lp5581
S'neck,'
p5582
aI2800
aa(lp5583
S'eventration,'
p5584
aI2801
aa(lp5585
S'[<Heart'
p5586
aI2802
aa(lp5587
S'Reconstructed'
p5588
aI2803
aa(lp5589
S'sign'
p5590
aI2804
aa(lp5591
S'radiology'
p5592
aI2805
aa(lp5593
S'pneumonic'
p5594
aI2806
aa(lp5595
S'incidentally.'
p5596
aI2807
aa(lp5597
S'SARCOIDOSIS,'
p5598
aI2808
aa(lp5599
S'INFECTION,'
p5600
aI2809
aa(lp5601
S'HISTOPLASMOSIS'
p5602
aI2810
aa(lp5603
S'densities,'
p5604
aI2811
aa(lp5605
S'pacemaker/defibrillator.'
p5606
aI2812
aa(lp5607
S'Small,'
p5608
aI2813
aa(lp5609
S'look'
p5610
aI2814
aa(lp5611
S'chin'
p5612
aI2815
aa(lp5613
S'primordial'
p5614
aI2816
aa(lp5615
S'employed'
p5616
aI2817
aa(lp5617
S'notify'
p5618
aI2818
aa(lp5619
S'referring'
p5620
aI2819
aa(lp5621
S'physicians'
p5622
aI2820
aa(lp5623
S'B-lines'
p5624
aI2821
aa(lp5625
S'RESOLVING'
p5626
aI2822
aa(lp5627
S'Early'
p5628
aI2823
aa(lp5629
S'cirrhotic'
p5630
aI2824
aa(lp5631
S'hypoventilation,'
p5632
aI2825
aa(lp5633
S'inflammation.'
p5634
aI2826
aa(lp5635
S'Aeration'
p5636
aI2827
aa(lp5637
S'Reduced'
p5638
aI2828
aa(lp5639
S'FINDINGS'
p5640
aI2829
aa(lp5641
S'COULD'
p5642
aI2830
aa(lp5643
S'REPRESENT'
p5644
aI2831
aa(lp5645
S'approach.'
p5646
aI2832
aa(lp5647
S'apex.There'
p5648
aI2833
aa(lp5649
S'Probably'
p5650
aI2834
aa(lp5651
S'XXXX/CT.'
p5652
aI2835
aa(lp5653
S'lobes,'
p5654
aI2836
aa(lp5655
S'coiled'
p5656
aI2837
aa(lp5657
S'substernal'
p5658
aI2838
aa(lp5659
S'XXXX/ICD'
p5660
aI2839
aa(lp5661
S'retained'
p5662
aI2840
aa(lp5663
S'Retained'
p5664
aI2841
aa(lp5665
S'clear..'
p5666
aI2842
aa(lp5667
S'angulate.'
p5668
aI2843
aa(lp5669
S'expansile'
p5670
aI2844
aa(lp5671
S'multifocal'
p5672
aI2845
aa(lp5673
S'Primary'
p5674
aI2846
aa(lp5675
S'Moderate-to-severe'
p5676
aI2847
aa(lp5677
S'cuffing.'
p5678
aI2848
aa(lp5679
S'outlining'
p5680
aI2849
aa(lp5681
S'adequately'
p5682
aI2850
aa(lp5683
S'overload'
p5684
aI2851
aa(lp5685
S'inspirational'
p5686
aI2852
aa(lp5687
S'Curvilinear'
p5688
aI2853
aa(lp5689
S'severely'
p5690
aI2854
aa(lp5691
S'scar/subsegmental'
p5692
aI2855
aa(lp5693
S'XXXX<XXXX>technologist'
p5694
aI2856
aa(lp5695
S'Specifically'
p5696
aI2857
aa(lp5697
S'entering'
p5698
aI2858
aa(lp5699
S'articulation,'
p5700
aI2859
aa(lp5701
S'Opacities'
p5702
aI2860
aa(lp5703
S'lumen'
p5704
aI2861
aa(lp5705
S'gallbladder'
p5706
aI2862
aa(lp5707
S'broken,'
p5708
aI2863
aa(lp5709
S'Disc'
p5710
aI2864
aa(lp5711
S'broken'
p5712
aI2865
aa(lp5713
S'mid-thoracic'
p5714
aI2866
aa(lp5715
S'fusion,'
p5716
aI2867
aa(lp5717
S'remodeling'
p5718
aI2868
aa(lp5719
S'bone-on-bone'
p5720
aI2869
aa(lp5721
S'dyspnea'
p5722
aI2870
aa(lp5723
S'relating'
p5724
aI2871
aa(lp5725
S'vena'
p5726
aI2872
aa(lp5727
S'laterally.'
p5728
aI2873
aa(lp5729
S'extending'
p5730
aI2874
aa(lp5731
S'4-6'
p5732
aI2875
aa(lp5733
S'she'
p5734
aI2876
aa(lp5735
S'trying'
p5736
aI2877
aa(lp5737
S'arrange'
p5738
aI2878
aa(lp5739
S'admission'
p5740
aI2879
aa(lp5741
S'Another'
p5742
aI2880
aa(lp5743
S'initiated'
p5744
aI2881
aa(lp5745
S'contrasted'
p5746
aI2882
aa(lp5747
S'Or,'
p5748
aI2883
aa(lp5749
S'articular'
p5750
aI2884
aa(lp5751
S'interim.'
p5752
aI2885
aa(lp5753
S'coracoid'
p5754
aI2886
aa(lp5755
S'attached'
p5756
aI2887
aa(lp5757
S'Shoulder'
p5758
aI2888
aa(lp5759
S'corticated'
p5760
aI2889
aa(lp5761
S'persistence'
p5762
aI2890
aa(lp5763
S'jewelry.'
p5764
aI2891
aa(lp5765
S'infraclavicular'
p5766
aI2892
aa(lp5767
S'Middle'
p5768
aI2893
aa(lp5769
S'T4'
p5770
aI2894
aa(lp5771
S'findings/pneumothorax'
p5772
aI2895
aa(lp5773
S'support.'
p5774
aI2896
aa(lp5775
S'muscles'
p5776
aI2897
aa(lp5777
S'dystrophy'
p5778
aI2898
aa(lp5779
S'muscular'
p5780
aI2899
aa(lp5781
S'gunshot'
p5782
aI2900
aa(lp5783
S'wound.'
p5784
aI2901
aa(lp5785
S'rods'
p5786
aI2902
aa(lp5787
S'possibility'
p5788
aI2903
aa(lp5789
S'T7'
p5790
aI2904
aa(lp5791
S'Cutaneous'
p5792
aI2905
aa(lp5793
S'3.Chronic'
p5794
aI2906
aa(lp5795
S'margins.'
p5796
aI2907
aa(lp5797
S'Thoracolumbar'
p5798
aI2908
aa(lp5799
S'Bochdalek'
p5800
aI2909
aa(lp5801
S'decreased,'
p5802
aI2910
aa(lp5803
S'hemidiaphragms/'
p5804
aI2911
aa(lp5805
S'balloon'
p5806
aI2912
aa(lp5807
S'38'
p5808
aI2913
aa(lp5809
S'Rectal'
p5810
aI2914
aa(lp5811
S'geographic'
p5812
aI2915
aa(lp5813
S'1A'
p5814
aI2916
aa(lp5815
S'implants.'
p5816
aI2917
aa(lp5817
S'coracoclavicular'
p5818
aI2918
aa(lp5819
S'thoracotomy.'
p5820
aI2919
aa(lp5821
S'geode'
p5822
aI2920
aa(lp5823
S'desired,'
p5824
aI2921
aa(lp5825
S'separation.'
p5826
aI2922
aa(lp5827
S'Acromioclavicular'
p5828
aI2923
aa(lp5829
S'Clavicle.'
p5830
aI2924
aa(lp5831
S'Scapular'
p5832
aI2925
aa(lp5833
S'widened.'
p5834
aI2926
aa(lp5835
S'1.Lucency'
p5836
aI2927
aa(lp5837
S'pads'
p5838
aI2928
aa(lp5839
S'clipped'
p5840
aI2929
aa(lp5841
S'suggestions'
p5842
aI2930
aa(lp5843
S'pneumonia..'
p5844
aI2931
aa(lp5845
S'arthroplasty'
p5846
aI2932
aa(lp5847
S'infiltrate..'
p5848
aI2933
aa(lp5849
S'T9-T10.'
p5850
aI2934
aa(lp5851
S'processes.'
p5852
aI2935
aa(lp5853
S'intrathecal'
p5854
aI2936
aa(lp5855
S'contusion.'
p5856
aI2937
aa(lp5857
S'interlobar'
p5858
aI2938
aa(lp5859
S'Overexpanded'
p5860
aI2939
aa(lp5861
S'disease/infiltrate.'
p5862
aI2940
aa(lp5863
S'effort'
p5864
aI2941
aa(lp5865
S'mentally'
p5866
aI2942
aa(lp5867
S'Portacatheter'
p5868
aI2943
aa(lp5869
S'superimposes'
p5870
aI2944
aa(lp5871
S'patients.'
p5872
aI2945
aa(lp5873
S'centrally.'
p5874
aI2946
aa(lp5875
S'200'
p5876
aI2947
aa(lp5877
S'40%'
p5878
aI2948
aa(lp5879
S'variant'
p5880
aI2949
aa(lp5881
S'aberrant'
p5882
aI2950
aa(lp5883
S'Implantable'
p5884
aI2951
aa(lp5885
S'(Bochdalek).'
p5886
aI2952
aa(lp5887
S'Abdomen:'
p5888
aI2953
aa(lp5889
S'chondral'
p5890
aI2954
aa(lp5891
S'Somewhat'
p5892
aI2955
aa(lp5893
S'intervertebral'
p5894
aI2956
aa(lp5895
S'improvement/resolution'
p5896
aI2957
aa(lp5897
S'showed'
p5898
aI2958
aa(lp5899
S'making'
p5900
aI2959
aa(lp5901
S'Associated'
p5902
aI2960
aa(lp5903
S'retrocardiac,'
p5904
aI2961
aa(lp5905
S'noncontrasted'
p5906
aI2962
aa(lp5907
S'enhanced'
p5908
aI2963
aa(lp5909
S'malignancy?'
p5910
aI2964
aa(lp5911
S'sarcoidosis'
p5912
aI2965
aa(lp5913
S'device.'
p5914
aI2966
aa(lp5915
S'leftward'
p5916
aI2967
aa(lp5917
S'mass/nodularity'
p5918
aI2968
aa(lp5919
S'tumor'
p5920
aI2969
aa(lp5921
S'fluid,'
p5922
aI2970
aa(lp5923
S'parapneumonic'
p5924
aI2971
aa(lp5925
S'inhalational'
p5926
aI2972
aa(lp5927
S'age,'
p5928
aI2973
aa(lp5929
S'Based'
p5930
aI2974
aa(lp5931
S'segment,'
p5932
aI2975
aa(lp5933
S'Artifact'
p5934
aI2976
aa(lp5935
S'intra-abdominal'
p5936
aI2977
aa(lp5937
S'visible.'
p5938
aI2978
aa(lp5939
S'XXXX).'
p5940
aI2979
aa(lp5941
S'duct'
p5942
aI2980
aa(lp5943
S'Radiodensity'
p5944
aI2981
aa(lp5945
S'well-characterized.'
p5946
aI2982
aa(lp5947
S'drainage'
p5948
aI2983
aa(lp5949
S'supporting'
p5950
aI2984
aa(lp5951
S'osteoporosis.'
p5952
aI2985
aa(lp5953
S'Winged'
p5954
aI2986
aa(lp5955
S'12/33'
p5956
aI2987
aa(lp5957
S'unremarkable..'
p5958
aI2988
aa(lp5959
S'Diffusely'
p5960
aI2989
aa(lp5961
S'worsened'
p5962
aI2990
aa(lp5963
S'feasible.'
p5964
aI2991
aa(lp5965
S'persistent,'
p5966
aI2992
aa(lp5967
S'previous/chronic'
p5968
aI2993
aa(lp5969
S'Pneumonia'
p5970
aI2994
aa(lp5971
S'opaque'
p5972
aI2995
aa(lp5973
S'(not'
p5974
aI2996
aa(lp5975
S'x-XXXX)'
p5976
aI2997
aa(lp5977
S'sided.'
p5978
aI2998
aa(lp5979
S'Mixed'
p5980
aI2999
aa(lp5981
S'distributed'
p5982
aI3000
aa(lp5983
S'history,'
p5984
aI3001
aa(lp5985
S'medially,'
p5986
aI3002
aa(lp5987
S'electrodes,'
p5988
aI3003
aa(lp5989
S'indwelling'
p5990
aI3004
aa(lp5991
S'confluence.'
p5992
aI3005
aa(lp5993
S'reduced'
p5994
aI3006
aa(lp5995
S'reaches'
p5996
aI3007
aa(lp5997
S'staff'
p5998
aI3008
aa(lp5999
S'radiologist'
p6000
aI3009
aa(lp6001
S'XXXX;'
p6002
aI3010
aa(lp6003
S'determined.'
p6004
aI3011
aa(lp6005
S'noncalcified,'
p6006
aI3012
aa(lp6007
S'approach'
p6008
aI3013
aa(lp6009
S'1.There'
p6010
aI3014
aa(lp6011
S'destruction'
p6012
aI3015
aa(lp6013
S'benefit.'
p6014
aI3016
aa(lp6015
S'retrolisthesis.'
p6016
aI3017
aa(lp6017
S'telemetry'
p6018
aI3018
aa(lp6019
S'Suboptimal'
p6020
aI3019
aa(lp6021
S'inspiration'
p6022
aI3020
aa(lp6023
S'Dual-lumen'
p6024
aI3021
aa(lp6025
S'superimposition'
p6026
aI3022
aa(lp6027
S'last'
p6028
aI3023
aa(lp6029
S'suspicion'
p6030
aI3024
aa(lp6031
S'Obliquely'
p6032
aI3025
aa(lp6033
S'Decrease'
p6034
aI3026
aa(lp6035
S'transverse,'
p6036
aI3027
aa(lp6037
S'arising'
p6038
aI3028
aa(lp6039
S'scant'
p6040
aI3029
aa(lp6041
S'extubation'
p6042
aI3030
aa(lp6043
S'enteric'
p6044
aI3031
aa(lp6045
S'fibrosis/scar.'
p6046
aI3032
aa(lp6047
S'occult'
p6048
aI3033
aa(lp6049
S'Approximately'
p6050
aI3034
aa(lp6051
S'4.8'
p6052
aI3035
aa(lp6053
S'unclear.'
p6054
aI3036
aa(lp6055
S'Exact'
p6056
aI3037
aa(lp6057
S'hypoventilatory'
p6058
aI3038
aa(lp6059
S'Fat'
p6060
aI3039
aa(lp6061
S'Diaphragm'
p6062
aI3040
aa(lp6063
S'emphysema,'
p6064
aI3041
aa(lp6065
S'lucent.'
p6066
aI3042
aa(lp6067
S'infiltrative'
p6068
aI3043
aa(lp6069
S'hypertension'
p6070
aI3044
aa(lp6071
S'recommended,'
p6072
aI3045
aa(lp6073
S'Decubitus'
p6074
aI3046
aa(lp6075
S'informative.'
p6076
aI3047
aa(lp6077
S'Chronically'
p6078
aI3048
aa(lp6079
S'before,'
p6080
aI3049
aa(lp6081
S'identified,'
p6082
aI3050
aa(lp6083
S'aorto'
p6084
aI3051
aa(lp6085
S'calcium.'
p6086
aI3052
aa(lp6087
S'iliac'
p6088
aI3053
aa(lp6089
S'suggest.'
p6090
aI3054
aa(lp6091
S'difference'
p6092
aI3055
aa(lp6093
S'otherwise.'
p6094
aI3056
aa(lp6095
S'evidenced'
p6096
aI3057
aa(lp6097
S'Hyperaerated'
p6098
aI3058
aa(lp6099
S'Density'
p6100
aI3059
aa(lp6101
S'reflex'
p6102
aI3060
aa(lp6103
S'vascular,'
p6104
aI3061
aa(lp6105
S'Adjacent'
p6106
aI3062
aa(lp6107
S'Wedge-shaped'
p6108
aI3063
aa(lp6109
S'Less'
p6110
aI3064
aa(lp6111
S'lymphangitic'
p6112
aI3065
aa(lp6113
S'spread'
p6114
aI3066
aa(lp6115
S'carcinoma.'
p6116
aI3067
aa(lp6117
S'Other'
p6118
aI3068
aa(lp6119
S'etiologies'
p6120
aI3069
aa(lp6121
S'mycoplasma'
p6122
aI3070
aa(lp6123
S'Ordering'
p6124
aI3071
aa(lp6125
S'high-resolution'
p6126
aI3072
aa(lp6127
S'opacities/atelectasis.'
p6128
aI3073
aa(lp6129
S'pull-through'
p6130
aI3074
aa(lp6131
S'gastric'
p6132
aI3075
aa(lp6133
S'obese.'
p6134
aI3076
aa(lp6135
S'exists'
p6136
aI3077
aa(lp6137
S'then'
p6138
aI3078
aa(lp6139
S'XXXX-XXXX'
p6140
aI3079
aa(lp6141
S'respect'
p6142
aI3080
aa(lp6143
S'pretracheal'
p6144
aI3081
aa(lp6145
S'inserted'
p6146
aI3082
aa(lp6147
S'thickening/sclerosis.'
p6148
aI3083
aa(lp6149
S'COPD/emphysema.'
p6150
aI3084
aa(lp6151
S'Aspiration'
p6152
aI3085
aa(lp6153
S'retrolisthesis'
p6154
aI3086
aa(lp6155
S'Hand'
p6156
aI3087
aa(lp6157
S'peritracheal'
p6158
aI3088
aa(lp6159
S'Retrolisthesis'
p6160
aI3089
aa(lp6161
S'loculated.'
p6162
aI3090
aa(lp6163
S'tracking'
p6164
aI3091
aa(lp6165
S'Partially'
p6166
aI3092
aa(lp6167
S'endotracheal'
p6168
aI3093
aa(lp6169
S'largely'
p6170
aI3094
aa(lp6171
S'shrapnel'
p6172
aI3095
aa(lp6173
S'hemorrhage.'
p6174
aI3096
aa(lp6175
S'metacarpal.'
p6176
aI3097
aa(lp6177
S'metacarpal'
p6178
aI3098
aa(lp6179
S'hemopneumothorax'
p6180
aI3099
aa(lp6181
S'attributed'
p6182
aI3100
aa(lp6183
S'suction'
p6184
aI3101
aa(lp6185
S'midlower'
p6186
aI3102
aa(lp6187
S'imaged.'
p6188
aI3103
aa(lp6189
S'Straightening'
p6190
aI3104
aa(lp6191
S'besides'
p6192
aI3105
aa(lp6193
S'Allowing'
p6194
aI3106
aa(lp6195
S'(blunting'
p6196
aI3107
aa(lp6197
S'thickening/scar.'
p6198
aI3108
aa(lp6199
S'extraluminal'
p6200
aI3109
aa(lp6201
S'example,'
p6202
aI3110
aa(lp6203
S'trabecular'
p6204
aI3111
aa(lp6205
S'today,'
p6206
aI3112
aa(lp6207
S'subsequent'
p6208
aI3113
aa(lp6209
S'significance.'
p6210
aI3114
aa(lp6211
S'overlay.'
p6212
aI3115
aa(lp6213
S'indistinctness.'
p6214
aI3116
aa(lp6215
S'radiodensity'
p6216
aI3117
aa(lp6217
S'parenchyma.'
p6218
aI3118
aa(lp6219
S'Hand.'
p6220
aI3119
aa(lp6221
S'extrapleural'
p6222
aI3120
aa(lp6223
S'maximal'
p6224
aI3121
aa(lp6225
S'stripe'
p6226
aI3122
aa(lp6227
S'Essentially'
p6228
aI3123
aa(lp6229
S'Lines'
p6230
aI3124
aa(lp6231
S'Peribronchial'
p6232
aI3125
aa(lp6233
S'distortion'
p6234
aI3126
aa(lp6235
S'neoplastic.'
p6236
aI3127
aa(lp6237
S'hand'
p6238
aI3128
aa(lp6239
S'resection,'
p6240
aI3129
aa(lp6241
S'cardiothymic'
p6242
aI3130
aa(lp6243
S'shaped.'
p6244
aI3131
aa(lp6245
S'tissue.'
p6246
aI3132
aa(lp6247
S'flattened,'
p6248
aI3133
aa(lp6249
S'Moderate-to-large'
p6250
aI3134
aa(lp6251
S'histoplasmoma'
p6252
aI3135
aa(lp6253
S'thoracentesis.'
p6254
aI3136
aa(lp6255
S'Mediastinum,'
p6256
aI3137
aa(lp6257
S'as,'
p6258
aI3138
aa(lp6259
S'fragment..'
p6260
aI3139
aa(lp6261
S'Following'
p6262
aI3140
aa(lp6263
S'ossifications'
p6264
aI3141
aa(lp6265
S'accompanied'
p6266
aI3142
aa(lp6267
S'spaces.'
p6268
aI3143
aa(lp6269
S'scarring/chronic'
p6270
aI3144
aa(lp6271
S'passes'
p6272
aI3145
aa(lp6273
S'centimeters'
p6274
aI3146
aa(lp6275
S'elsewhere'
p6276
aI3147
aa(lp6277
S'hematoma,'
p6278
aI3148
aa(lp6279
S'Department'
p6280
aI3149
aa(lp6281
S'EKG'
p6282
aI3150
aa(lp6283
S'upward'
p6284
aI3151
aa(lp6285
S'L3.'
p6286
aI3152
aa(lp6287
S'exam..'
p6288
aI3153
aa(lp6289
S'injuries'
p6290
aI3154
aa(lp6291
S'Bullet'
p6292
aI3155
aa(lp6293
S'kidneys,'
p6294
aI3156
aa(lp6295
S'technically'
p6296
aI3157
aa(lp6297
S'osteophytes,'
p6298
aI3158
aa(lp6299
S'5-6'
p6300
aI3159
aa(lp6301
S'hyperostosis'
p6302
aI3160
aa(lp6303
S'(DISH).'
p6304
aI3161
aa(lp6305
S'empyema,'
p6306
aI3162
aa(lp6307
S'XXXX:'
p6308
aI3163
aa(lp6309
S'junction,'
p6310
aI3164
aa(lp6311
S'organomegaly'
p6312
aI3165
aa(lp6313
S'Ureteral'
p6314
aI3166
aa(lp6315
S'Gallbladder'
p6316
aI3167
aa(lp6317
S'Device'
p6318
aI3168
aa(lp6319
S'persists,'
p6320
aI3169
aa(lp6321
S'granulomatous,'
p6322
aI3170
aa(lp6323
S'Mitral'
p6324
aI3171
aa(lp6325
S'16.2/24.Diffuse'
p6326
aI3172
aa(lp6327
S'foot'
p6328
aI3173
aa(lp6329
S'infections.'
p6330
aI3174
aa(lp6331
S'interrupted,'
p6332
aI3175
aa(lp6333
S'fracture-dislocations.'
p6334
aI3176
aa(lp6335
S'transmetatarsal'
p6336
aI3177
aa(lp6337
S'bronchitic/bronchiolitis'
p6338
aI3178
aa(lp6339
S'Suggestion'
p6340
aI3179
aa(lp6341
S'areas.'
p6342
aI3180
aa(lp6343
S'cerclage'
p6344
aI3181
aa(lp6345
S'hyperostosis.'
p6346
aI3182
aa(lp6347
S'Bridging'
p6348
aI3183
aa(lp6349
S'nephrostomy'
p6350
aI3184
aa(lp6351
S'hemithorax,'
p6352
aI3185
aa(lp6353
S'scoliosis,'
p6354
aI3186
aa(lp6355
S'surface'
p6356
aI3187
aa(lp6357
S'normal.No'
p6358
aI3188
aa(lp6359
S'atelectasis.Catheter'
p6360
aI3189
aa(lp6361
S'is.'
p6362
aI3190
aa(lp6363
S'closely'
p6364
aI3191
aa(lp6365
S'flexion'
p6366
aI3192
aa(lp6367
S'esophagogastric'
p6368
aI3193
aa(lp6369
S'aorta..'
p6370
aI3194
aa(lp6371
S'neurostimulator,'
p6372
aI3195
aa(lp6373
S'liver'
p6374
aI3196
aa(lp6375
S'remains.'
p6376
aI3197
aa(lp6377
S'Breast'
p6378
aI3198
aa(lp6379
S'T9.'
p6380
aI3199
aa(lp6381
S'suggested.'
p6382
aI3200
aa(lp6383
S'focally'
p6384
aI3201
aa(lp6385
S'6.1'
p6386
aI3202
aa(lp6387
S'remarkable'
p6388
aI3203
aa(lp6389
S'Residuals'
p6390
aI3204
aa(lp6391
S'healed,'
p6392
aI3205
aa(lp6393
S'different'
p6394
aI3206
aa(lp6395
S'Configuration'
p6396
aI3207
aa(lp6397
S'stigmata'
p6398
aI3208
aa(lp6399
S'Skeletal'
p6400
aI3209
aa(lp6401
S'Confluent'
p6402
aI3210
aa(lp6403
S'disease/fibrosis.'
p6404
aI3211
aa(lp6405
S'With'
p6406
aI3212
aa(lp6407
S'energy'
p6408
aI3213
aa(lp6409
S'possible,'
p6410
aI3214
aa(lp6411
S'dissection,'
p6412
aI3215
aa(lp6413
S'Buckling'
p6414
aI3216
aa(lp6415
S'piercings.'
p6416
aI3217
aa(lp6417
S'hemoptysis.'
p6418
aI3218
aa(lp6419
S'Esophagogastric'
p6420
aI3219
aa(lp6421
S'crowded'
p6422
aI3220
aa(lp6423
S'pancreatic'
p6424
aI3221
aa(lp6425
S'plates.'
p6426
aI3222
aa(lp6427
S'sinus.'
p6428
aI3223
aa(lp6429
S'4.6'
p6430
aI3224
aa(lp6431
S'believed'
p6432
aI3225
aa(lp6433
S'Congestive'
p6434
aI3226
aa(lp6435
S'Spondylosis'
p6436
aI3227
aa(lp6437
S'4.7'
p6438
aI3228
aa(lp6439
S'sequela.'
p6440
aI3229
aa(lp6441
S'pancreatitis'
p6442
aI3230
aa(lp6443
S'Could'
p6444
aI3231
aa(lp6445
S'noncontrast'
p6446
aI3232
aa(lp6447
S'epigastrium'
p6448
aI3233
aa(lp6449
S'degenerated'
p6450
aI3234
aa(lp6451
S'radiography.'
p6452
aI3235
aa(lp6453
S'Kyphotic'
p6454
aI3236
aa(lp6455
S'infection?'
p6456
aI3237
aa(lp6457
S'non-specific.'
p6458
aI3238
aa(lp6459
S'callus.'
p6460
aI3239
aa(lp6461
S'mucous'
p6462
aI3240
aa(lp6463
S'Perihilar'
p6464
aI3241
aa(lp6465
S'Generative'
p6466
aI3242
aa(lp6467
S'small,'
p6468
aI3243
aa(lp6469
S'for<BR>metastatic'
p6470
aI3244
aa(lp6471
S'aorticopulmonary'
p6472
aI3245
aa(lp6473
S'full'
p6474
aI3246
aa(lp6475
S'considerably'
p6476
aI3247
aa(lp6477
S'almost'
p6478
aI3248
aa(lp6479
S'16'
p6480
aI3249
aa(lp6481
S'details.'
p6482
aI3250
aa(lp6483
S'L1-LPlease'
p6484
aI3251
aa(lp6485
S'dictation.'
p6486
aI3252
aa(lp6487
S'ordered'
p6488
aI3253
aa(lp6489
S'reduction'
p6490
aI3254
aa(lp6491
S'LA'
p6492
aI3255
aa(lp6493
S'margins,'
p6494
aI3256
aa(lp6495
S'retropulsion'
p6496
aI3257
aa(lp6497
S'L1-LThere'
p6498
aI3258
aa(lp6499
S'Pression:'
p6500
aI3259
aa(lp6501
S'retraction,'
p6502
aI3260
aa(lp6503
S'raises'
p6504
aI3261
aa(lp6505
S'Additionally'
p6506
aI3262
aa(lp6507
S'pulmonic'
p6508
aI3263
aa(lp6509
S'pneumomediastinum,'
p6510
aI3264
aa(lp6511
S'cartilage'
p6512
aI3265
aa(lp6513
S'Progressive'
p6514
aI3266
aa(lp6515
S'formations'
p6516
aI3267
aa(lp6517
S'obviously'
p6518
aI3268
aa(lp6519
S'bihilar'
p6520
aI3269
aa(lp6521
S'Centered'
p6522
aI3270
aa(lp6523
S'representative'
p6524
aI3271
aa(lp6525
S'recurrent'
p6526
aI3272
aa(lp6527
S'distribution.'
p6528
aI3273
aa(lp6529
S'exacerbation'
p6530
aI3274
aa(lp6531
S'multilobar'
p6532
aI3275
aa(lp6533
S'lymphoid'
p6534
aI3276
aa(lp6535
S'3.4'
p6536
aI3277
aa(lp6537
S'Bihilar'
p6538
aI3278
aa(lp6539
S'kyphosis,'
p6540
aI3279
aa(lp6541
S'pannus.'
p6542
aI3280
aa(lp6543
S'factors,'
p6544
aI3281
aa(lp6545
S'Increased.'
p6546
aI3282
aa(lp6547
S'epipericardial'
p6548
aI3283
aa(lp6549
S'Radiopaque'
p6550
aI3284
aa(lp6551
S'coils.'
p6552
aI3285
aa(lp6553
S'xray.'
p6554
aI3286
aa(lp6555
S'Exaggeration'
p6556
aI3287
aa(lp6557
S'C/Spine'
p6558
aI3288
aa(lp6559
S'oblong'
p6560
aI3289
aa(lp6561
S'5.9'
p6562
aI3290
aa(lp6563
S'Densely'
p6564
aI3291
aa(lp6565
S'exist,'
p6566
aI3292
aa(lp6567
S'radiating'
p6568
aI3293
aa(lp6569
S'replacement'
p6570
aI3294
aa(lp6571
S'Near-complete'
p6572
aI3295
aa(lp6573
S'postprocedural'
p6574
aI3296
aa(lp6575
S'upward.'
p6576
aI3297
aa(lp6577
S'fracture..'
p6578
aI3298
aa(lp6579
S'convex'
p6580
aI3299
aa(lp6581
S'interface'
p6582
aI3300
aa(lp6583
S'bordered'
p6584
aI3301
aa(lp6585
S'pleura'
p6586
aI3302
aa(lp6587
S'Interface'
p6588
aI3303
aa(lp6589
S'nasopharynx'
p6590
aI3304
aa(lp6591
S'capping.'
p6592
aI3305
aa(lp6593
S'pleural.'
p6594
aI3306
aa(lp6595
S'limits>].'
p6596
aI3307
aa(lp6597
S'[Pulmonary'
p6598
aI3308
aa(lp6599
S'paralysis.'
p6600
aI3309
aa(lp6601
S'raise'
p6602
aI3310
aa(lp6603
S'fluoroscopic'
p6604
aI3311
aa(lp6605
S'confirmation.'
p6606
aI3312
aa(lp6607
S'indicates'
p6608
aI3313
aa(lp6609
S'T/Spine'
p6610
aI3314
aa(lp6611
S'excavatum.'
p6612
aI3315
aa(lp6613
S'XXXX-CT'
p6614
aI3316
aa(lp6615
S'origin.'
p6616
aI3317
aa(lp6617
S'addition'
p6618
aI3318
aa(lp6619
S'High'
p6620
aI3319
aa(lp6621
S'Since'
p6622
aI3320
aa(lp6623
S'cachexia'
p6624
aI3321
aa(lp6625
S'2nd'
p6626
aI3322
aa(lp6627
S'opportunistic'
p6628
aI3323
aa(lp6629
S'failure,'
p6630
aI3324
aa(lp6631
S'contrast.'
p6632
aI3325
aa(lp6633
S'non'
p6634
aI3326
aa(lp6635
S'Resolved'
p6636
aI3327
aa(lp6637
S'orientation'
p6638
aI3328
aa(lp6639
S'limits.The'
p6640
aI3329
aa(lp6641
S'Marrow'
p6642
aI3330
aa(lp6643
S'Normal.'
p6644
aI3331
aa(lp6645
S'stabilization'
p6646
aI3332
aa(lp6647
S'addended.'
p6648
aI3333
aa(lp6649
S'report'
p6650
aI3334
aa(lp6651
S'confirmation'
p6652
aI3335
aa(lp6653
S'P'
aI3336
aa(lp6654
S'Review'
p6655
aI3337
aa(lp6656
S'disruption.'
p6657
aI3338
aa(lp6658
S'levocurvature'
p6659
aI3339
aa(lp6660
S'recess.'
p6661
aI3340
aa(lp6662
S'Ankle.'
p6663
aI3341
aa(lp6664
S'screw.'
p6665
aI3342
aa(lp6666
S'Once'
p6667
aI3343
aa(lp6668
S'midshaft'
p6669
aI3344
aa(lp6670
S'Posterior'
p6671
aI3345
aa(lp6672
S'peripherally.'
p6673
aI3346
aa(lp6674
S'Mortise'
p6675
aI3347
aa(lp6676
S'cavity,'
p6677
aI3348
aa(lp6678
S'malleoli.'
p6679
aI3349
aa(lp6680
S'reactivation'
p6681
aI3350
aa(lp6682
S'within,'
p6683
aI3351
aa(lp6684
S'Oval'
p6685
aI3352
aa(lp6686
S'Laryngeal'
p6687
aI3353
aa(lp6688
S'Resolving'
p6689
aI3354
aa(lp6690
S'laryngeal'
p6691
aI3355
aa(lp6692
S'Multilobar'
p6693
aI3356
aa(lp6694
S'valvuloplasty'
p6695
aI3357
aa(lp6696
S'advised.'
p6697
aI3358
aa(lp6698
S'31'
p6699
aI3359
aa(lp6700
S'osteochondromatosis'
p6701
aI3360
aa(lp6702
S'synovial'
p6703
aI3361
aa(lp6704
S'predominance.'
p6705
aI3362
aa(lp6706
S'dyspnea.'
p6707
aI3363
aa(lp6708
S'interim'
p6709
aI3364
aa(lp6710
S'subjacent'
p6711
aI3365
aa(lp6712
S'fluoroscopy'
p6713
aI3366
aa(lp6714
S'Most'
p6715
aI3367
aa(lp6716
S'junctions.'
p6717
aI3368
aa(lp6718
S'continues'
p6719
aI3369
aa(lp6720
S'anteriorly'
p6721
aI3370
aa(lp6722
S'infarct.'
p6723
aI3371
aa(lp6724
S'enchondroma'
p6725
aI3372
aa(lp6726
S'post-op'
p6727
aI3373
aa(lp6728
S'medially.'
p6729
aI3374
aa(lp6730
S'bowel,'
p6731
aI3375
aa(lp6732
S'chest/abdomen'
p6733
aI3376
aa(lp6734
S'cm,'
p6735
aI3377
aa(lp6736
S'6.8'
p6737
aI3378
aa(lp6738
S'redemonstrated'
p6739
aI3379
aa(lp6740
S'duct.'
p6741
aI3380
aa(lp6742
S'stable..'
p6743
aI3381
aa(lp6744
S'bile'
p6745
aI3382
aa(lp6746
S'histoplasmosis.'
p6747
aI3383
aa(lp6748
S'bulge'
p6749
aI3384
aa(lp6750
S'fissures'
p6751
aI3385
aa(lp6752
S'spondylitic'
p6753
aI3386
aa(lp6754
S'direct'
p6755
aI3387
aa(lp6756
S'pacemaker/defibrillator'
p6757
aI3388
aa(lp6758
S'elongation'
p6759
aI3389
aa(lp6760
S'Chest,'
p6761
aI3390
aa(lp6762
S'spasm'
p6763
aI3391
aa(lp6764
S'muscle'
p6765
aI3392
aa(lp6766
S'lordosis'
p6767
aI3393
aa(lp6768
S'reversal'
p6769
aI3394
aa(lp6770
S'consolidation..'
p6771
aI3395
aa(lp6772
S'Hypoventilated'
p6773
aI3396
aa(lp6774
S'bone.'
p6775
aI3397
aa(lp6776
S'density,'
p6777
aI3398
aa(lp6778
S'splinting.'
p6779
aI3399
aa(lp6780
S'entire'
p6781
aI3400
aa(lp6782
S'Subcarinal'
p6783
aI3401
aa(lp6784
S'traverses'
p6785
aI3402
aa(lp6786
S'Additionally,'
p6787
aI3403
aa(lp6788
S'pneumatoceles.'
p6789
aI3404
aa(lp6790
S'stranding'
p6791
aI3405
aa(lp6792
S'collapsed'
p6793
aI3406
aa(lp6794
S'superiorly.'
p6795
aI3407
aa(lp6796
S'retracted'
p6797
aI3408
aa(lp6798
S'(XXXX),'
p6799
aI3409
aa(lp6800
S'consolidated.'
p6801
aI3410
aa(lp6802
S'aneurysmal'
p6803
aI3411
aa(lp6804
S'CTA'
p6805
aI3412
aa(lp6806
S'surgery'
p6807
aI3413
aa(lp6808
S'systems.'
p6809
aI3414
aa(lp6810
S'differentiate'
p6811
aI3415
aa(lp6812
S'widespread'
p6813
aI3416
aa(lp6814
S'definition'
p6815
aI3417
aa(lp6816
S'Well'
p6817
aI3418
aa(lp6818
S'11'
p6819
aI3419
aa(lp6820
S'syndesmophyte.'
p6821
aI3420
aa(lp6822
S'reasonably'
p6823
aI3421
aa(lp6824
S'shape'
p6825
aI3422
aa(lp6826
S'repair'
p6827
aI3423
aa(lp6828
S'Discrete'
p6829
aI3424
aa(lp6830
S'nodule/lymph'
p6831
aI3425
aa(lp6832
S'primordial.'
p6833
aI3426
aa(lp6834
S'communicated'
p6835
aI3427
aa(lp6836
S'High-resolution'
p6837
aI3428
aa(lp6838
S'Masslike'
p6839
aI3429
aa(lp6840
S'postobstructive'
p6841
aI3430
aa(lp6842
S'pseudofissure.'
p6843
aI3431
aa(lp6844
S'skinfold.'
p6845
aI3432
aa(lp6846
S'appearing,'
p6847
aI3433
aa(lp6848
S'granulomatous.'
p6849
aI3434
aa(lp6850
S'resultant'
p6851
aI3435
aa(lp6852
S'axilla'
p6853
aI3436
aa(lp6854
S'noted..'
p6855
aI3437
aa(lp6856
S'correlation,'
p6857
aI3438
aa(lp6858
S'histoplasmoma.'
p6859
aI3439
aa(lp6860
S'element'
p6861
aI3440
aa(lp6862
S'shoulder,'
p6863
aI3441
aa(lp6864
S'subluxation/dislocation'
p6865
aI3442
aa(lp6866
S'hyperaerated'
p6867
aI3443
aa(lp6868
S'Tubular'
p6869
aI3444
aa(lp6870
S'lytic'
p6871
aI3445
aa(lp6872
S'stents.'
p6873
aI3446
aa(lp6874
S'appropriate.'
p6875
aI3447
aa(lp6876
S'arteriographic'
p6877
aI3448
aa(lp6878
S'superimposing'
p6879
aI3449
aa(lp6880
S'significance,'
p6881
aI3450
aa(lp6882
S'unknown'
p6883
aI3451
aa(lp6884
S'nasogastric'
p6885
aI3452
aa(lp6886
S'Indeterminate'
p6887
aI3453
aa(lp6888
S'rotation,'
p6889
aI3454
aa(lp6890
S'lipoma.'
p6891
aI3455
aa(lp6892
S'retrosternally'
p6893
aI3456
aa(lp6894
S'comparison,'
p6895
aI3457
aa(lp6896
S'blood'
p6897
aI3458
aa(lp6898
S'positional'
p6899
aI3459
aa(lp6900
S'phenomenon.'
p6901
aI3460
aa(lp6902
S'only,'
p6903
aI3461
aa(lp6904
S'We'
p6905
aI3462
aa(lp6906
S'Sternum.'
p6907
aI3463
aa(lp6908
S'clavicles.'
p6909
aI3464
aa(lp6910
S'Nonspecific,'
p6911
aI3465
aa(lp6912
S'capping'
p6913
aI3466
aa(lp6914
S'Atelectasis'
p6915
aI3467
aa(lp6916
S'capping,'
p6917
aI3468
aa(lp6918
S'T11.'
p6919
aI3469
aa(lp6920
S'anterolisthesis'
p6921
aI3470
aa(lp6922
S'correlated'
p6923
aI3471
aa(lp6924
S'underpenetrated'
p6925
aI3472
aa(lp6926
S'swimmers'
p6927
aI3473
aa(lp6928
S'structure.'
p6929
aI3474
aa(lp6930
S'area.'
p6931
aI3475
aa(lp6932
S'4XXXX'
p6933
aI3476
aa(lp6934
S'Monitoring'
p6935
aI3477
aa(lp6936
S'Broken'
p6937
aI3478
aa(lp6938
S'artifacts.'
p6939
aI3479
aa(lp6940
S'sinus,'
p6941
aI3480
aa(lp6942
S'side,'
p6943
aI3481
aa(lp6944
S'informed'
p6945
aI3482
aa(lp6946
S'malalignment.'
p6947
aI3483
aa(lp6948
S'frontal,'
p6949
aI3484
aa(lp6950
S'treatment.'
p6951
aI3485
aa(lp6952
S'incomplete'
p6953
aI3486
aa(lp6954
S'accentuates'
p6955
aI3487
aa(lp6956
S'XXXX/1Mild'
p6957
aI3488
aa(lp6958
S'pm'
p6959
aI3489
aa(lp6960
S'142'
p6961
aI3490
aa(lp6962
S'service'
p6963
aI3491
aa(lp6964
S"XXXX'"
p6965
aI3492
aa(lp6966
S'doctor'
p6967
aI3493
aa(lp6968
S'colon'
p6969
aI3494
aa(lp6970
S'2.5'
p6971
aI3495
aa(lp6972
S'undergone'
p6973
aI3496
aa(lp6974
S'overlap.'
p6975
aI3497
aa(lp6976
S'flattened.'
p6977
aI3498
aa(lp6978
S'oligemia'
p6979
aI3499
aa(lp6980
S'transection.'
p6981
aI3500
aa(lp6982
S'stool..'
p6983
aI3501
aa(lp6984
S'Alignment'
p6985
aI3502
aa(lp6986
S'tubular'
p6987
aI3503
aa(lp6988
S'type'
p6989
aI3504
aa(lp6990
S'nonrib-bearing'
p6991
aI3505
aa(lp6992
S'postinfectious/postinflammatory.'
p6993
aI3506
aa(lp6994
S'XXXX-'
p6995
aI3507
aa(lp6996
S'femur.'
p6997
aI3508
aa(lp6998
S'one-third'
p6999
aI3509
aa(lp7000
S'units.'
p7001
aI3510
aa(lp7002
S'sizes.'
p7003
aI3511
aa(lp7004
S'varying'
p7005
aI3512
aa(lp7006
S'interpretation'
p7007
aI3513
aa(lp7008
S'depressions'
p7009
aI3514
aa(lp7010
S'cell'
p7011
aI3515
aa(lp7012
S'diameter,'
p7013
aI3516
aa(lp7014
S'my'
p7015
aI3517
aa(lp7016
S'B-lines.'
p7017
aI3518
aa(lp7018
S'oval,'
p7019
aI3519
aa(lp7020
S'Dual-XXXX'
p7021
aI3520
aa(lp7022
S'7.0'
p7023
aI3521
aa(lp7024
S'Emphysema,'
p7025
aI3522
aa(lp7026
S'costodiaphragmatic'
p7027
aI3523
aa(lp7028
S'pedicle/upper'
p7029
aI3524
aa(lp7030
S'procedure,'
p7031
aI3525
aa(lp7032
S'Scoliosis.'
p7033
aI3526
aa(lp7034
S'sinus'
p7035
aI3527
aa(lp7036
S'sinuses.'
p7037
aI3528
aa(lp7038
S'definitive'
p7039
aI3529
aa(lp7040
S'Displaced'
p7041
aI3530
aa(lp7042
S'become'
p7043
aI3531
aa(lp7044
S'Diagnostic'
p7045
aI3532
aa(lp7046
S'Femur.'
p7047
aI3533
aa(lp7048
S'upon'
p7049
aI3534
aa(lp7050
S'subcapital'
p7051
aI3535
aa(lp7052
S'worrisome.'
p7053
aI3536
aa(lp7054
S'found'
p7055
aI3537
aa(lp7056
S'popliteal'
p7057
aI3538
aa(lp7058
S'osteoporosis'
p7059
aI3539
aa(lp7060
S'found.'
p7061
aI3540
aa(lp7062
S'progressive'
p7063
aI3541
aa(lp7064
S'nodularity.'
p7065
aI3542
aa(lp7066
S'Femur'
p7067
aI3543
aa(lp7068
S'[&lt;The'
p7069
aI3544
aa(lp7070
S'currently'
p7071
aI3545
aa(lp7072
S'pneumothorax.&gt;]'
p7073
aI3546
aa(lp7074
S'pelvic'
p7075
aI3547
aa(lp7076
S'impacted'
p7077
aI3548
aa(lp7078
S'2.6'
p7079
aI3549
aa(lp7080
S'site'
p7081
aI3550
aa(lp7082
S'Included'
p7083
aI3551
aa(lp7084
S'exclusion'
p7085
aI3552
aa(lp7086
S'brain'
p7087
aI3553
aa(lp7088
S'carcinoma'
p7089
aI3554
aa(lp7090
S'Scoliotic'
p7091
aI3555
aatRp7092
.