(dp1
S'grad_clip'
p2
F1.5
sS'dim'
p3
I300
sS'optimizer'
p4
S'adam'
p5
sS'dim_word'
p6
I300
sS'data'
p7
S'xray'
p8
sS'lrate'
p9
F0.00020000000000000001
sS'batch_size'
p10
I1024
sS'encoder'
p11
S'gru'
p12
sS'maxlen_w'
p13
I1000
sS'saveto'
p14
S'xraymodel/xraymodel.npz'
p15
sS'max_epochs'
p16
I4
sS'dim_image'
p17
I512
sS'dispFreq'
p18
I10
sS'decay_c'
p19
F0.0001
sS'margin'
p20
F0.20000000000000001
sS'reload_'
p21
I00
sS'n_words'
p22
I3595
sS'validFreq'
p23
I100
s.