ccollections
OrderedDict
p1
((lp2
(lp3
S'No'
p4
aI2
aa(lp5
S'is'
p6
aI3
aa(lp7
S'are'
p8
aI4
aa(lp9
S'The'
p10
aI5
aa(lp11
S'the'
p12
aI6
aa(lp13
S'of'
p14
aI7
aa(lp15
S'and'
p16
aI8
aa(lp17
S'acute'
p18
aI9
aa(lp19
S'XXXX'
p20
aI10
aa(lp21
S'or'
p22
aI11
aa(lp23
S'pleural'
p24
aI12
aa(lp25
S'There'
p26
aI13
aa(lp27
S'normal'
p28
aI14
aa(lp29
S'focal'
p30
aI15
aa(lp31
S'size'
p32
aI16
aa(lp33
S'no'
p34
aI17
aa(lp35
S'in'
p36
aI18
aa(lp37
S'within'
p38
aI19
aa(lp39
S'cardiopulmonary'
p40
aI20
aa(lp41
S'lungs'
p42
aI21
aa(lp43
S'pulmonary'
p44
aI22
aa(lp45
S'normal.'
p46
aI23
aa(lp47
S'Heart'
p48
aI24
aa(lp49
S'disease.'
p50
aI25
aa(lp51
S'pneumothorax.'
p52
aI26
aa(lp53
S'right'
p54
aI27
aa(lp55
S'limits.'
p56
aI28
aa(lp57
S'heart'
p58
aI29
aa(lp59
S'with'
p60
aI30
aa(lp61
S'effusion.'
p62
aI31
aa(lp63
S'clear.'
p64
aI32
aa(lp65
S'left'
p66
aI33
aa(lp67
S'airspace'
p68
aI34
aa(lp69
S'abnormality.'
p70
aI35
aa(lp71
S'effusion'
p72
aI36
aa(lp73
S'pneumothorax'
p74
aI37
aa(lp75
S'silhouette'
p76
aI38
aa(lp77
S'lung'
p78
aI39
aa(lp79
S'mediastinal'
p80
aI40
aa(lp81
S'clear'
p82
aI41
aa(lp83
S'evidence'
p84
aI42
aa(lp85
S'changes'
p86
aI43
aa(lp87
S'consolidation,'
p88
aI44
aa(lp89
S'cardiomediastinal'
p90
aI45
aa(lp91
S'without'
p92
aI46
aa(lp93
S'structures'
p94
aI47
aa(lp95
S'to'
p96
aI48
aa(lp97
S'for'
p98
aI49
aa(lp99
S'Lungs'
p100
aI50
aa(lp101
S'thoracic'
p102
aI51
aa(lp103
S'a'
aI52
aa(lp104
S'unremarkable.'
p105
aI53
aa(lp106
S'mediastinum'
p107
aI54
aa(lp108
S'Stable'
p109
aI55
aa(lp110
S'spine.'
p111
aI56
aa(lp112
S'upper'
p113
aI57
aa(lp114
S'Normal'
p115
aI58
aa(lp116
S'appear'
p117
aI59
aa(lp118
S'consolidation.'
p119
aI60
aa(lp120
S'large'
p121
aI61
aa(lp122
S'XXXX.'
p123
aI62
aa(lp124
S'chest'
p125
aI63
aa(lp126
S'findings.'
p127
aI64
aa(lp128
S'effusion,'
p129
aI65
aa(lp130
S'size.'
p131
aI66
aa(lp132
S'contours'
p133
aI67
aa(lp134
S'pneumothorax,'
p135
aI68
aa(lp136
S'bony'
p137
aI69
aa(lp138
S'limits'
p139
aI70
aa(lp140
S'vascularity'
p141
aI71
aa(lp142
S'active'
p143
aI72
aa(lp144
S'lower'
p145
aI73
aa(lp146
S'seen.'
p147
aI74
aa(lp148
S'identified.'
p149
aI75
aa(lp150
S'lateral'
p151
aI76
aa(lp152
S'intact.'
p153
aI77
aa(lp154
S'degenerative'
p155
aI78
aa(lp156
S'process.'
p157
aI79
aa(lp158
S'calcified'
p159
aI80
aa(lp160
S'osseous'
p161
aI81
aa(lp162
S'lobe'
p163
aI82
aa(lp164
S'Mild'
p165
aI83
aa(lp166
S'mild'
p167
aI84
aa(lp168
S'contour.'
p169
aI85
aa(lp170
S'cardiac'
p171
aI86
aa(lp172
S'on'
p173
aI87
aa(lp174
S'abnormalities.'
p175
aI88
aa(lp176
S'opacity'
p177
aI89
aa(lp178
S'be'
p179
aI90
aa(lp180
S'effusions.'
p181
aI91
aa(lp182
S'vasculature'
p183
aI92
aa(lp184
S'air'
p185
aI93
aa(lp186
S'may'
p187
aI94
aa(lp188
S'lungs.'
p189
aI95
aa(lp190
S'disease'
p191
aI96
aa(lp192
S'Pulmonary'
p193
aI97
aa(lp194
S'edema.'
p195
aI98
aa(lp196
S'opacities'
p197
aI99
aa(lp198
S'atelectasis.'
p199
aI100
aa(lp200
S'bilateral'
p201
aI101
aa(lp202
S'Negative'
p203
aI102
aa(lp204
S'contour'
p205
aI103
aa(lp206
S'stable'
p207
aI104
aa(lp208
S'interstitial'
p209
aI105
aa(lp210
S'prior'
p211
aI106
aa(lp212
S'atelectasis'
p213
aI107
aa(lp214
S'Right'
p215
aI108
aa(lp216
S'noted.'
p217
aI109
aa(lp218
S'grossly'
p219
aI110
aa(lp220
S'bilaterally.'
p221
aI111
aa(lp222
S'findings'
p223
aI112
aa(lp224
S'volumes'
p225
aI113
aa(lp226
S'small'
p227
aI114
aa(lp228
S'space'
p229
aI115
aa(lp230
S'Cardiomediastinal'
p231
aI116
aa(lp232
S'aorta.'
p233
aI117
aa(lp234
S'hilar'
p235
aI118
aa(lp236
S'Mediastinal'
p237
aI119
aa(lp238
S'free'
p239
aI120
aa(lp240
S'effusions'
p241
aI121
aa(lp242
S'Visualized'
p243
aI122
aa(lp244
S'basilar'
p245
aI123
aa(lp246
S'nodules'
p247
aI124
aa(lp248
S'rib'
p249
aI125
aa(lp250
S'Low'
p251
aI126
aa(lp252
S'Left'
p253
aI127
aa(lp254
S'pneumonia.'
p255
aI128
aa(lp256
S'Degenerative'
p257
aI129
aa(lp258
S'at'
p259
aI130
aa(lp260
S'visible'
p261
aI131
aa(lp262
S'which'
p263
aI132
aa(lp264
S'seen'
p265
aI133
aa(lp266
S'represent'
p267
aI134
aa(lp268
S'present'
p269
aI135
aa(lp270
S'Bony'
p271
aI136
aa(lp272
S'from'
p273
aI137
aa(lp274
S'abnormality'
p275
aI138
aa(lp276
S'Cardiac'
p277
aI139
aa(lp278
S'definite'
p279
aI140
aa(lp280
S'Calcified'
p281
aI141
aa(lp282
S'spine'
p283
aI142
aa(lp284
S'infiltrate.'
p285
aI143
aa(lp286
S'disease,'
p287
aI144
aa(lp288
S'thorax'
p289
aI145
aa(lp290
S'visualized'
p291
aI146
aa(lp292
S'vascular'
p293
aI147
aa(lp294
S'cardiomegaly.'
p295
aI148
aa(lp296
S'Clear'
p297
aI149
aa(lp298
S'base'
p299
aI150
aa(lp300
S'consistent'
p301
aI151
aa(lp302
S'radiographic'
p303
aI152
aa(lp304
S'pneumothoraces.'
p305
aI153
aa(lp306
S'not'
p307
aI154
aa(lp308
S'granulomatous'
p309
aI155
aa(lp310
S'stable.'
p311
aI156
aa(lp312
S'granuloma'
p313
aI157
aa(lp314
S'silhouette.'
p315
aI158
aa(lp316
S'costophrenic'
p317
aI159
aa(lp318
S'contours.'
p319
aI160
aa(lp320
S'chest.'
p321
aI161
aa(lp322
S'XXXX,'
p323
aI162
aa(lp324
S'opacity,'
p325
aI163
aa(lp326
S'tip'
p327
aI164
aa(lp328
S'appears'
p329
aI165
aa(lp330
S'otherwise'
p331
aI166
aa(lp332
S'scarring'
p333
aI167
aa(lp334
S'chronic'
p335
aI168
aa(lp336
S'lobe.'
p337
aI169
aa(lp338
S'soft'
p339
aI170
aa(lp340
S'areas'
p341
aI171
aa(lp342
S'This'
p343
aI172
aa(lp344
S'mildly'
p345
aI173
aa(lp346
S'volumes.'
p347
aI174
aa(lp348
S'suspicious'
p349
aI175
aa(lp350
S'Both'
p351
aI176
aa(lp352
S'enlarged.'
p353
aI177
aa(lp354
S'lymph'
p355
aI178
aa(lp356
S'masses.'
p357
aI179
aa(lp358
S'appearance.'
p359
aI180
aa(lp360
S'central'
p361
aI181
aa(lp362
S'expanded.'
p363
aI182
aa(lp364
S'aortic'
p365
aI183
aa(lp366
S'alveolar'
p367
aI184
aa(lp368
S'consolidation'
p369
aI185
aa(lp370
S'posterior'
p371
aI186
aa(lp372
S'opacities.'
p373
aI187
aa(lp374
S'appearance'
p375
aI188
aa(lp376
S'anterior'
p377
aI189
aa(lp378
S'suggest'
p379
aI190
aa(lp380
S'overlying'
p381
aI191
aa(lp382
S'an'
p383
aI192
aa(lp384
S'infiltrate'
p385
aI193
aa(lp386
S'noted'
p387
aI194
aa(lp388
S'Specifically,'
p389
aI195
aa(lp390
S'increased'
p391
aI196
aa(lp392
S'scarring.'
p393
aI197
aa(lp394
S'previous'
p395
aI198
aa(lp396
S'bibasilar'
p397
aI199
aa(lp398
S'density'
p399
aI200
aa(lp400
S'as'
p401
aI201
aa(lp402
S'Minimal'
p403
aI202
aa(lp404
S'there'
p405
aI203
aa(lp406
S'low'
p407
aI204
aa(lp408
S'opacity.'
p409
aI205
aa(lp410
S'but'
p411
aI206
aa(lp412
S'has'
p413
aI207
aa(lp414
S'typical'
p415
aI208
aa(lp416
S'Small'
p417
aI209
aa(lp418
S'spaces'
p419
aI210
aa(lp420
S'unchanged'
p421
aI211
aa(lp422
S'A'
aI212
aa(lp423
S'compatible'
p424
aI213
aa(lp425
S'Osseous'
p426
aI214
aa(lp427
S'versus'
p428
aI215
aa(lp429
S'cardiomegaly'
p430
aI216
aa(lp431
S'base.'
p432
aI217
aa(lp433
S'have'
p434
aI218
aa(lp435
S'subsegmental'
p436
aI219
aa(lp437
S'tissues'
p438
aI220
aa(lp439
S'aorta'
p440
aI221
aa(lp441
S'bronchovascular'
p442
aI222
aa(lp443
S'examination'
p444
aI223
aa(lp445
S'sternotomy'
p446
aI224
aa(lp447
S'show'
p448
aI225
aa(lp449
S'nodule'
p450
aI226
aa(lp451
S'over'
p452
aI227
aa(lp453
S'unchanged.'
p454
aI228
aa(lp455
S'minimal'
p456
aI229
aa(lp457
S'infiltrates.'
p458
aI230
aa(lp459
S'effusions,'
p460
aI231
aa(lp461
S'views'
p462
aI232
aa(lp463
S'this'
p464
aI233
aa(lp465
S'patient'
p466
aI234
aa(lp467
S'calcifications'
p468
aI235
aa(lp469
S'change'
p470
aI236
aa(lp471
S'could'
p472
aI237
aa(lp473
S'further'
p474
aI238
aa(lp475
S'skeletal'
p476
aI239
aa(lp477
S'present.'
p478
aI240
aa(lp479
S'opacities,'
p480
aI241
aa(lp481
S'cm'
p482
aI242
aa(lp483
S'atherosclerotic'
p484
aI243
aa(lp485
S'again'
p486
aI244
aa(lp487
S'nodular'
p488
aI245
aa(lp489
S'patchy'
p490
aI246
aa(lp491
S'Cardiomegaly'
p492
aI247
aa(lp493
S'Cardio'
p494
aI248
aa(lp495
S'catheter'
p496
aI249
aa(lp497
S'displaced'
p498
aI250
aa(lp499
S'than'
p500
aI251
aa(lp501
S'most'
p502
aI252
aa(lp503
S'clear,'
p504
aI253
aa(lp505
S'interval.'
p506
aI254
aa(lp507
S'mm'
p508
aI255
aa(lp509
S'clips'
p510
aI256
aa(lp511
S'effusion..'
p512
aI257
aa(lp513
S'blunting'
p514
aI258
aa(lp515
S'edema,'
p516
aI259
aa(lp517
S'frontal'
p518
aI260
aa(lp519
S'CT'
p520
aI261
aa(lp521
S'mid'
p522
aI262
aa(lp523
S'granuloma.'
p524
aI263
aa(lp525
S'midline.'
p526
aI264
aa(lp527
S'middle'
p528
aI265
aa(lp529
S'midlung'
p530
aI266
aa(lp531
S'interval'
p532
aI267
aa(lp533
S'fractures'
p534
aI268
aa(lp535
S'Thoracic'
p536
aI269
aa(lp537
S'due'
p538
aI270
aa(lp539
S'been'
p540
aI271
aa(lp541
S'hiatal'
p542
aI272
aa(lp543
S'fracture'
p544
aI273
aa(lp545
S'old'
p546
aI274
aa(lp547
S'normally'
p548
aI275
aa(lp549
S'hemidiaphragm'
p550
aI276
aa(lp551
S'inflated'
p552
aI277
aa(lp553
S'hemidiaphragm.'
p554
aI278
aa(lp555
S'silhouettes'
p556
aI279
aa(lp557
S'bone'
p558
aI280
aa(lp559
S'deformity'
p560
aI281
aa(lp561
S'view'
p562
aI282
aa(lp563
S'streaky'
p564
aI283
aa(lp565
S'emphysema.'
p566
aI284
aa(lp567
S'Lung'
p568
aI285
aa(lp569
S'markings'
p570
aI286
aa(lp571
S'significant'
p572
aI287
aa(lp573
S'vertebral'
p574
aI288
aa(lp575
S'exam.'
p576
aI289
aa(lp577
S'spondylosis.'
p578
aI290
aa(lp579
S'view.'
p580
aI291
aa(lp581
S'Bilateral'
p582
aI292
aa(lp583
S'changes.'
p584
aI293
aa(lp585
S'edema'
p586
aI294
aa(lp587
S'Chest.'
p588
aI295
aa(lp589
S'pneumonia,'
p590
aI296
aa(lp591
S'granulomas.'
p592
aI297
aa(lp593
S'diaphragm.'
p594
aI298
aa(lp595
S'apical'
p596
aI299
aa(lp597
S'contour,'
p598
aI300
aa(lp599
S'secondary'
p600
aI301
aa(lp601
S'PA'
p602
aI302
aa(lp603
S'prominent'
p604
aI303
aa(lp605
S'radiographs'
p606
aI304
aa(lp607
S'size,'
p608
aI305
aa(lp609
S'projecting'
p610
aI306
aa(lp611
S'Interval'
p612
aI307
aa(lp613
S'fractures.'
p614
aI308
aa(lp615
S'moderate'
p616
aI309
aa(lp617
S'trachea'
p618
aI310
aa(lp619
S'perihilar'
p620
aI311
aa(lp621
S'greater'
p622
aI312
aa(lp623
S'tissue'
p624
aI313
aa(lp625
S'elevation'
p626
aI314
aa(lp627
S'was'
p628
aI315
aa(lp629
S'tortuous'
p630
aI316
aa(lp631
S'hernia.'
p632
aI317
aa(lp633
S'prominence'
p634
aI318
aa(lp635
S'surgical'
p636
aI319
aa(lp637
S'adenopathy,'
p638
aI320
aa(lp639
S'abnormality..'
p640
aI321
aa(lp641
S'fracture.'
p642
aI322
aa(lp643
S'obtained.'
p644
aI323
aa(lp645
S'limits,'
p646
aI324
aa(lp647
S'well'
p648
aI325
aa(lp649
S'possibly'
p650
aI326
aa(lp651
S'lung.'
p652
aI327
aa(lp653
S'appearing'
p654
aI328
aa(lp655
S'evaluation'
p656
aI329
aa(lp657
S'comparison'
p658
aI330
aa(lp659
S'identified'
p660
aI331
aa(lp661
S'crowding'
p662
aI332
aa(lp663
S'distal'
p664
aI333
aa(lp665
S'tortuosity'
p666
aI334
aa(lp667
S'SVC.'
p668
aI335
aa(lp669
S'2'
aI336
aa(lp670
S'Well-expanded'
p671
aI337
aa(lp672
S'infiltrates'
p673
aI338
aa(lp674
S'finding.'
p675
aI339
aa(lp676
S'enlarged'
p677
aI340
aa(lp678
S'since'
p679
aI341
aa(lp680
S'Aortic'
p681
aI342
aa(lp682
S'Chronic'
p683
aI343
aa(lp684
S'scattered'
p685
aI344
aa(lp686
S'representing'
p687
aI345
aa(lp688
S'granulomas'
p689
aI346
aa(lp690
S'Prominent'
p691
aI347
aa(lp692
S'unremarkable'
p693
aI348
aa(lp694
S'vascularity.'
p695
aI349
aa(lp696
S'compared'
p697
aI350
aa(lp698
S'x-XXXX.'
p699
aI351
aa(lp700
S'Frontal'
p701
aI352
aa(lp702
S'suggestive'
p703
aI353
aa(lp704
S'under'
p705
aI354
aa(lp706
S'also'
p707
aI355
aa(lp708
S'area'
p709
aI356
aa(lp710
S'change.'
p711
aI357
aa(lp712
S'some'
p713
aI358
aa(lp714
S'crowding.'
p715
aI359
aa(lp716
S'would'
p717
aI360
aa(lp718
S'consists'
p719
aI361
aa(lp720
S'were'
p721
aI362
aa(lp722
S'right-sided'
p723
aI363
aa(lp724
S'Otherwise,'
p725
aI364
aa(lp726
S'Hyperexpanded'
p727
aI365
aa(lp728
S'represents'
p729
aI366
aa(lp730
S'bilaterally'
p731
aI367
aa(lp732
S'medial'
p733
aI368
aa(lp734
S'near'
p735
aI369
aa(lp736
S'Scattered'
p737
aI370
aa(lp738
S'calcification'
p739
aI371
aa(lp740
S'nodule.'
p741
aI372
aa(lp742
S'heart,'
p743
aI373
aa(lp744
S'thoracolumbar'
p745
aI374
aa(lp746
S'Tortuous'
p747
aI375
aa(lp748
S'venous'
p749
aI376
aa(lp750
S'both'
p751
aI377
aa(lp752
S'infiltrate,'
p753
aI378
aa(lp754
S'body'
p755
aI379
aa(lp756
S'abdomen'
p757
aI380
aa(lp758
S'consolidations.'
p759
aI381
aa(lp760
S'study.'
p761
aI382
aa(lp762
S'study'
p763
aI383
aa(lp764
S'intraperitoneal'
p765
aI384
aa(lp766
S'throughout'
p767
aI385
aa(lp768
S'If'
p769
aI386
aa(lp770
S'hyperexpanded'
p771
aI387
aa(lp772
S'tortuous.'
p773
aI388
aa(lp774
S'superimposed'
p775
aI389
aa(lp776
S'pneumonia'
p777
aI390
aa(lp778
S'Limited'
p779
aI391
aa(lp780
S'slightly'
p781
aI392
aa(lp782
S'approximately'
p783
aI393
aa(lp784
S'heart.'
p785
aI394
aa(lp786
S'vasculature.'
p787
aI395
aa(lp788
S'Moderate'
p789
aI396
aa(lp790
S'Bibasilar'
p791
aI397
aa(lp792
S'Borderline'
p793
aI398
aa(lp794
S'hyperexpanded.'
p795
aI399
aa(lp796
S'if'
p797
aI400
aa(lp798
S'Recommend'
p799
aI401
aa(lp800
S'Multiple'
p801
aI402
aa(lp802
S'associated'
p803
aI403
aa(lp804
S'exam'
p805
aI404
aa(lp806
S'superior'
p807
aI405
aa(lp808
S'emphysematous'
p809
aI406
aa(lp810
S'AP'
p811
aI407
aa(lp812
S'by'
p813
aI408
aa(lp814
S'fluid.'
p815
aI409
aa(lp816
S'configuration.'
p817
aI410
aa(lp818
S'mass'
p819
aI411
aa(lp820
S'and/or'
p821
aI412
aa(lp822
S'retrocardiac'
p823
aI413
aa(lp824
S'midlung.'
p825
aI414
aa(lp826
S'Large'
p827
aI415
aa(lp828
S'demonstrate'
p829
aI416
aa(lp830
S'junction.'
p831
aI417
aa(lp832
S'suggesting'
p833
aI418
aa(lp834
S'left-sided'
p835
aI419
aa(lp836
S'enlargement'
p837
aI420
aa(lp838
S'tuberculosis.'
p839
aI421
aa(lp840
S'remains'
p841
aI422
aa(lp842
S'Patchy'
p843
aI423
aa(lp844
S'related'
p845
aI424
aa(lp846
S'demonstrated.'
p847
aI425
aa(lp848
S'flattening'
p849
aI426
aa(lp850
S'left.'
p851
aI427
aa(lp852
S'Mildly'
p853
aI428
aa(lp854
S'Prior'
p855
aI429
aa(lp856
S'These'
p857
aI430
aa(lp858
S'any'
p859
aI431
aa(lp860
S'Comparison'
p861
aI432
aa(lp862
S'low.'
p863
aI433
aa(lp864
S'multiple'
p865
aI434
aa(lp866
S'remain'
p867
aI435
aa(lp868
S'lungs,'
p869
aI436
aa(lp870
S'mediastinum.'
p871
aI437
aa(lp872
S'similar'
p873
aI438
aa(lp874
S'In'
p875
aI439
aa(lp876
S'examination.'
p877
aI440
aa(lp878
S'reveal'
p879
aI441
aa(lp880
S'volume'
p881
aI442
aa(lp882
S'radiograph.'
p883
aI443
aa(lp884
S'midthoracic'
p885
aI444
aa(lp886
S'PICC'
p887
aI445
aa(lp888
S'along'
p889
aI446
aa(lp890
S'cervical'
p891
aI447
aa(lp892
S'silhouette,'
p893
aI448
aa(lp894
S'diffuse'
p895
aI449
aa(lp896
S'Surgical'
p897
aI450
aa(lp898
S'Otherwise'
p899
aI451
aa(lp900
S'leads'
p901
aI452
aa(lp902
S'Atherosclerotic'
p903
aI453
aa(lp904
S'disc'
p905
aI454
aa(lp906
S'tube'
p907
aI455
aa(lp908
S'scan'
p909
aI456
aa(lp910
S'abnormalities'
p911
aI457
aa(lp912
S'top'
p913
aI458
aa(lp914
S'congestion.'
p915
aI459
aa(lp916
S'images.'
p917
aI460
aa(lp918
S'intact'
p919
aI461
aa(lp920
S'Unremarkable'
p921
aI462
aa(lp922
S'5'
aI463
aa(lp923
S'paratracheal'
p924
aI464
aa(lp925
S'Cardiomegaly.'
p926
aI465
aa(lp927
S'line'
p928
aI466
aa(lp929
S'Findings'
p930
aI467
aa(lp931
S'clinical'
p932
aI468
aa(lp933
S'thickening'
p934
aI469
aa(lp935
S'hyperinflated'
p936
aI470
aa(lp937
S'followup'
p938
aI471
aa(lp939
S'known'
p940
aI472
aa(lp941
S'measuring'
p942
aI473
aa(lp943
S"patient's"
p944
aI474
aa(lp945
S'lobe,'
p946
aI475
aa(lp947
S'limited'
p948
aI476
aa(lp949
S'Pleural'
p950
aI477
aa(lp951
S'infection.'
p952
aI478
aa(lp953
S'right.'
p954
aI479
aa(lp955
S'densities'
p956
aI480
aa(lp957
S'through'
p958
aI481
aa(lp959
S'significantly'
p960
aI482
aa(lp961
S'lobar'
p962
aI483
aa(lp963
S'evaluation.'
p964
aI484
aa(lp965
S'reflect'
p966
aI485
aa(lp967
S'calcification.'
p968
aI486
aa(lp969
S'post'
p970
aI487
aa(lp971
S'widening.'
p972
aI488
aa(lp973
S'curvature'
p974
aI489
aa(lp975
S'given'
p976
aI490
aa(lp977
S'rib.'
p978
aI491
aa(lp979
S'expanded'
p980
aI492
aa(lp981
S'osteophytes.'
p982
aI493
aa(lp983
S'Probable'
p984
aI494
aa(lp985
S'concerning'
p986
aI495
aa(lp987
S'Soft'
p988
aI496
aa(lp989
S'postsurgical'
p990
aI497
aa(lp991
S'T-spine'
p992
aI498
aa(lp993
S'hypoinflated'
p994
aI499
aa(lp995
S'bases'
p996
aI500
aa(lp997
S'endplate'
p998
aI501
aa(lp999
S'fluid'
p1000
aI502
aa(lp1001
S'lung,'
p1002
aI503
aa(lp1003
S'Unchanged'
p1004
aI504
aa(lp1005
S'process'
p1006
aI505
aa(lp1007
S'demonstrated'
p1008
aI506
aa(lp1009
S'overt'
p1010
aI507
aa(lp1011
S'lobes.'
p1012
aI508
aa(lp1013
S'masses'
p1014
aI509
aa(lp1015
S'humeral'
p1016
aI510
aa(lp1017
S'Increased'
p1018
aI511
aa(lp1019
S'region'
p1020
aI512
aa(lp1021
S'adenopathy.'
p1022
aI513
aa(lp1023
S'enlarged,'
p1024
aI514
aa(lp1025
S'.'
aI515
aa(lp1026
S'Aorta'
p1027
aI516
aa(lp1028
S'that'
p1029
aI517
aa(lp1030
S'bases.'
p1031
aI518
aa(lp1032
S'base,'
p1033
aI519
aa(lp1034
S'intrathoracic'
p1035
aI520
aa(lp1036
S'level'
p1037
aI521
aa(lp1038
S'joint'
p1039
aI522
aa(lp1040
S'more'
p1041
aI523
aa(lp1042
S'underlying'
p1043
aI524
aa(lp1044
S'lucency'
p1045
aI525
aa(lp1046
S'recommended.'
p1047
aI526
aa(lp1048
S'Streaky'
p1049
aI527
aa(lp1050
S'residual'
p1051
aI528
aa(lp1052
S'loss'
p1053
aI529
aa(lp1054
S'parenchymal'
p1055
aI530
aa(lp1056
S'Hyperinflated'
p1057
aI531
aa(lp1058
S'consider'
p1059
aI532
aa(lp1060
S'Arthritic'
p1061
aI533
aa(lp1062
S'biapical'
p1063
aI534
aa(lp1064
S'age.'
p1065
aI535
aa(lp1066
S'lumbar'
p1067
aI536
aa(lp1068
S'Persistent'
p1069
aI537
aa(lp1070
S'subclavian'
p1071
aI538
aa(lp1072
S'severe'
p1073
aI539
aa(lp1074
S'somewhat'
p1075
aI540
aa(lp1076
S'congestion'
p1077
aI541
aa(lp1078
S'volumes,'
p1079
aI542
aa(lp1080
S'injury.'
p1081
aI543
aa(lp1082
S'CABG.'
p1083
aI544
aa(lp1084
S'Old'
p1085
aI545
aa(lp1086
S'calcifications.'
p1087
aI546
aa(lp1088
S'borderline'
p1089
aI547
aa(lp1090
S'atelectasis,'
p1091
aI548
aa(lp1092
S'segment'
p1093
aI549
aa(lp1094
S'tuberculosis'
p1095
aI550
aa(lp1096
S'cardiac,'
p1097
aI551
aa(lp1098
S'sequela'
p1099
aI552
aa(lp1100
S'view,'
p1101
aI553
aa(lp1102
S'thickening.'
p1103
aI554
aa(lp1104
S'clinically'
p1105
aI555
aa(lp1106
S'6th'
p1107
aI556
aa(lp1108
S'Vague'
p1109
aI557
aa(lp1110
S'aspect'
p1111
aI558
aa(lp1112
S'COPD.'
p1113
aI559
aa(lp1114
S'Emphysema'
p1115
aI560
aa(lp1116
S'mediastinum,'
p1117
aI561
aa(lp1118
S'diaphragm'
p1119
aI562
aa(lp1120
S'atrium.'
p1121
aI563
aa(lp1122
S'deformities'
p1123
aI564
aa(lp1124
S'shoulder'
p1125
aI565
aa(lp1126
S'clavicle'
p1127
aI566
aa(lp1128
S'ribs.'
p1129
aI567
aa(lp1130
S'adenopathy'
p1131
aI568
aa(lp1132
S'involving'
p1133
aI569
aa(lp1134
S'position.'
p1135
aI570
aa(lp1136
S'radiograph'
p1137
aI571
aa(lp1138
S'persistent'
p1139
aI572
aa(lp1140
S'Nodular'
p1141
aI573
aa(lp1142
S'nodules.'
p1143
aI574
aa(lp1144
S'resolution'
p1145
aI575
aa(lp1146
S'wall'
p1147
aI576
aa(lp1148
S'Hypoinflation'
p1149
aI577
aa(lp1150
S'excluded.'
p1151
aI578
aa(lp1152
S'technique.'
p1153
aI579
aa(lp1154
S'pericardial'
p1155
aI580
aa(lp1156
S'atrial'
p1157
aI581
aa(lp1158
S'metastatic'
p1159
aI582
aa(lp1160
S'prior.'
p1161
aI583
aa(lp1162
S'probably'
p1163
aI584
aa(lp1164
S'cardiomegaly,'
p1165
aI585
aa(lp1166
S'descending'
p1167
aI586
aa(lp1168
S'fibrosis.'
p1169
aI587
aa(lp1170
S'engorgement'
p1171
aI588
aa(lp1172
S'available'
p1173
aI589
aa(lp1174
S'one'
p1175
aI590
aa(lp1176
S'obstructive'
p1177
aI591
aa(lp1178
S'Emphysematous'
p1179
aI592
aa(lp1180
S'contrast'
p1181
aI593
aa(lp1182
S'apex.'
p1183
aI594
aa(lp1184
S'lingular'
p1185
aI595
aa(lp1186
S'amount'
p1187
aI596
aa(lp1188
S'failure.'
p1189
aI597
aa(lp1190
S'few'
p1191
aI598
aa(lp1192
S'history'
p1193
aI599
aa(lp1194
S'imaging'
p1195
aI600
aa(lp1196
S'configuration'
p1197
aI601
aa(lp1198
S'flattened'
p1199
aI602
aa(lp1200
S'parenchyma'
p1201
aI603
aa(lp1202
S'airways'
p1203
aI604
aa(lp1204
S'artery'
p1205
aI605
aa(lp1206
S'Some'
p1207
aI606
aa(lp1208
S'abdomen.'
p1209
aI607
aa(lp1210
S'Central'
p1211
aI608
aa(lp1212
S'preoperative'
p1213
aI609
aa(lp1214
S'Multilevel'
p1215
aI610
aa(lp1216
S'bowel'
p1217
aI611
aa(lp1218
S'body.'
p1219
aI612
aa(lp1220
S'probable'
p1221
aI613
aa(lp1222
S'apex'
p1223
aI614
aa(lp1224
S'Chest'
p1225
aI615
aa(lp1226
S'helpful'
p1227
aI616
aa(lp1228
S'osteophytes'
p1229
aI617
aa(lp1230
S'shoulder.'
p1231
aI618
aa(lp1232
S'resolution.'
p1233
aI619
aa(lp1234
S'x'
aI620
aa(lp1235
S'eventration'
p1236
aI621
aa(lp1237
S'aeration'
p1238
aI622
aa(lp1239
S'region.'
p1240
aI623
aa(lp1241
S'hernia'
p1242
aI624
aa(lp1243
S'Question'
p1244
aI625
aa(lp1245
S'recommended'
p1246
aI626
aa(lp1247
S'suggests'
p1248
aI627
aa(lp1249
S'markings.'
p1250
aI628
aa(lp1251
S'aorta,'
p1252
aI629
aa(lp1253
S'7th'
p1254
aI630
aa(lp1255
S'moderately'
p1256
aI631
aa(lp1257
S'ribs'
p1258
aI632
aa(lp1259
S'dense'
p1260
aI633
aa(lp1261
S'valve'
p1262
aI634
aa(lp1263
S'vasculature,'
p1264
aI635
aa(lp1265
S'9th'
p1266
aI636
aa(lp1267
S'Changes'
p1268
aI637
aa(lp1269
S'Emphysema.'
p1270
aI638
aa(lp1271
S'cannot'
p1272
aI639
aa(lp1273
S'ventricle.'
p1274
aI640
aa(lp1275
S'convincing'
p1276
aI641
aa(lp1277
S'acute,'
p1278
aI642
aa(lp1279
S'x-XXXX'
p1280
aI643
aa(lp1281
S'peripheral'
p1282
aI644
aa(lp1283
S'adjacent'
p1284
aI645
aa(lp1285
S'atrium'
p1286
aI646
aa(lp1287
S'improved'
p1288
aI647
aa(lp1289
S'reveals'
p1290
aI648
aa(lp1291
S'development'
p1292
aI649
aa(lp1293
S'multilevel'
p1294
aI650
aa(lp1295
S'early'
p1296
aI651
aa(lp1297
S'nipple'
p1298
aI652
aa(lp1299
S'differential'
p1300
aI653
aa(lp1301
S'infectious'
p1302
aI654
aa(lp1303
S'previously'
p1304
aI655
aa(lp1305
S'enlargement.'
p1306
aI656
aa(lp1307
S'Possible'
p1308
aI657
aa(lp1309
S'6'
aI658
aa(lp1310
S'partially'
p1311
aI659
aa(lp1312
S'age..'
p1313
aI660
aa(lp1314
S'outside'
p1315
aI661
aa(lp1316
S'Left-sided'
p1317
aI662
aa(lp1318
S'air.'
p1319
aI663
aa(lp1320
S'lingula.'
p1321
aI664
aa(lp1322
S'overall'
p1323
aI665
aa(lp1324
S'Postsurgical'
p1325
aI666
aa(lp1326
S'possible'
p1327
aI667
aa(lp1328
S'Vascular'
p1329
aI668
aa(lp1330
S'Elevated'
p1331
aI669
aa(lp1332
S'marked'
p1333
aI670
aa(lp1334
S'Trachea'
p1335
aI671
aa(lp1336
S'correlation'
p1337
aI672
aa(lp1338
S'However,'
p1339
aI673
aa(lp1340
S'aerated.'
p1341
aI674
aa(lp1342
S'projection.'
p1343
aI675
aa(lp1344
S'clips.'
p1345
aI676
aa(lp1346
S'breast'
p1347
aI677
aa(lp1348
S'hypertension.'
p1349
aI678
aa(lp1350
S'1'
aI679
aa(lp1351
S'projects'
p1352
aI680
aa(lp1353
S'Slight'
p1354
aI681
aa(lp1355
S'abdominal'
p1356
aI682
aa(lp1357
S'scoliosis'
p1358
aI683
aa(lp1359
S'3'
aI684
aa(lp1360
S'cavitary'
p1361
aI685
aa(lp1362
S'COPD'
p1363
aI686
aa(lp1364
S'kyphosis.'
p1365
aI687
aa(lp1366
S'inferior'
p1367
aI688
aa(lp1368
S'other'
p1369
aI689
aa(lp1370
S'removal'
p1371
aI690
aa(lp1372
S'monitor'
p1373
aI691
aa(lp1374
S'scar'
p1375
aI692
aa(lp1376
S'external'
p1377
aI693
aa(lp1378
S'several'
p1379
aI694
aa(lp1380
S'films'
p1381
aI695
aa(lp1382
S'Correlate'
p1383
aI696
aa(lp1384
S'markings,'
p1385
aI697
aa(lp1386
S'exclude'
p1387
aI698
aa(lp1388
S'retrosternal'
p1389
aI699
aa(lp1390
S'factors'
p1391
aI700
aa(lp1392
S'technical'
p1393
aI701
aa(lp1394
S'diaphragms'
p1395
aI702
aa(lp1396
S'fat'
p1397
aI703
aa(lp1398
S'proximal'
p1399
aI704
aa(lp1400
S'internal'
p1401
aI705
aa(lp1402
S'diameter.'
p1403
aI706
aa(lp1404
S'large.'
p1405
aI707
aa(lp1406
S'calcified.'
p1407
aI708
aa(lp1408
S'remote'
p1409
aI709
aa(lp1410
S'Sternotomy'
p1411
aI710
aa(lp1412
S'lesions'
p1413
aI711
aa(lp1414
S'bodies.'
p1415
aI712
aa(lp1416
S'hypoinflated.'
p1417
aI713
aa(lp1418
S'jugular'
p1419
aI714
aa(lp1420
S'postoperative'
p1421
aI715
aa(lp1422
S'head'
p1423
aI716
aa(lp1424
S'sulcus'
p1425
aI717
aa(lp1426
S'inflammatory'
p1427
aI718
aa(lp1428
S'up'
p1429
aI719
aa(lp1430
S'collapse'
p1431
aI720
aa(lp1432
S'placement'
p1433
aI721
aa(lp1434
S'abnormal'
p1435
aI722
aa(lp1436
S'dilated'
p1437
aI723
aa(lp1438
S'hyperinflation'
p1439
aI724
aa(lp1440
S'infection'
p1441
aI725
aa(lp1442
S'Diffuse'
p1443
aI726
aa(lp1444
S'above'
p1445
aI727
aa(lp1446
S'mass.'
p1447
aI728
aa(lp1448
S'first'
p1449
aI729
aa(lp1450
S'diagnosis'
p1451
aI730
aa(lp1452
S'quadrant.'
p1453
aI731
aa(lp1454
S'better'
p1455
aI732
aa(lp1456
S'elevated'
p1457
aI733
aa(lp1458
S'round'
p1459
aI734
aa(lp1460
S'dextroscoliosis'
p1461
aI735
aa(lp1462
S'contours,'
p1463
aI736
aa(lp1464
S'IJ'
p1465
aI737
aa(lp1466
S'5th'
p1467
aI738
aa(lp1468
S'clavicle.'
p1469
aI739
aa(lp1470
S'fusion'
p1471
aI740
aa(lp1472
S'coronary'
p1473
aI741
aa(lp1474
S'Scoliosis'
p1475
aI742
aa(lp1476
S'visualized.'
p1477
aI743
aa(lp1478
S'position'
p1479
aI744
aa(lp1480
S'atypical'
p1481
aI745
aa(lp1482
S'structures.'
p1483
aI746
aa(lp1484
S'status'
p1485
aI747
aa(lp1486
S'cavoatrial'
p1487
aI748
aa(lp1488
S'CT.'
p1489
aI749
aa(lp1490
S'concern'
p1491
aI750
aa(lp1492
S'recent'
p1493
aI751
aa(lp1494
S'irregular'
p1495
aI752
aa(lp1496
S'hilum.'
p1497
aI753
aa(lp1498
S'widening'
p1499
aI754
aa(lp1500
S'apex,'
p1501
aI755
aa(lp1502
S'foreign'
p1503
aI756
aa(lp1504
S'ascending'
p1505
aI757
aa(lp1506
S'developed'
p1507
aI758
aa(lp1508
S'hyperinflation.'
p1509
aI759
aa(lp1510
S'note'
p1511
aI760
aa(lp1512
S'nodules,'
p1513
aI761
aa(lp1514
S'fissure.'
p1515
aI762
aa(lp1516
S'Followup'
p1517
aI763
aa(lp1518
S'chest,'
p1519
aI764
aa(lp1520
S'hemidiaphragms.'
p1521
aI765
aa(lp1522
S'Mediastinum'
p1523
aI766
aa(lp1524
S'noted,'
p1525
aI767
aa(lp1526
S'dedicated'
p1527
aI768
aa(lp1528
S'8th'
p1529
aI769
aa(lp1530
S'device'
p1531
aI770
aa(lp1532
S'recommend'
p1533
aI771
aa(lp1534
S'well-aerated.'
p1535
aI772
aa(lp1536
S'7'
aI773
aa(lp1537
S'lesion'
p1538
aI774
aa(lp1539
S'however'
p1540
aI775
aa(lp1541
S'spurring'
p1542
aI776
aa(lp1543
S'appropriate'
p1544
aI777
aa(lp1545
S'Severe'
p1546
aI778
aa(lp1547
S'notification'
p1548
aI779
aa(lp1549
S'Primordial.'
p1550
aI780
aa(lp1551
S'obscuration'
p1552
aI781
aa(lp1553
S'lymphadenopathy.'
p1554
aI782
aa(lp1555
S'midline'
p1556
aI783
aa(lp1557
S'demonstrates'
p1558
aI784
aa(lp1559
S'technique,'
p1560
aI785
aa(lp1561
S'Patient'
p1562
aI786
aa(lp1563
S'surgery.'
p1564
aI787
aa(lp1565
S'Abnormal'
p1566
aI788
aa(lp1567
S'hilum'
p1568
aI789
aa(lp1569
S'Lateral'
p1570
aI790
aa(lp1571
S'overlies'
p1572
aI791
aa(lp1573
S'fibrosis'
p1574
aI792
aa(lp1575
S'It'
p1576
aI793
aa(lp1577
S'normal,'
p1578
aI794
aa(lp1579
S'scar.'
p1580
aI795
aa(lp1581
S'improvement'
p1582
aI796
aa(lp1583
S'overlie'
p1584
aI797
aa(lp1585
S'above.'
p1586
aI798
aa(lp1587
S'Slightly'
p1588
aI799
aa(lp1589
S'images'
p1590
aI800
aa(lp1591
S'indicate'
p1592
aI801
aa(lp1593
S'deformity.'
p1594
aI802
aa(lp1595
S'acromioclavicular'
p1596
aI803
aa(lp1597
S'before.'
p1598
aI804
aa(lp1599
S'hyperexpansion'
p1600
aI805
aa(lp1601
S'age-indeterminate'
p1602
aI806
aa(lp1603
S'wedge'
p1604
aI807
aa(lp1605
S'bases,'
p1606
aI808
aa(lp1607
S'evaluate'
p1608
aI809
aa(lp1609
S'elevated.'
p1610
aI810
aa(lp1611
S'epicardial'
p1612
aI811
aa(lp1613
S'film.'
p1614
aI812
aa(lp1615
S'Again'
p1616
aI813
aa(lp1617
S'numerous'
p1618
aI814
aa(lp1619
S'bilaterally,'
p1620
aI815
aa(lp1621
S'emphysema'
p1622
aI816
aa(lp1623
S'sternotomy.'
p1624
aI817
aa(lp1625
S'Focal'
p1626
aI818
aa(lp1627
S'artifact.'
p1628
aI819
aa(lp1629
S'decreased'
p1630
aI820
aa(lp1631
S'measures'
p1632
aI821
aa(lp1633
S'including'
p1634
aI822
aa(lp1635
S'lordotic'
p1636
aI823
aa(lp1637
S'bodies'
p1638
aI824
aa(lp1639
S'increase'
p1640
aI825
aa(lp1641
S'4'
aI826
aa(lp1642
S'less'
p1643
aI827
aa(lp1644
S'kyphosis'
p1645
aI828
aa(lp1646
S'caliber.'
p1647
aI829
aa(lp1648
S'ectasia/tortuosity.'
p1649
aI830
aa(lp1650
S'vein.'
p1651
aI831
aa(lp1652
S'arthritic'
p1653
aI832
aa(lp1654
S'generator'
p1655
aI833
aa(lp1656
S'worse'
p1657
aI834
aa(lp1658
S'scarring,'
p1659
aI835
aa(lp1660
S'Extensive'
p1661
aI836
aa(lp1662
S'gross'
p1663
aI837
aa(lp1664
S'subdiaphragmatic'
p1665
aI838
aa(lp1666
S'Cardiomegaly,'
p1667
aI839
aa(lp1668
S'removed.'
p1669
aI840
aa(lp1670
S'quadrant'
p1671
aI841
aa(lp1672
S'atherosclerotic.'
p1673
aI842
aa(lp1674
S'Critical'
p1675
aI843
aa(lp1676
S'pattern'
p1677
aI844
aa(lp1678
S'rounded'
p1679
aI845
aa(lp1680
S'wedging'
p1681
aI846
aa(lp1682
S'partial'
p1683
aI847
aa(lp1684
S'excluded'
p1685
aI848
aa(lp1686
S'knee.'
p1687
aI849
aa(lp1688
S'discrete'
p1689
aI850
aa(lp1690
S'calcific'
p1691
aI851
aa(lp1692
S'Bronchovascular'
p1693
aI852
aa(lp1694
S'result'
p1695
aI853
aa(lp1696
S'healing'
p1697
aI854
aa(lp1698
S'Grossly'
p1699
aI855
aa(lp1700
S'irregularity'
p1701
aI856
aa(lp1702
S'document'
p1703
aI857
aa(lp1704
S'suprahilar'
p1705
aI858
aa(lp1706
S'pleural-parenchymal'
p1707
aI859
aa(lp1708
S'destructive'
p1709
aI860
aa(lp1710
S'interval,'
p1711
aI861
aa(lp1712
S'high'
p1713
aI862
aa(lp1714
S'osteophyte'
p1715
aI863
aa(lp1716
S'cystic'
p1717
aI864
aa(lp1718
S'described'
p1719
aI865
aa(lp1720
S'Sequelae'
p1721
aI866
aa(lp1722
S'questionable'
p1723
aI867
aa(lp1724
S'arteries.'
p1725
aI868
aa(lp1726
S'these'
p1727
aI869
aa(lp1728
S'midlung,'
p1729
aI870
aa(lp1730
S'Blunting'
p1731
aI871
aa(lp1732
S'Stable,'
p1733
aI872
aa(lp1734
S'Further'
p1735
aI873
aa(lp1736
S'ill-defined'
p1737
aI874
aa(lp1738
S'comparison.'
p1739
aI875
aa(lp1740
S'Overall'
p1741
aI876
aa(lp1742
S'subtle'
p1743
aI877
aa(lp1744
S'diameter'
p1745
aI878
aa(lp1746
S'artifact'
p1747
aI879
aa(lp1748
S'developing'
p1749
aI880
aa(lp1750
S'Two'
p1751
aI881
aa(lp1752
S'Marked'
p1753
aI882
aa(lp1754
S'ectasia'
p1755
aI883
aa(lp1756
S'exam,'
p1757
aI884
aa(lp1758
S'unfolding'
p1759
aI885
aa(lp1760
S'age-indeterminate.'
p1761
aI886
aa(lp1762
S'Enlarged'
p1763
aI887
aa(lp1764
S'zone'
p1765
aI888
aa(lp1766
S'failure'
p1767
aI889
aa(lp1768
S'expected'
p1769
aI890
aa(lp1770
S'Please'
p1771
aI891
aa(lp1772
S'confirm'
p1773
aI892
aa(lp1774
S'extensive'
p1775
aI893
aa(lp1776
S'opacification'
p1777
aI894
aa(lp1778
S'Considering'
p1779
aI895
aa(lp1780
S'healed'
p1781
aI896
aa(lp1782
S'basal'
p1783
aI897
aa(lp1784
S'diaphragms.'
p1785
aI898
aa(lp1786
S'tuberculous'
p1787
aI899
aa(lp1788
S'Right-sided'
p1789
aI900
aa(lp1790
S'noncalcified'
p1791
aI901
aa(lp1792
S'hemithorax'
p1793
aI902
aa(lp1794
S'habitus.'
p1795
aI903
aa(lp1796
S'vague'
p1797
aI904
aa(lp1798
S'apices.'
p1799
aI905
aa(lp1800
S'Consider'
p1801
aI906
aa(lp1802
S'indicated.'
p1803
aI907
aa(lp1804
S'stomach'
p1805
aI908
aa(lp1806
S'Improved'
p1807
aI909
aa(lp1808
S'its'
p1809
aI910
aa(lp1810
S'sized'
p1811
aI911
aa(lp1812
S'helpful.'
p1813
aI912
aa(lp1814
S'Continued'
p1815
aI913
aa(lp1816
S'projected'
p1817
aI914
aa(lp1818
S'inspiratory'
p1819
aI915
aa(lp1820
S'bandlike'
p1821
aI916
aa(lp1822
S'shows'
p1823
aI917
aa(lp1824
S'overlapping'
p1825
aI918
aa(lp1826
S'relatively'
p1827
aI919
aa(lp1828
S'study,'
p1829
aI920
aa(lp1830
S'CABG'
p1831
aI921
aa(lp1832
S'documented'
p1833
aI922
aa(lp1834
S'neck'
p1835
aI923
aa(lp1836
S'slight'
p1837
aI924
aa(lp1838
S'Tracheostomy'
p1839
aI925
aa(lp1840
S'blunted.'
p1841
aI926
aa(lp1842
S'consolidations,'
p1843
aI927
aa(lp1844
S'cholecystectomy.'
p1845
aI928
aa(lp1846
S'redemonstration'
p1847
aI929
aa(lp1848
S'rib,'
p1849
aI930
aa(lp1850
S'complete'
p1851
aI931
aa(lp1852
S'atelectasis/airspace'
p1853
aI932
aa(lp1854
S'only'
p1855
aI933
aa(lp1856
S'scan.'
p1857
aI934
aa(lp1858
S'trapping'
p1859
aI935
aa(lp1860
S'Osteopenia'
p1861
aI936
aa(lp1862
S'fixation'
p1863
aI937
aa(lp1864
S'dual-lumen'
p1865
aI938
aa(lp1866
S'correlate'
p1867
aI939
aa(lp1868
S'formation'
p1869
aI940
aa(lp1870
S'cortical'
p1871
aI941
aa(lp1872
S'infrahilar'
p1873
aI942
aa(lp1874
S'appreciated'
p1875
aI943
aa(lp1876
S'focus'
p1877
aI944
aa(lp1878
S'carina.'
p1879
aI945
aa(lp1880
S'Compared'
p1881
aI946
aa(lp1882
S'characterization.'
p1883
aI947
aa(lp1884
S'coarse'
p1885
aI948
aa(lp1886
S'Redemonstration'
p1887
aI949
aa(lp1888
S'Exaggerated'
p1889
aI950
aa(lp1890
S'terminating'
p1891
aI951
aa(lp1892
S'pacemaker'
p1893
aI952
aa(lp1894
S"today's"
p1895
aI953
aa(lp1896
S'accentuated'
p1897
aI954
aa(lp1898
S'zone.'
p1899
aI955
aa(lp1900
S'bypass'
p1901
aI956
aa(lp1902
S'injury'
p1903
aI957
aa(lp1904
S'arteries'
p1905
aI958
aa(lp1906
S'blunted'
p1907
aI959
aa(lp1908
S'caval'
p1909
aI960
aa(lp1910
S'nodule,'
p1911
aI961
aa(lp1912
S'ectatic'
p1913
aI962
aa(lp1914
S'left,'
p1915
aI963
aa(lp1916
S'prominence.'
p1917
aI964
aa(lp1918
S'ensure'
p1919
aI965
aa(lp1920
S'Granulomatous'
p1921
aI966
aa(lp1922
S'fractures,'
p1923
aI967
aa(lp1924
S'differences'
p1925
aI968
aa(lp1926
S'catheter.'
p1927
aI969
aa(lp1928
S'setting'
p1929
aI970
aa(lp1930
S'confluent'
p1931
aI971
aa(lp1932
S'node.'
p1933
aI972
aa(lp1934
S'location'
p1935
aI973
aa(lp1936
S'atherosclerosis.'
p1937
aI974
aa(lp1938
S'Chest:'
p1939
aI975
aa(lp1940
S'includes'
p1941
aI976
aa(lp1942
S'infection,'
p1943
aI977
aa(lp1944
S'treatment'
p1945
aI978
aa(lp1946
S'osseus'
p1947
aI979
aa(lp1948
S'fat.'
p1949
aI980
aa(lp1950
S'eventration.'
p1951
aI981
aa(lp1952
S'fourth'
p1953
aI982
aa(lp1954
S'bullous'
p1955
aI983
aa(lp1956
S'primary'
p1957
aI984
aa(lp1958
S'lobes'
p1959
aI985
aa(lp1960
S'cm.'
p1961
aI986
aa(lp1962
S'Age-indeterminate'
p1963
aI987
aa(lp1964
S'studies'
p1965
aI988
aa(lp1966
S'loops'
p1967
aI989
aa(lp1968
S'collection'
p1969
aI990
aa(lp1970
S'worsening'
p1971
aI991
aa(lp1972
S'pneumoperitoneum.'
p1973
aI992
aa(lp1974
S'hyperinflated.'
p1975
aI993
aa(lp1976
S'platelike'
p1977
aI994
aa(lp1978
S'seen,'
p1979
aI995
aa(lp1980
S'deformities.'
p1981
aI996
aa(lp1982
S'incompletely'
p1983
aI997
aa(lp1984
S'changes,'
p1985
aI998
aa(lp1986
S'obtained'
p1987
aI999
aa(lp1988
S'Eventration'
p1989
aI1000
aa(lp1990
S'senescent'
p1991
aI1001
aa(lp1992
S'fullness'
p1993
aI1002
aa(lp1994
S'stent'
p1995
aI1003
aa(lp1996
S'following'
p1997
aI1004
aa(lp1998
S'spine,'
p1999
aI1005
aa(lp2000
S'fracture,'
p2001
aI1006
aa(lp2002
S'Lumbar'
p2003
aI1007
aa(lp2004
S'8'
aI1008
aa(lp2005
S'uncertain'
p2006
aI1009
aa(lp2007
S'tissues.'
p2008
aI1010
aa(lp2009
S'discussed'
p2010
aI1011
aa(lp2011
S'axillary'
p2012
aI1012
aa(lp2013
S'rotation.'
p2014
aI1013
aa(lp2015
S'Biapical'
p2016
aI1014
aa(lp2017
S'bullet'
p2018
aI1015
aa(lp2019
S'predominantly'
p2020
aI1016
aa(lp2021
S'replacement.'
p2022
aI1017
aa(lp2023
S'indistinct'
p2024
aI1018
aa(lp2025
S'prominent.'
p2026
aI1019
aa(lp2027
S'shadows'
p2028
aI1020
aa(lp2029
S'Fracture'
p2030
aI1021
aa(lp2031
S'crowding,'
p2032
aI1022
aa(lp2033
S'obscured'
p2034
aI1023
aa(lp2035
S'performed'
p2036
aI1024
aa(lp2037
S'Evaluation'
p2038
aI1025
aa(lp2039
S'Cholecystectomy'
p2040
aI1026
aa(lp2041
S'Bone'
p2042
aI1027
aa(lp2043
S'joints'
p2044
aI1028
aa(lp2045
S'dislocations.'
p2046
aI1029
aa(lp2047
S'scoliosis.'
p2048
aI1030
aa(lp2049
S'fibrotic'
p2050
aI1031
aa(lp2051
S'Evidence'
p2052
aI1032
aa(lp2053
S'difficult'
p2054
aI1033
aa(lp2055
S'between'
p2056
aI1034
aa(lp2057
S'collections.'
p2058
aI1035
aa(lp2059
S'etiology'
p2060
aI1036
aa(lp2061
S'causing'
p2062
aI1037
aa(lp2063
S'tracheostomy'
p2064
aI1038
aa(lp2065
S'Exam'
p2066
aI1039
aa(lp2067
S'decubitus'
p2068
aI1040
aa(lp2069
S'diminished'
p2070
aI1041
aa(lp2071
S'pneumonitis.'
p2072
aI1042
aa(lp2073
S'density.'
p2074
aI1043
aa(lp2075
S'azygos'
p2076
aI1044
aa(lp2077
S'additional'
p2078
aI1045
aa(lp2079
S'evaluated'
p2080
aI1046
aa(lp2081
S'sclerotic'
p2082
aI1047
aa(lp2083
S'stent.'
p2084
aI1048
aa(lp2085
S'airspace.'
p2086
aI1049
aa(lp2087
S'levoscoliosis'
p2088
aI1050
aa(lp2089
S'engorged.'
p2090
aI1051
aa(lp2091
S'favored'
p2092
aI1052
aa(lp2093
S'fissure'
p2094
aI1053
aa(lp2095
S'Negative.'
p2096
aI1054
aa(lp2097
S'Costophrenic'
p2098
aI1055
aa(lp2099
S'Interstitial'
p2100
aI1056
aa(lp2101
S'fusion.'
p2102
aI1057
aa(lp2103
S'posttraumatic'
p2104
aI1058
aa(lp2105
S'tubing'
p2106
aI1059
aa(lp2107
S'humerus.'
p2108
aI1060
aa(lp2109
S'two'
p2110
aI1061
aa(lp2111
S'include'
p2112
aI1062
aa(lp2113
S'Status'
p2114
aI1063
aa(lp2115
S'lingula'
p2116
aI1064
aa(lp2117
S'weeks'
p2118
aI1065
aa(lp2119
S'Dense'
p2120
aI1066
aa(lp2121
S'infiltrates,'
p2122
aI1067
aa(lp2123
S'hyperexpansion.'
p2124
aI1068
aa(lp2125
S'Postoperative'
p2126
aI1069
aa(lp2127
S'junction'
p2128
aI1070
aa(lp2129
S'obvious'
p2130
aI1071
aa(lp2131
S'extremity'
p2132
aI1072
aa(lp2133
S'portions'
p2134
aI1073
aa(lp2135
S'hypoinflation'
p2136
aI1074
aa(lp2137
S'appreciated.'
p2138
aI1075
aa(lp2139
S'should'
p2140
aI1076
aa(lp2141
S'warranted.'
p2142
aI1077
aa(lp2143
S'available,'
p2144
aI1078
aa(lp2145
S'active/acute'
p2146
aI1079
aa(lp2147
S'Decreased'
p2148
aI1080
aa(lp2149
S'evaluated.'
p2150
aI1081
aa(lp2151
S'rotated.'
p2152
aI1082
aa(lp2153
S'shift.'
p2154
aI1083
aa(lp2155
S'clinically.'
p2156
aI1084
aa(lp2157
S'vertebra.'
p2158
aI1085
aa(lp2159
S'mitral'
p2160
aI1086
aa(lp2161
S'nonspecific'
p2162
aI1087
aa(lp2163
S'Lower'
p2164
aI1088
aa(lp2165
S'finding'
p2166
aI1089
aa(lp2167
S'studies.'
p2168
aI1090
aa(lp2169
S'TB.'
p2170
aI1091
aa(lp2171
S'tips'
p2172
aI1092
aa(lp2173
S'Overall,'
p2174
aI1093
aa(lp2175
S'Similar'
p2176
aI1094
aa(lp2177
S'approximating'
p2178
aI1095
aa(lp2179
S'tenderness.'
p2180
aI1096
aa(lp2181
S'head.'
p2182
aI1097
aa(lp2183
S'Dr.'
p2184
aI1098
aa(lp2185
S'hypoventilation'
p2186
aI1099
aa(lp2187
S'ectatic.'
p2188
aI1100
aa(lp2189
S'Ill-defined'
p2190
aI1101
aa(lp2191
S'May'
p2192
aI1102
aa(lp2193
S'silhouettes.'
p2194
aI1103
aa(lp2195
S'Bandlike'
p2196
aI1104
aa(lp2197
S'Apical'
p2198
aI1105
aa(lp2199
S'addition,'
p2200
aI1106
aa(lp2201
S'An'
p2202
aI1107
aa(lp2203
S'consolidative'
p2204
aI1108
aa(lp2205
S'Basilar'
p2206
aI1109
aa(lp2207
S'prominence,'
p2208
aI1110
aa(lp2209
S'Dextroscoliosis'
p2210
aI1111
aa(lp2211
S'does'
p2212
aI1112
aa(lp2213
S'atelectatic'
p2214
aI1113
aa(lp2215
S'region,'
p2216
aI1114
aa(lp2217
S'Pectus'
p2218
aI1115
aa(lp2219
S'projection'
p2220
aI1116
aa(lp2221
S'arterial'
p2222
aI1117
aa(lp2223
S'Acute'
p2224
aI1118
aa(lp2225
S'film'
p2226
aI1119
aa(lp2227
S'thorax.'
p2228
aI1120
aa(lp2229
S'opacification.'
p2230
aI1121
aa(lp2231
S'hours'
p2232
aI1122
aa(lp2233
S'clips,'
p2234
aI1123
aa(lp2235
S'alignment'
p2236
aI1124
aa(lp2237
S'ventricular'
p2238
aI1125
aa(lp2239
S'8mm'
p2240
aI1126
aa(lp2241
S'well.'
p2242
aI1127
aa(lp2243
S'sarcoidosis.'
p2244
aI1128
aa(lp2245
S'Note'
p2246
aI1129
aa(lp2247
S'Previously'
p2248
aI1130
aa(lp2249
S'hip'
p2250
aI1131
aa(lp2251
S'CHF.'
p2252
aI1132
aa(lp2253
S'cardiothoracic'
p2254
aI1133
aa(lp2255
S'consolidations'
p2256
aI1134
aa(lp2257
S'history.'
p2258
aI1135
aa(lp2259
S'apices'
p2260
aI1136
aa(lp2261
S'Abdomen.'
p2262
aI1137
aa(lp2263
S'asymmetric'
p2264
aI1138
aa(lp2265
S'Rotated'
p2266
aI1139
aa(lp2267
S'femoral'
p2268
aI1140
aa(lp2269
S'node'
p2270
aI1141
aa(lp2271
S'single'
p2272
aI1142
aa(lp2273
S'Upper'
p2274
aI1143
aa(lp2275
S'symmetric'
p2276
aI1144
aa(lp2277
S'dextrocurvature'
p2278
aI1145
aa(lp2279
S'combination'
p2280
aI1146
aa(lp2281
S'humerus'
p2282
aI1147
aa(lp2283
S'Prominence'
p2284
aI1148
aa(lp2285
S'Midline'
p2286
aI1149
aa(lp2287
S'S-shaped'
p2288
aI1150
aa(lp2289
S'stability.'
p2290
aI1151
aa(lp2291
S'Opacity'
p2292
aI1152
aa(lp2293
S'well-inflated'
p2294
aI1153
aa(lp2295
S'XXXX-A-XXXX'
p2296
aI1154
aa(lp2297
S'question'
p2298
aI1155
aa(lp2299
S'after'
p2300
aI1156
aa(lp2301
S'catheter,'
p2302
aI1157
aa(lp2303
S'exaggerated'
p2304
aI1158
aa(lp2305
S'below'
p2306
aI1159
aa(lp2307
S'subcutaneous'
p2308
aI1160
aa(lp2309
S'Suspected'
p2310
aI1161
aa(lp2311
S'Very'
p2312
aI1162
aa(lp2313
S'pattern.'
p2314
aI1163
aa(lp2315
S'obstruction.'
p2316
aI1164
aa(lp2317
S'Redemonstrated'
p2318
aI1165
aa(lp2319
S'spinal'
p2320
aI1166
aa(lp2321
S'remainder'
p2322
aI1167
aa(lp2323
S'sutures'
p2324
aI1168
aa(lp2325
S'corresponding'
p2326
aI1169
aa(lp2327
S'disease..'
p2328
aI1170
aa(lp2329
S'Subtle'
p2330
aI1171
aa(lp2331
S'portion'
p2332
aI1172
aa(lp2333
S'Clips'
p2334
aI1173
aa(lp2335
S'see'
p2336
aI1174
aa(lp2337
S'remaining'
p2338
aI1175
aa(lp2339
S'apparent'
p2340
aI1176
aa(lp2341
S'/'
aI1177
aa(lp2342
S'aerated'
p2343
aI1178
aa(lp2344
S'granulomata'
p2345
aI1179
aa(lp2346
S'ventricle,'
p2347
aI1180
aa(lp2348
S'now'
p2349
aI1181
aa(lp2350
S'shadows.'
p2351
aI1182
aa(lp2352
S'widened'
p2353
aI1183
aa(lp2354
S'T12.'
p2355
aI1184
aa(lp2356
S'ribs,'
p2357
aI1185
aa(lp2358
S'relative'
p2359
aI1186
aa(lp2360
S'however,'
p2361
aI1187
aa(lp2362
S'Relative'
p2363
aI1188
aa(lp2364
S'kyphotic'
p2365
aI1189
aa(lp2366
S'part'
p2367
aI1190
aa(lp2368
S'negative'
p2369
aI1191
aa(lp2370
S'splenic'
p2371
aI1192
aa(lp2372
S'Calcific'
p2373
aI1193
aa(lp2374
S'aneurysm'
p2375
aI1194
aa(lp2376
S'placed'
p2377
aI1195
aa(lp2378
S'Deformity'
p2379
aI1196
aa(lp2380
S'greatest'
p2381
aI1197
aa(lp2382
S'rightward'
p2383
aI1198
aa(lp2384
S'resection'
p2385
aI1199
aa(lp2386
S'lobectomy.'
p2387
aI1200
aa(lp2388
S'maintained.'
p2389
aI1201
aa(lp2390
S'radiopaque'
p2391
aI1202
aa(lp2392
S'reactive'
p2393
aI1203
aa(lp2394
S'space.'
p2395
aI1204
aa(lp2396
S'imaging.'
p2397
aI1205
aa(lp2398
S'trachea.'
p2399
aI1206
aa(lp2400
S'views.'
p2401
aI1207
aa(lp2402
S'pectus'
p2403
aI1208
aa(lp2404
S'Incidental'
p2405
aI1209
aa(lp2406
S'can'
p2407
aI1210
aa(lp2408
S'Unchanged.'
p2409
aI1211
aa(lp2410
S'this.'
p2411
aI1212
aa(lp2412
S'wall.'
p2413
aI1213
aa(lp2414
S'margin'
p2415
aI1214
aa(lp2416
S'presence'
p2417
aI1215
aa(lp2418
S'lines'
p2419
aI1216
aa(lp2420
S'determine'
p2421
aI1217
aa(lp2422
S'sulci'
p2423
aI1218
aa(lp2424
S'negative.'
p2425
aI1219
aa(lp2426
S'level.'
p2427
aI1220
aa(lp2428
S'Within'
p2429
aI1221
aa(lp2430
S'T9'
p2431
aI1222
aa(lp2432
S'characteristic'
p2433
aI1223
aa(lp2434
S'disease/atelectasis.'
p2435
aI1224
aa(lp2436
S'10'
p2437
aI1225
aa(lp2438
S'resolved'
p2439
aI1226
aa(lp2440
S'clavicle,'
p2441
aI1227
aa(lp2442
S'hyperinflated,'
p2443
aI1228
aa(lp2444
S'cardio'
p2445
aI1229
aa(lp2446
S'evaluate.'
p2447
aI1230
aa(lp2448
S'it'
p2449
aI1231
aa(lp2450
S'narrowing'
p2451
aI1232
aa(lp2452
S'periphery'
p2453
aI1233
aa(lp2454
S'tunneled'
p2455
aI1234
aa(lp2456
S'dialysis'
p2457
aI1235
aa(lp2458
S'curvilinear'
p2459
aI1236
aa(lp2460
S'entirely'
p2461
aI1237
aa(lp2462
S'tortuous,'
p2463
aI1238
aa(lp2464
S'screw'
p2465
aI1239
aa(lp2466
S'notified'
p2467
aI1240
aa(lp2468
S'spine..'
p2469
aI1241
aa(lp2470
S'scoliotic'
p2471
aI1242
aa(lp2472
S'collection.'
p2473
aI1243
aa(lp2474
S'1.5'
p2475
aI1244
aa(lp2476
S'nondisplaced'
p2477
aI1245
aa(lp2478
S'axilla.'
p2479
aI1246
aa(lp2480
S'renal'
p2481
aI1247
aa(lp2482
S'cancer.'
p2483
aI1248
aa(lp2484
S'suggestion'
p2485
aI1249
aa(lp2486
S'subpleural'
p2487
aI1250
aa(lp2488
S'colonic'
p2489
aI1251
aa(lp2490
S"There's"
p2491
aI1252
aa(lp2492
S'Apparent'
p2493
aI1253
aa(lp2494
S'neck.'
p2495
aI1254
aa(lp2496
S'diffusely'
p2497
aI1255
aa(lp2498
S'reflecting'
p2499
aI1256
aa(lp2500
S'continued'
p2501
aI1257
aa(lp2502
S'very'
p2503
aI1258
aa(lp2504
S'Hyperlucent'
p2505
aI1259
aa(lp2506
S'cholecystectomy'
p2507
aI1260
aa(lp2508
S'Healed'
p2509
aI1261
aa(lp2510
S'Three'
p2511
aI1262
aa(lp2512
S'larger'
p2513
aI1263
aa(lp2514
S'tortuosity.'
p2515
aI1264
aa(lp2516
S'aspiration.'
p2517
aI1265
aa(lp2518
S'supine'
p2519
aI1266
aa(lp2520
S'airways.'
p2521
aI1267
aa(lp2522
S'dextroscoliosis.'
p2523
aI1268
aa(lp2524
S'dislocation.'
p2525
aI1269
aa(lp2526
S'about'
p2527
aI1270
aa(lp2528
S'Retrocardiac'
p2529
aI1271
aa(lp2530
S'Questionable'
p2531
aI1272
aa(lp2532
S'follow'
p2533
aI1273
aa(lp2534
S'On'
p2535
aI1274
aa(lp2536
S'layering'
p2537
aI1275
aa(lp2538
S'please'
p2539
aI1276
aa(lp2540
S'well-seen'
p2541
aI1277
aa(lp2542
S'loculated'
p2543
aI1278
aa(lp2544
S'structure'
p2545
aI1279
aa(lp2546
S'mastectomy.'
p2547
aI1280
aa(lp2548
S'patient.'
p2549
aI1281
aa(lp2550
S'largest'
p2551
aI1282
aa(lp2552
S'hernia,'
p2553
aI1283
aa(lp2554
S'like'
p2555
aI1284
aa(lp2556
S'dextro'
p2557
aI1285
aa(lp2558
S'mass,'
p2559
aI1286
aa(lp2560
S'sided'
p2561
aI1287
aa(lp2562
S'thickening,'
p2563
aI1288
aa(lp2564
S'stool'
p2565
aI1289
aa(lp2566
S'intravenous'
p2567
aI1290
aa(lp2568
S'colon.'
p2569
aI1291
aa(lp2570
S'enlargement,'
p2571
aI1292
aa(lp2572
S'demineralization.'
p2573
aI1293
aa(lp2574
S'Hyperexpansion'
p2575
aI1294
aa(lp2576
S'increased.'
p2577
aI1295
aa(lp2578
S'discoid'
p2579
aI1296
aa(lp2580
S'particularly'
p2581
aI1297
aa(lp2582
S'although'
p2583
aI1298
aa(lp2584
S'indicated'
p2585
aI1299
aa(lp2586
S'AICD'
p2587
aI1300
aa(lp2588
S'brachiocephalic'
p2589
aI1301
aa(lp2590
S'Rounded'
p2591
aI1302
aa(lp2592
S'total'
p2593
aI1303
aa(lp2594
S'IV'
p2595
aI1304
aa(lp2596
S'fragment'
p2597
aI1305
aa(lp2598
S'time'
p2599
aI1306
aa(lp2600
S'dislocation'
p2601
aI1307
aa(lp2602
S'hyperinflation,'
p2603
aI1308
aa(lp2604
S'hemidiaphragm,'
p2605
aI1309
aa(lp2606
S'glenoid'
p2607
aI1310
aa(lp2608
S'rotator'
p2609
aI1311
aa(lp2610
S'aspiration,'
p2611
aI1312
aa(lp2612
S'image'
p2613
aI1313
aa(lp2614
S'retraction.'
p2615
aI1314
aa(lp2616
S'masses,'
p2617
aI1315
aa(lp2618
S'air-fluid'
p2619
aI1316
aa(lp2620
S'hilum,'
p2621
aI1317
aa(lp2622
S'Consolidation'
p2623
aI1318
aa(lp2624
S'radiographs.'
p2625
aI1319
aa(lp2626
S'Calcification'
p2627
aI1320
aa(lp2628
S'T6,'
p2629
aI1321
aa(lp2630
S'markedly'
p2631
aI1322
aa(lp2632
S'ovoid'
p2633
aI1323
aa(lp2634
S'hemidiaphragms,'
p2635
aI1324
aa(lp2636
S'lesion.'
p2637
aI1325
aa(lp2638
S'Irregular'
p2639
aI1326
aa(lp2640
S'hemithorax.'
p2641
aI1327
aa(lp2642
S'available.'
p2643
aI1328
aa(lp2644
S'quality'
p2645
aI1329
aa(lp2646
S'ectasia/tortuosity,'
p2647
aI1330
aa(lp2648
S'reticular'
p2649
aI1331
aa(lp2650
S'increasing'
p2651
aI1332
aa(lp2652
S'congestive'
p2653
aI1333
aa(lp2654
S'1.2'
p2655
aI1334
aa(lp2656
S'External'
p2657
aI1335
aa(lp2658
S'Worsening'
p2659
aI1336
aa(lp2660
S'terminates'
p2661
aI1337
aa(lp2662
S'stimulator'
p2663
aI1338
aa(lp2664
S'lingula,'
p2665
aI1339
aa(lp2666
S'shift'
p2667
aI1340
aa(lp2668
S'courses'
p2669
aI1341
aa(lp2670
S'notable'
p2671
aI1342
aa(lp2672
S'SVC'
p2673
aI1343
aa(lp2674
S'Calcifications'
p2675
aI1344
aa(lp2676
S'obscure'
p2677
aI1345
aa(lp2678
S'completely'
p2679
aI1346
aa(lp2680
S'overlap'
p2681
aI1347
aa(lp2682
S'hemidiaphragms'
p2683
aI1348
aa(lp2684
S'closure'
p2685
aI1349
aa(lp2686
S'clavicular'
p2687
aI1350
aa(lp2688
S'peribronchial'
p2689
aI1351
aa(lp2690
S'reticulonodular'
p2691
aI1352
aa(lp2692
S'shape.'
p2693
aI1353
aa(lp2694
S'pneumothorax..'
p2695
aI1354
aa(lp2696
S'gastroesophageal'
p2697
aI1355
aa(lp2698
S'marginal'
p2699
aI1356
aa(lp2700
S'Numerous'
p2701
aI1357
aa(lp2702
S'body,'
p2703
aI1358
aa(lp2704
S'joints.'
p2705
aI1359
aa(lp2706
S'containing'
p2707
aI1360
aa(lp2708
S'T10'
p2709
aI1361
aa(lp2710
S'Coronary'
p2711
aI1362
aa(lp2712
S'margination.'
p2713
aI1363
aa(lp2714
S'hyperlucency'
p2715
aI1364
aa(lp2716
S'whose'
p2717
aI1365
aa(lp2718
S'Hiatal'
p2719
aI1366
aa(lp2720
S'pneumomediastinum.'
p2721
aI1367
aa(lp2722
S'granuloma,'
p2723
aI1368
aa(lp2724
S'neoplasm.'
p2725
aI1369
aa(lp2726
S'pelvis.'
p2727
aI1370
aa(lp2728
S'CHEST.'
p2729
aI1371
aa(lp2730
S'bronchiectasis,'
p2731
aI1372
aa(lp2732
S'Dilated'
p2733
aI1373
aa(lp2734
S'absence'
p2735
aI1374
aa(lp2736
S'well-expanded'
p2737
aI1375
aa(lp2738
S'characterized'
p2739
aI1376
aa(lp2740
S'Tortuosity'
p2741
aI1377
aa(lp2742
S'pleura,'
p2743
aI1378
aa(lp2744
S'lesions.'
p2745
aI1379
aa(lp2746
S'glenoid,'
p2747
aI1380
aa(lp2748
S'rotated'
p2749
aI1381
aa(lp2750
S'examinations.'
p2751
aI1382
aa(lp2752
S'hyperlucent'
p2753
aI1383
aa(lp2754
S'costochondral'
p2755
aI1384
aa(lp2756
S'benign'
p2757
aI1385
aa(lp2758
S'bronchitis.'
p2759
aI1386
aa(lp2760
S'4th'
p2761
aI1387
aa(lp2762
S'glenohumeral'
p2763
aI1388
aa(lp2764
S'oblique'
p2765
aI1389
aa(lp2766
S'satisfactory'
p2767
aI1390
aa(lp2768
S'Osteopenia.'
p2769
aI1391
aa(lp2770
S'callus'
p2771
aI1392
aa(lp2772
S'Scarring'
p2773
aI1393
aa(lp2774
S'For'
p2775
aI1394
aa(lp2776
S'transverse'
p2777
aI1395
aa(lp2778
S'tube.'
p2779
aI1396
aa(lp2780
S'knee'
p2781
aI1397
aa(lp2782
S'examinations'
p2783
aI1398
aa(lp2784
S'femur'
p2785
aI1399
aa(lp2786
S'oriented'
p2787
aI1400
aa(lp2788
S'sulci.'
p2789
aI1401
aa(lp2790
S'prosthetic'
p2791
aI1402
aa(lp2792
S'background'
p2793
aI1403
aa(lp2794
S'redemonstrated.'
p2795
aI1404
aa(lp2796
S'malignancy.'
p2797
aI1405
aa(lp2798
S'posterolateral'
p2799
aI1406
aa(lp2800
S'irregularities'
p2801
aI1407
aa(lp2802
S'ankle.'
p2803
aI1408
aa(lp2804
S'radiographically'
p2805
aI1409
aa(lp2806
S'Increasing'
p2807
aI1410
aa(lp2808
S'XXXX-a-XXXX'
p2809
aI1411
aa(lp2810
S'cavity.'
p2811
aI1412
aa(lp2812
S'Appearance'
p2813
aI1413
aa(lp2814
S'elevation.'
p2815
aI1414
aa(lp2816
S'though'
p2817
aI1415
aa(lp2818
S'thoracotomy'
p2819
aI1416
aa(lp2820
S'loss.'
p2821
aI1417
aa(lp2822
S'bilaterally.There'
p2823
aI1418
aa(lp2824
S'graft'
p2825
aI1419
aa(lp2826
S'third'
p2827
aI1420
aa(lp2828
S'DISH.'
p2829
aI1421
aa(lp2830
S'clearing'
p2831
aI1422
aa(lp2832
S'traumatic'
p2833
aI1423
aa(lp2834
S'decrease'
p2835
aI1424
aa(lp2836
S'Decreasing'
p2837
aI1425
aa(lp2838
S'reflects'
p2839
aI1426
aa(lp2840
S'Correlation'
p2841
aI1427
aa(lp2842
S'ventricle'
p2843
aI1428
aa(lp2844
S'Contrast'
p2845
aI1429
aa(lp2846
S'hiatus'
p2847
aI1430
aa(lp2848
S'thin'
p2849
aI1431
aa(lp2850
S'innominate'
p2851
aI1432
aa(lp2852
S'Hyperinflation'
p2853
aI1433
aa(lp2854
S'arthritis.'
p2855
aI1434
aa(lp2856
S'advanced'
p2857
aI1435
aa(lp2858
S'bronchi'
p2859
aI1436
aa(lp2860
S'series.'
p2861
aI1437
aa(lp2862
S'atherosclerosis'
p2863
aI1438
aa(lp2864
S'recess'
p2865
aI1439
aa(lp2866
S'located'
p2867
aI1440
aa(lp2868
S'elements'
p2869
aI1441
aa(lp2870
S'shunt'
p2871
aI1442
aa(lp2872
S'consolidating'
p2873
aI1443
aa(lp2874
S'exams.'
p2875
aI1444
aa(lp2876
S'abdomen,'
p2877
aI1445
aa(lp2878
S'unfolded.'
p2879
aI1446
aa(lp2880
S'1.4'
p2881
aI1447
aa(lp2882
S'posteriorly'
p2883
aI1448
aa(lp2884
S'decreased.'
p2885
aI1449
aa(lp2886
S'Advanced'
p2887
aI1450
aa(lp2888
S'destruction.'
p2889
aI1451
aa(lp2890
S'identified..'
p2891
aI1452
aa(lp2892
S'Resolution'
p2893
aI1453
aa(lp2894
S'motion'
p2895
aI1454
aa(lp2896
S'posteriorly.'
p2897
aI1455
aa(lp2898
S'T11'
p2899
aI1456
aa(lp2900
S'Cannot'
p2901
aI1457
aa(lp2902
S'defibrillator'
p2903
aI1458
aa(lp2904
S'XXXX/XXXX.'
p2905
aI1459
aa(lp2906
S'scarring/atelectasis.'
p2907
aI1460
aa(lp2908
S'fibronodular'
p2909
aI1461
aa(lp2910
S'Remainder'
p2911
aI1462
aa(lp2912
S'definitely'
p2913
aI1463
aa(lp2914
S'atelectasis..'
p2915
aI1464
aa(lp2916
S'Endotracheal'
p2917
aI1465
aa(lp2918
S'horizontal'
p2919
aI1466
aa(lp2920
S'circular'
p2921
aI1467
aa(lp2922
S'Mid'
p2923
aI1468
aa(lp2924
S'followed'
p2925
aI1469
aa(lp2926
S'Partially'
p2927
aI1470
aa(lp2928
S'skin'
p2929
aI1471
aa(lp2930
S'3.5'
p2931
aI1472
aa(lp2932
S'Irregularity'
p2933
aI1473
aa(lp2934
S'Catheter'
p2935
aI1474
aa(lp2936
S'short'
p2937
aI1475
aa(lp2938
S'material'
p2939
aI1476
aa(lp2940
S'Lumbosacral'
p2941
aI1477
aa(lp2942
S'denser'
p2943
aI1478
aa(lp2944
S'breast.'
p2945
aI1479
aa(lp2946
S'sternum.'
p2947
aI1480
aa(lp2948
S'fractured.'
p2949
aI1481
aa(lp2950
S'Significant'
p2951
aI1482
aa(lp2952
S'x-XXXX,'
p2953
aI1483
aa(lp2954
S'13'
p2955
aI1484
aa(lp2956
S'tumor.'
p2957
aI1485
aa(lp2958
S'obliquely'
p2959
aI1486
aa(lp2960
S'months'
p2961
aI1487
aa(lp2962
S'1.8'
p2963
aI1488
aa(lp2964
S'spondylosis'
p2965
aI1489
aa(lp2966
S'compartment.'
p2967
aI1490
aa(lp2968
S'I'
aI1491
aa(lp2969
S'tubes'
p2970
aI1492
aa(lp2971
S'width.'
p2972
aI1493
aa(lp2973
S'malignancy'
p2974
aI1494
aa(lp2975
S'costicartilage'
p2976
aI1495
aa(lp2977
S'electronic'
p2978
aI1496
aa(lp2979
S'Round'
p2980
aI1497
aa(lp2981
S'thickness.'
p2982
aI1498
aa(lp2983
S'behind'
p2984
aI1499
aa(lp2985
S'Fractures'
p2986
aI1500
aa(lp2987
S'2.1'
p2988
aI1501
aa(lp2989
S'centrally'
p2990
aI1502
aa(lp2991
S'collecting'
p2992
aI1503
aa(lp2993
S'projectile'
p2994
aI1504
aa(lp2995
S'superficial'
p2996
aI1505
aa(lp2997
S'view).'
p2998
aI1506
aa(lp2999
S'Retained'
p3000
aI1507
aa(lp3001
S'onset'
p3002
aI1508
aa(lp3003
S'parahilar'
p3004
aI1509
aa(lp3005
S'enlarging'
p3006
aI1510
aa(lp3007
S'Accounting'
p3008
aI1511
aa(lp3009
S'critical'
p3010
aI1512
aa(lp3011
S'Clinical'
p3012
aI1513
aa(lp3013
S'your'
p3014
aI1514
aa(lp3015
S'considerations'
p3016
aI1515
aa(lp3017
S'questions'
p3018
aI1516
aa(lp3019
S'Lobulated'
p3020
aI1517
aa(lp3021
S'appearance,'
p3022
aI1518
aa(lp3023
S'overload.'
p3024
aI1519
aa(lp3025
S'coarsened'
p3026
aI1520
aa(lp3027
S'detailed'
p3028
aI1521
aa(lp3029
S'levels'
p3030
aI1522
aa(lp3031
S'incidentally'
p3032
aI1523
aa(lp3033
S'Airspace'
p3034
aI1524
aa(lp3035
S'message'
p3036
aI1525
aa(lp3037
S'aeration.'
p3038
aI1526
aa(lp3039
S'Air'
p3040
aI1527
aa(lp3041
S'cardiophrenic'
p3042
aI1528
aa(lp3043
S'Feeding'
p3044
aI1529
aa(lp3045
S'resolving'
p3046
aI1530
aa(lp3047
S'Atherosclerosis'
p3048
aI1531
aa(lp3049
S'Bullae'
p3050
aI1532
aa(lp3051
S'radiodense'
p3052
aI1533
aa(lp3053
S'useful.'
p3054
aI1534
aa(lp3055
S'dual-XXXX'
p3056
aI1535
aa(lp3057
S'Levocurvature'
p3058
aI1536
aa(lp3059
S'cavitation.'
p3060
aI1537
aa(lp3061
S'stable,'
p3062
aI1538
aa(lp3063
S'1.6'
p3064
aI1539
aa(lp3065
S'etiology.'
p3066
aI1540
aa(lp3067
S'stability'
p3068
aI1541
aa(lp3069
S'Anterior'
p3070
aI1542
aa(lp3071
S'pacemaker.'
p3072
aI1543
aa(lp3073
S'localized'
p3074
aI1544
aa(lp3075
S'right,'
p3076
aI1545
aa(lp3077
S'either'
p3078
aI1546
aa(lp3079
S'17'
p3080
aI1547
aa(lp3081
S'unchanged,'
p3082
aI1548
aa(lp3083
S'image.'
p3084
aI1549
aa(lp3085
S'Cervical'
p3086
aI1550
aa(lp3087
S'vertebroplasty'
p3088
aI1551
aa(lp3089
S'Peripheral'
p3090
aI1552
aa(lp3091
S'shoulder:'
p3092
aI1553
aa(lp3093
S'rectum.'
p3094
aI1554
aa(lp3095
S'X-XXXX'
p3096
aI1555
aa(lp3097
S'fifth'
p3098
aI1556
aa(lp3099
S'Given'
p3100
aI1557
aa(lp3101
S'Subsegmental'
p3102
aI1558
aa(lp3103
S'appreciable'
p3104
aI1559
aa(lp3105
S'deep'
p3106
aI1560
aa(lp3107
S'vertebrae'
p3108
aI1561
aa(lp3109
S'remarkable'
p3110
aI1562
aa(lp3111
S'Anticipated'
p3112
aI1563
aa(lp3113
S'subchondral'
p3114
aI1564
aa(lp3115
S'After'
p3116
aI1565
aa(lp3117
S'excavatum'
p3118
aI1566
aa(lp3119
S'possible.'
p3120
aI1567
aa(lp3121
S'desired'
p3122
aI1568
aa(lp3123
S'cortex'
p3124
aI1569
aa(lp3125
S'Lingular'
p3126
aI1570
aa(lp3127
S'already'
p3128
aI1571
aa(lp3129
S'lucency.'
p3130
aI1572
aa(lp3131
S'1.9'
p3132
aI1573
aa(lp3133
S'Although'
p3134
aI1574
aa(lp3135
S'compartment'
p3136
aI1575
aa(lp3137
S'true'
p3138
aI1576
aa(lp3139
S'1.0'
p3140
aI1577
aa(lp3141
S'osteopenia'
p3142
aI1578
aa(lp3143
S'unfolded'
p3144
aI1579
aa(lp3145
S'deformities,'
p3146
aI1580
aa(lp3147
S'indeterminate'
p3148
aI1581
aa(lp3149
S'obscuring'
p3150
aI1582
aa(lp3151
S'line.'
p3152
aI1583
aa(lp3153
S'imaging,'
p3154
aI1584
aa(lp3155
S'interstitium'
p3156
aI1585
aa(lp3157
S'osteopenia,'
p3158
aI1586
aa(lp3159
S'conspicuous'
p3160
aI1587
aa(lp3161
S'Several'
p3162
aI1588
aa(lp3163
S'rotation'
p3164
aI1589
aa(lp3165
S'Lucency'
p3166
aI1590
aa(lp3167
S'Maybe'
p3168
aI1591
aa(lp3169
S'hip.'
p3170
aI1592
aa(lp3171
S'bronchial'
p3172
aI1593
aa(lp3173
S'before'
p3174
aI1594
aa(lp3175
S'annular'
p3176
aI1595
aa(lp3177
S'attenuation'
p3178
aI1596
aa(lp3179
S'pelvis'
p3180
aI1597
aa(lp3181
S'second'
p3182
aI1598
aa(lp3183
S'Sequela'
p3184
aI1599
aa(lp3185
S'L1'
p3186
aI1600
aa(lp3187
S'pathologic'
p3188
aI1601
aa(lp3189
S'indicated,'
p3190
aI1602
aa(lp3191
S'distribution'
p3192
aI1603
aa(lp3193
S'Volume'
p3194
aI1604
aa(lp3195
S'placement.'
p3196
aI1605
aa(lp3197
S'formation.'
p3198
aI1606
aa(lp3199
S'scapular'
p3200
aI1607
aa(lp3201
S'resolved.'
p3202
aI1608
aa(lp3203
S'whether'
p3204
aI1609
aa(lp3205
S'tissues,'
p3206
aI1610
aa(lp3207
S'another'
p3208
aI1611
aa(lp3209
S'contain'
p3210
aI1612
aa(lp3211
S'regions.'
p3212
aI1613
aa(lp3213
S'Mediport'
p3214
aI1614
aa(lp3215
S'characterization'
p3216
aI1615
aa(lp3217
S'blunting.'
p3218
aI1616
aa(lp3219
S'deviation'
p3220
aI1617
aa(lp3221
S'residuals'
p3222
aI1618
aa(lp3223
S'ectatic,'
p3224
aI1619
aa(lp3225
S'examination,'
p3226
aI1620
aa(lp3227
S'aneurysm.'
p3228
aI1621
aa(lp3229
S'dependent'
p3230
aI1622
aa(lp3231
S'granulomas/lymph'
p3232
aI1623
aa(lp3233
S'Multifocal'
p3234
aI1624
aa(lp3235
S'considered'
p3236
aI1625
aa(lp3237
S'Contour'
p3238
aI1626
aa(lp3239
S'thyroid'
p3240
aI1627
aa(lp3241
S'indeterminant'
p3242
aI1628
aa(lp3243
S'10th'
p3244
aI1629
aa(lp3245
S'suspected.'
p3246
aI1630
aa(lp3247
S'exams'
p3248
aI1631
aa(lp3249
S'Stable.'
p3250
aI1632
aa(lp3251
S'displacement'
p3252
aI1633
aa(lp3253
S'physician'
p3254
aI1634
aa(lp3255
S'diaphragm,'
p3256
aI1635
aa(lp3257
S'regions,'
p3258
aI1636
aa(lp3259
S'poorly'
p3260
aI1637
aa(lp3261
S'bibasal'
p3262
aI1638
aa(lp3263
S'dated'
p3264
aI1639
aa(lp3265
S'therapy'
p3266
aI1640
aa(lp3267
S'feeding'
p3268
aI1641
aa(lp3269
S'sternum'
p3270
aI1642
aa(lp3271
S'sclerosis'
p3272
aI1643
aa(lp3273
S'correlation.'
p3274
aI1644
aa(lp3275
S'levels.'
p3276
aI1645
aa(lp3277
S'pattern,'
p3278
aI1646
aa(lp3279
S'dense,'
p3280
aI1647
aa(lp3281
S'Not'
p3282
aI1648
aa(lp3283
S'Pacemaker'
p3284
aI1649
aa(lp3285
S'partly'
p3286
aI1650
aa(lp3287
S'lesion,'
p3288
aI1651
aa(lp3289
S'hyperexpanded,'
p3290
aI1652
aa(lp3291
S'Flowing'
p3292
aI1653
aa(lp3293
S'highly'
p3294
aI1654
aa(lp3295
S'tubes.'
p3296
aI1655
aa(lp3297
S'myeloma.'
p3298
aI1656
aa(lp3299
S'present,'
p3300
aI1657
aa(lp3301
S'Levoscoliosis'
p3302
aI1658
aa(lp3303
S','
aI1659
aa(lp3304
S'Pelvis.'
p3305
aI1660
aa(lp3306
S'beneath'
p3307
aI1661
aa(lp3308
S'positional.'
p3309
aI1662
aa(lp3310
S'fragments'
p3311
aI1663
aa(lp3312
S'3.3'
p3313
aI1664
aa(lp3314
S'results'
p3315
aI1665
aa(lp3316
S'habitus'
p3317
aI1666
aa(lp3318
S'subphrenic'
p3319
aI1667
aa(lp3320
S'will'
p3321
aI1668
aa(lp3322
S'markers.'
p3323
aI1669
aa(lp3324
S'convexity'
p3325
aI1670
aa(lp3326
S'Elevation'
p3327
aI1671
aa(lp3328
S'foci'
p3329
aI1672
aa(lp3330
S'allowing'
p3331
aI1673
aa(lp3332
S'T12'
p3333
aI1674
aa(lp3334
S'DISH'
p3335
aI1675
aa(lp3336
S'earlier'
p3337
aI1676
aa(lp3338
S'Ribs.'
p3339
aI1677
aa(lp3340
S'useful'
p3341
aI1678
aa(lp3342
S'fissural'
p3343
aI1679
aa(lp3344
S'large,'
p3345
aI1680
aa(lp3346
S'structures,'
p3347
aI1681
aa(lp3348
S'L1,'
p3349
aI1682
aa(lp3350
S'Pelvis'
p3351
aI1683
aa(lp3352
S'Generalized'
p3353
aI1684
aa(lp3354
S'scapula'
p3355
aI1685
aa(lp3356
S'And'
p3357
aI1686
aa(lp3358
S'joint.'
p3359
aI1687
aa(lp3360
S'REPORT.'
p3361
aI1688
aa(lp3362
S'OF'
p3363
aI1689
aa(lp3364
S'END'
p3365
aI1690
aa(lp3366
S'remarkable.'
p3367
aI1691
aa(lp3368
S'postop'
p3369
aI1692
aa(lp3370
S'into'
p3371
aI1693
aa(lp3372
S'Acromioclavicular'
p3373
aI1694
aa(lp3374
S'concern,'
p3375
aI1695
aa(lp3376
S'idiopathic'
p3377
aI1696
aa(lp3378
S'end.'
p3379
aI1697
aa(lp3380
S'same'
p3381
aI1698
aa(lp3382
S'fibrosis,'
p3383
aI1699
aa(lp3384
S'obscures'
p3385
aI1700
aa(lp3386
S'XXXX-of-view.'
p3387
aI1701
aa(lp3388
S'alternatively'
p3389
aI1702
aa(lp3390
S'features.'
p3391
aI1703
aa(lp3392
S'complicating'
p3393
aI1704
aa(lp3394
S'septal'
p3395
aI1705
aa(lp3396
S'ectasia.'
p3397
aI1706
aa(lp3398
S'masslike'
p3399
aI1707
aa(lp3400
S'1.7'
p3401
aI1708
aa(lp3402
S'features'
p3403
aI1709
aa(lp3404
S'Crowded'
p3405
aI1710
aa(lp3406
S'portable'
p3407
aI1711
aa(lp3408
S'vasculatures'
p3409
aI1712
aa(lp3410
S'leads,'
p3411
aI1713
aa(lp3412
S'sequelae'
p3413
aI1714
aa(lp3414
S'Sternotomy.'
p3415
aI1715
aa(lp3416
S'do'
p3417
aI1716
aa(lp3418
S'intact,'
p3419
aI1717
aa(lp3420
S'Technically'
p3421
aI1718
aa(lp3422
S'osteoarthritis.'
p3423
aI1719
aa(lp3424
S'limit'
p3425
aI1720
aa(lp3426
S'ICD'
p3427
aI1721
aa(lp3428
S'Nonspecific'
p3429
aI1722
aa(lp3430
S'evaluation,'
p3431
aI1723
aa(lp3432
S'airway'
p3433
aI1724
aa(lp3434
S'lymphadenopathy'
p3435
aI1725
aa(lp3436
S'mm.'
p3437
aI1726
aa(lp3438
S'Inferior'
p3439
aI1727
aa(lp3440
S'type'
p3441
aI1728
aa(lp3442
S'Nipple'
p3443
aI1729
aa(lp3444
S'disrupted.'
p3445
aI1730
aa(lp3446
S'goiter.'
p3447
aI1731
aa(lp3448
S'only.'
p3449
aI1732
aa(lp3450
S'bridging.'
p3451
aI1733
aa(lp3452
S'Asymmetric'
p3453
aI1734
aa(lp3454
S'positioning.'
p3455
aI1735
aa(lp3456
S'nonspecific.'
p3457
aI1736
aa(lp3458
S'ring'
p3459
aI1737
aa(lp3460
S'largely'
p3461
aI1738
aa(lp3462
S'regions'
p3463
aI1739
aa(lp3464
S'Vertebral'
p3465
aI1740
aa(lp3466
S'3.8'
p3467
aI1741
aa(lp3468
S'chronic,'
p3469
aI1742
aa(lp3470
S'limits..'
p3471
aI1743
aa(lp3472
S'none'
p3473
aI1744
aa(lp3474
S'common'
p3475
aI1745
aa(lp3476
S'Innumerable'
p3477
aI1746
aa(lp3478
S'tube,'
p3479
aI1747
aa(lp3480
S'spine:'
p3481
aI1748
aa(lp3482
S'Few'
p3483
aI1749
aa(lp3484
S'metastases.'
p3485
aI1750
aa(lp3486
S'vein'
p3487
aI1751
aa(lp3488
S'retained'
p3489
aI1752
aa(lp3490
S'prosthesis.'
p3491
aI1753
aa(lp3492
S'entire'
p3493
aI1754
aa(lp3494
S'Shunt'
p3495
aI1755
aa(lp3496
S'cell'
p3497
aI1756
aa(lp3498
S'suspected'
p3499
aI1757
aa(lp3500
S'assessment'
p3501
aI1758
aa(lp3502
S'gunshot'
p3503
aI1759
aa(lp3504
S'infracarinal'
p3505
aI1760
aa(lp3506
S'Leads'
p3507
aI1761
aa(lp3508
S'p.m.'
p3509
aI1762
aa(lp3510
S'thought'
p3511
aI1763
aa(lp3512
S'wound.'
p3513
aI1764
aa(lp3514
S'XXXX/fluid'
p3515
aI1765
aa(lp3516
S'biventricular'
p3517
aI1766
aa(lp3518
S'unclear.'
p3519
aI1767
aa(lp3520
S'pneumonitis'
p3521
aI1768
aa(lp3522
S'margination'
p3523
aI1769
aa(lp3524
S'esophagectomy'
p3525
aI1770
aa(lp3526
S'hyperexpansion,'
p3527
aI1771
aa(lp3528
S'Allowing'
p3529
aI1772
aa(lp3530
S'side.'
p3531
aI1773
aa(lp3532
S'Underlying'
p3533
aI1774
aa(lp3534
S'below.'
p3535
aI1775
aa(lp3536
S'projectional'
p3537
aI1776
aa(lp3538
S'sulcus.'
p3539
aI1777
aa(lp3540
S'effusion/hemothorax.'
p3541
aI1778
aa(lp3542
S'bilateral,'
p3543
aI1779
aa(lp3544
S'Spurring'
p3545
aI1780
aa(lp3546
S'Granulomas'
p3547
aI1781
aa(lp3548
S'2.0'
p3549
aI1782
aa(lp3550
S'Density'
p3551
aI1783
aa(lp3552
S'acknowledged'
p3553
aI1784
aa(lp3554
S'low,'
p3555
aI1785
aa(lp3556
S'ectasia/tortuosity'
p3557
aI1786
aa(lp3558
S'Residual'
p3559
aI1787
aa(lp3560
S'TIPS'
p3561
aI1788
aa(lp3562
S'nonenlarged'
p3563
aI1789
aa(lp3564
S'receipt'
p3565
aI1790
aa(lp3566
S'identify'
p3567
aI1791
aa(lp3568
S'Nonobstructive'
p3569
aI1792
aa(lp3570
S'recommendations'
p3571
aI1793
aa(lp3572
S'Epigastric'
p3573
aI1794
aa(lp3574
S'warranted'
p3575
aI1795
aa(lp3576
S'paraspinal/retrocrural'
p3577
aI1796
aa(lp3578
S'benefit'
p3579
aI1797
aa(lp3580
S'Mild,'
p3581
aI1798
aa(lp3582
S'old.'
p3583
aI1799
aa(lp3584
S'2.2'
p3585
aI1800
aa(lp3586
S'Increase'
p3587
aI1801
aa(lp3588
S'Improving'
p3589
aI1802
aa(lp3590
S'wall,'
p3591
aI1803
aa(lp3592
S'surrounding'
p3593
aI1804
aa(lp3594
S'hypoventilated.'
p3595
aI1805
aa(lp3596
S'line,'
p3597
aI1806
aa(lp3598
S'piriform'
p3599
aI1807
aa(lp3600
S'epiglottis'
p3601
aI1808
aa(lp3602
S'prevertebral'
p3603
aI1809
aa(lp3604
S'inflammation,'
p3605
aI1810
aa(lp3606
S'filled'
p3607
aI1811
aa(lp3608
S'reaction.'
p3609
aI1812
aa(lp3610
S'findings,'
p3611
aI1813
aa(lp3612
S'subacute'
p3613
aI1814
aa(lp3614
S'Age'
p3615
aI1815
aa(lp3616
S'obese.'
p3617
aI1816
aa(lp3618
S'films.'
p3619
aI1817
aa(lp3620
S'Enlargement'
p3621
aI1818
aa(lp3622
S'graft.'
p3623
aI1819
aa(lp3624
S'NECK.'
p3625
aI1820
aa(lp3626
S'evidenced'
p3627
aI1821
aa(lp3628
S'TISSUE'
p3629
aI1822
aa(lp3630
S'Intact'
p3631
aI1823
aa(lp3632
S'change,'
p3633
aI1824
aa(lp3634
S'esophagus.'
p3635
aI1825
aa(lp3636
S'syndesmophytes'
p3637
aI1826
aa(lp3638
S'IVC'
p3639
aI1827
aa(lp3640
S'elbow'
p3641
aI1828
aa(lp3642
S'midabdomen.'
p3643
aI1829
aa(lp3644
S'displacement.'
p3645
aI1830
aa(lp3646
S'Additional'
p3647
aI1831
aa(lp3648
S'Significantly'
p3649
aI1832
aa(lp3650
S'atrium,'
p3651
aI1833
aa(lp3652
S'12'
p3653
aI1834
aa(lp3654
S'atelectasis/infiltrate.'
p3655
aI1835
aa(lp3656
S'Distal'
p3657
aI1836
aa(lp3658
S'inlet.'
p3659
aI1837
aa(lp3660
S'ABDOMEN.'
p3661
aI1838
aa(lp3662
S'CABG,'
p3663
aI1839
aa(lp3664
S'dissection.'
p3665
aI1840
aa(lp3666
S'moved'
p3667
aI1841
aa(lp3668
S'Result'
p3669
aI1842
aa(lp3670
S'Atrial'
p3671
aI1843
aa(lp3672
S'noncontrast'
p3673
aI1844
aa(lp3674
S'occluder'
p3675
aI1845
aa(lp3676
S'hypertension'
p3677
aI1846
aa(lp3678
S'exposure'
p3679
aI1847
aa(lp3680
S'Since'
p3681
aI1848
aa(lp3682
S'3.7'
p3683
aI1849
aa(lp3684
S'carinatum.'
p3685
aI1850
aa(lp3686
S'innumerable'
p3687
aI1851
aa(lp3688
S'favoring'
p3689
aI1852
aa(lp3690
S'require'
p3691
aI1853
aa(lp3692
S'width'
p3693
aI1854
aa(lp3694
S'described,'
p3695
aI1855
aa(lp3696
S'vertebrae,'
p3697
aI1856
aa(lp3698
S'pleuroparenchymal'
p3699
aI1857
aa(lp3700
S'wedge-shaped'
p3701
aI1858
aa(lp3702
S'prostheses'
p3703
aI1859
aa(lp3704
S'8-12'
p3705
aI1860
aa(lp3706
S'Results'
p3707
aI1861
aa(lp3708
S'minimally'
p3709
aI1862
aa(lp3710
S'diaphragms,'
p3711
aI1863
aa(lp3712
S'VP'
p3713
aI1864
aa(lp3714
S'4.5'
p3715
aI1865
aa(lp3716
S'repositioning'
p3717
aI1866
aa(lp3718
S'inferiorly.'
p3719
aI1867
aa(lp3720
S'clavicle:'
p3721
aI1868
aa(lp3722
S'carinatum'
p3723
aI1869
aa(lp3724
S'hyper'
p3725
aI1870
aa(lp3726
S'Senescent'
p3727
aI1871
aa(lp3728
S'fissures.'
p3729
aI1872
aa(lp3730
S'cardia'
p3731
aI1873
aa(lp3732
S'infection/pneumonia.'
p3733
aI1874
aa(lp3734
S'SOFT'
p3735
aI1875
aa(lp3736
S'sixth'
p3737
aI1876
aa(lp3738
S'stents'
p3739
aI1877
aa(lp3740
S'(XXXX'
p3741
aI1878
aa(lp3742
S'separation'
p3743
aI1879
aa(lp3744
S'Stent'
p3745
aI1880
aa(lp3746
S'osteopenia.'
p3747
aI1881
aa(lp3748
S'summation'
p3749
aI1882
aa(lp3750
S'Granulomas.'
p3751
aI1883
aa(lp3752
S'degenerated'
p3753
aI1884
aa(lp3754
S'node,'
p3755
aI1885
aa(lp3756
S'Kyphotic'
p3757
aI1886
aa(lp3758
S'osteoarthritis'
p3759
aI1887
aa(lp3760
S'markers'
p3761
aI1888
aa(lp3762
S'Examination'
p3763
aI1889
aa(lp3764
S'Lordotic'
p3765
aI1890
aa(lp3766
S'forearm.'
p3767
aI1891
aa(lp3768
S'cleared'
p3769
aI1892
aa(lp3770
S'lucencies'
p3771
aI1893
aa(lp3772
S'repeat'
p3773
aI1894
aa(lp3774
S'elevated,'
p3775
aI1895
aa(lp3776
S'projection,'
p3777
aI1896
aa(lp3778
S'Radiographic'
p3779
aI1897
aa(lp3780
S'confluence'
p3781
aI1898
aa(lp3782
S'sequela.'
p3783
aI1899
aa(lp3784
S'Could'
p3785
aI1900
aa(lp3786
S'radiograph,'
p3787
aI1901
aa(lp3788
S'epigastrium'
p3789
aI1902
aa(lp3790
S'Grossly,'
p3791
aI1903
aa(lp3792
S'leads.'
p3793
aI1904
aa(lp3794
S'Overlying'
p3795
aI1905
aa(lp3796
S'alignment.'
p3797
aI1906
aa(lp3798
S'Prosthetic'
p3799
aI1907
aa(lp3800
S'smaller'
p3801
aI1908
aa(lp3802
S'non-calcified'
p3803
aI1909
aa(lp3804
S'sulcus,'
p3805
aI1910
aa(lp3806
S'considering'
p3807
aI1911
aa(lp3808
S'flowing'
p3809
aI1912
aa(lp3810
S'grafting.'
p3811
aI1913
aa(lp3812
S'synovial'
p3813
aI1914
aa(lp3814
S'suture'
p3815
aI1915
aa(lp3816
S'osteopenic.'
p3817
aI1916
aa(lp3818
S'globular'
p3819
aI1917
aa(lp3820
S'primarily'
p3821
aI1918
aa(lp3822
S'embolism'
p3823
aI1919
aa(lp3824
S'lobulated'
p3825
aI1920
aa(lp3826
S'tortuous/ectatic'
p3827
aI1921
aa(lp3828
S'postradiation'
p3829
aI1922
aa(lp3830
S'Thanks.'
p3831
aI1923
aa(lp3832
S'right-to-left'
p3833
aI1924
aa(lp3834
S'asbestos'
p3835
aI1925
aa(lp3836
S'further,'
p3837
aI1926
aa(lp3838
S'carcinoma.'
p3839
aI1927
aa(lp3840
S'case'
p3841
aI1928
aa(lp3842
S'discuss'
p3843
aI1929
aa(lp3844
S'towards'
p3845
aI1930
aa(lp3846
S'recess,'
p3847
aI1931
aa(lp3848
S'raise'
p3849
aI1932
aa(lp3850
S'tenderness'
p3851
aI1933
aa(lp3852
S'vertebra'
p3853
aI1934
aa(lp3854
S'progression'
p3855
aI1935
aa(lp3856
S'dextrocardia.'
p3857
aI1936
aa(lp3858
S'comparisons.'
p3859
aI1937
aa(lp3860
S'obstruction'
p3861
aI1938
aa(lp3862
S'rotated,'
p3863
aI1939
aa(lp3864
S'Sacrum'
p3865
aI1940
aa(lp3866
S'recurrence'
p3867
aI1941
aa(lp3868
S'Endplate'
p3869
aI1942
aa(lp3870
S'metastasis.'
p3871
aI1943
aa(lp3872
S'sacroiliac'
p3873
aI1944
aa(lp3874
S'blunting,'
p3875
aI1945
aa(lp3876
S'hypoventilation.'
p3877
aI1946
aa(lp3878
S'Diaphragm'
p3879
aI1947
aa(lp3880
S'left-to-right'
p3881
aI1948
aa(lp3882
S'bodies,'
p3883
aI1949
aa(lp3884
S'degree'
p3885
aI1950
aa(lp3886
S'otherwise,'
p3887
aI1951
aa(lp3888
S'calcaneal'
p3889
aI1952
aa(lp3890
S'5th,'
p3891
aI1953
aa(lp3892
S'4th,'
p3893
aI1954
aa(lp3894
S'zones.'
p3895
aI1955
aa(lp3896
S'bronchiectasis.'
p3897
aI1956
aa(lp3898
S'telephone'
p3899
aI1957
aa(lp3900
S'repair.'
p3901
aI1958
aa(lp3902
S'thickening/scarring.'
p3903
aI1959
aa(lp3904
S'residual.'
p3905
aI1960
aa(lp3906
S'lucent'
p3907
aI1961
aa(lp3908
S'mostly'
p3909
aI1962
aa(lp3910
S'generalized'
p3911
aI1963
aa(lp3912
S'evident'
p3913
aI1964
aa(lp3914
S'valve.'
p3915
aI1965
aa(lp3916
S'LV'
p3917
aI1966
aa(lp3918
S'pneumothoraces'
p3919
aI1967
aa(lp3920
S'ratio'
p3921
aI1968
aa(lp3922
S'symmetrically'
p3923
aI1969
aa(lp3924
S'mixed'
p3925
aI1970
aa(lp3926
S'establish'
p3927
aI1971
aa(lp3928
S'strandy'
p3929
aI1972
aa(lp3930
S'juxtahilar'
p3931
aI1973
aa(lp3932
S'degraded'
p3933
aI1974
aa(lp3934
S'atelectasis/scarring.'
p3935
aI1975
aa(lp3936
S'evident.'
p3937
aI1976
aa(lp3938
S'Subcutaneous'
p3939
aI1977
aa(lp3940
S'obliteration'
p3941
aI1978
aa(lp3942
S'Remaining'
p3943
aI1979
aa(lp3944
S'shielded.'
p3945
aI1980
aa(lp3946
S'radiation'
p3947
aI1981
aa(lp3948
S'loss,'
p3949
aI1982
aa(lp3950
S'back'
p3951
aI1983
aa(lp3952
S'end'
p3953
aI1984
aa(lp3954
S'KUB.'
p3955
aI1985
aa(lp3956
S'reside'
p3957
aI1986
aa(lp3958
S'air-filled'
p3959
aI1987
aa(lp3960
S'measure'
p3961
aI1988
aa(lp3962
S'assess'
p3963
aI1989
aa(lp3964
S'only,'
p3965
aI1990
aa(lp3966
S'lucency,'
p3967
aI1991
aa(lp3968
S'14'
p3969
aI1992
aa(lp3970
S'-'
aI1993
aa(lp3971
S'fragment.'
p3972
aI1994
aa(lp3973
S'scar,'
p3974
aI1995
aa(lp3975
S'technique'
p3976
aI1996
aa(lp3977
S'2.5'
p3978
aI1997
aa(lp3979
S'extremely'
p3980
aI1998
aa(lp3981
S'substernal'
p3982
aI1999
aa(lp3983
S'zones'
p3984
aI2000
aa(lp3985
S'hyperdense'
p3986
aI2001
aa(lp3987
S'potential'
p3988
aI2002
aa(lp3989
S'Unclear'
p3990
aI2003
aa(lp3991
S'Posterior'
p3992
aI2004
aa(lp3993
S'contrast-enhanced'
p3994
aI2005
aa(lp3995
S'performed,'
p3996
aI2006
aa(lp3997
S'(lateral'
p3998
aI2007
aa(lp3999
S'tapering'
p4000
aI2008
aa(lp4001
S'called'
p4002
aI2009
aa(lp4003
S'circumscribed'
p4004
aI2010
aa(lp4005
S'Ectatic'
p4006
aI2011
aa(lp4007
S'grade'
p4008
aI2012
aa(lp4009
S'OR'
p4010
aI2013
aa(lp4011
S'Atypical'
p4012
aI2014
aa(lp4013
S'consideration.'
p4014
aI2015
aa(lp4015
S'arm'
p4016
aI2016
aa(lp4017
S'spurring.'
p4018
aI2017
aa(lp4019
S'level,'
p4020
aI2018
aa(lp4021
S'PIC'
p4022
aI2019
aa(lp4023
S'tissue.'
p4024
aI2020
aa(lp4025
S'coursing'
p4026
aI2021
aa(lp4027
S'dating'
p4028
aI2022
aa(lp4029
S'Tortuous,'
p4030
aI2023
aa(lp4031
S'setting.'
p4032
aI2024
aa(lp4033
S'especially'
p4034
aI2025
aa(lp4035
S'prior,'
p4036
aI2026
aa(lp4037
S'spaces,'
p4038
aI2027
aa(lp4039
S'subpulmonic'
p4040
aI2028
aa(lp4041
S'plaque'
p4042
aI2029
aa(lp4043
S'quadrant,'
p4044
aI2030
aa(lp4045
S'B-lines'
p4046
aI2031
aa(lp4047
S'persists'
p4048
aI2032
aa(lp4049
S'punctate'
p4050
aI2033
aa(lp4051
S'review'
p4052
aI2034
aa(lp4053
S'nerve'
p4054
aI2035
aa(lp4055
S'time.'
p4056
aI2036
aa(lp4057
S'Does'
p4058
aI2037
aa(lp4059
S'Veriphy'
p4060
aI2038
aa(lp4061
S'To'
p4062
aI2039
aa(lp4063
S'regarding'
p4064
aI2040
aa(lp4065
S'lymphadenopathy,'
p4066
aI2041
aa(lp4067
S'One'
p4068
aI2042
aa(lp4069
S'passive'
p4070
aI2043
aa(lp4071
S'interface'
p4072
aI2044
aa(lp4073
S'corticated'
p4074
aI2045
aa(lp4075
S'suspect'
p4076
aI2046
aa(lp4077
S'localize'
p4078
aI2047
aa(lp4079
S'3rd'
p4080
aI2048
aa(lp4081
S'XXXX/granulomas.'
p4082
aI2049
aa(lp4083
S'dimension'
p4084
aI2050
aa(lp4085
S'acuity.'
p4086
aI2051
aa(lp4087
S'substantial'
p4088
aI2052
aa(lp4089
S'hips'
p4090
aI2053
aa(lp4091
S'scars.'
p4092
aI2054
aa(lp4093
S'cavity'
p4094
aI2055
aa(lp4095
S'bullae'
p4096
aI2056
aa(lp4097
S'Bullous'
p4098
aI2057
aa(lp4099
S'KUB'
p4100
aI2058
aa(lp4101
S'tendinitis.'
p4102
aI2059
aa(lp4103
S'symmetric.'
p4104
aI2060
aa(lp4105
S'left-sided.'
p4106
aI2061
aa(lp4107
S'Metastatic'
p4108
aI2062
aa(lp4109
S'characterize.'
p4110
aI2063
aa(lp4111
S'visualized,'
p4112
aI2064
aa(lp4113
S'performed.'
p4114
aI2065
aa(lp4115
S'12th'
p4116
aI2066
aa(lp4117
S'Pneumoperitoneum,'
p4118
aI2067
aa(lp4119
S'telephone.'
p4120
aI2068
aa(lp4121
S'interpretation,'
p4122
aI2069
aa(lp4123
S'readily'
p4124
aI2070
aa(lp4125
S'Also'
p4126
aI2071
aa(lp4127
S'subluxation.'
p4128
aI2072
aa(lp4129
S'formations.'
p4130
aI2073
aa(lp4131
S'Fracture-dislocation'
p4132
aI2074
aa(lp4133
S'chronicity'
p4134
aI2075
aa(lp4135
S'films,'
p4136
aI2076
aa(lp4137
S'certainty.'
p4138
aI2077
aa(lp4139
S'stated'
p4140
aI2078
aa(lp4141
S'calcium'
p4142
aI2079
aa(lp4143
S'inflammation'
p4144
aI2080
aa(lp4145
S'superior-most'
p4146
aI2081
aa(lp4147
S'positioned'
p4148
aI2082
aa(lp4149
S'recurrence.'
p4150
aI2083
aa(lp4151
S'(on'
p4152
aI2084
aa(lp4153
S'cassettes)'
p4154
aI2085
aa(lp4155
S'process,'
p4156
aI2086
aa(lp4157
S'Recurrent'
p4158
aI2087
aa(lp4159
S'foot.'
p4160
aI2088
aa(lp4161
S'outflow'
p4162
aI2089
aa(lp4163
S'Widened'
p4164
aI2090
aa(lp4165
S'liver.'
p4166
aI2091
aa(lp4167
S'prosthesis'
p4168
aI2092
aa(lp4169
S'Gastrostomy'
p4170
aI2093
aa(lp4171
S'compressive'
p4172
aI2094
aa(lp4173
S'coronal'
p4174
aI2095
aa(lp4175
S'hypoinflation.'
p4176
aI2096
aa(lp4177
S'informative'
p4178
aI2097
aa(lp4179
S'years'
p4180
aI2098
aa(lp4181
S'ago.'
p4182
aI2099
aa(lp4183
S'atelectasis/scarring'
p4184
aI2100
aa(lp4185
S'sagittal'
p4186
aI2101
aa(lp4187
S'traction'
p4188
aI2102
aa(lp4189
S'Cardiopulmonary'
p4190
aI2103
aa(lp4191
S'around'
p4192
aI2104
aa(lp4193
S'humerus,'
p4194
aI2105
aa(lp4195
S'recesses'
p4196
aI2106
aa(lp4197
S'stripe.'
p4198
aI2107
aa(lp4199
S'result.'
p4200
aI2108
aa(lp4201
S'sparing'
p4202
aI2109
aa(lp4203
S'number'
p4204
aI2110
aa(lp4205
S'dominant'
p4206
aI2111
aa(lp4207
S'nodule/mass'
p4208
aI2112
aa(lp4209
S'performance'
p4210
aI2113
aa(lp4211
S'redemonstrated,'
p4212
aI2114
aa(lp4213
S'bronchiectasis'
p4214
aI2115
aa(lp4215
S'injection'
p4216
aI2116
aa(lp4217
S'medication'
p4218
aI2117
aa(lp4219
S'generator.'
p4220
aI2118
aa(lp4221
S'accessory'
p4222
aI2119
aa(lp4223
S'redistribution'
p4224
aI2120
aa(lp4225
S'scans.'
p4226
aI2121
aa(lp4227
S'Couple'
p4228
aI2122
aa(lp4229
S'hemodialysis'
p4230
aI2123
aa(lp4231
S'chronic.'
p4232
aI2124
aa(lp4233
S'heavily'
p4234
aI2125
aa(lp4235
S'carina,'
p4236
aI2126
aa(lp4237
S'retraction'
p4238
aI2127
aa(lp4239
S'persistently'
p4240
aI2128
aa(lp4241
S'paraspinal'
p4242
aI2129
aa(lp4243
S'vein,'
p4244
aI2130
aa(lp4245
S'retrohilar'
p4246
aI2131
aa(lp4247
S'Descending'
p4248
aI2132
aa(lp4249
S'Unfolding'
p4250
aI2133
aa(lp4251
S'trachea,'
p4252
aI2134
aa(lp4253
S'viral'
p4254
aI2135
aa(lp4255
S'stents.'
p4256
aI2136
aa(lp4257
S'workup'
p4258
aI2137
aa(lp4259
S'scaphoid.'
p4260
aI2138
aa(lp4261
S'subcarinal'
p4262
aI2139
aa(lp4263
S'Minimally'
p4264
aI2140
aa(lp4265
S'stripe,'
p4266
aI2141
aa(lp4267
S'prominent,'
p4268
aI2142
aa(lp4269
S'correct'
p4270
aI2143
aa(lp4271
S'caliber'
p4272
aI2144
aa(lp4273
S'relates'
p4274
aI2145
aa(lp4275
S'contrast.'
p4276
aI2146
aa(lp4277
S'histoplasmosis.'
p4278
aI2147
aa(lp4279
S'interposition'
p4280
aI2148
aa(lp4281
S'demonstration'
p4282
aI2149
aa(lp4283
S'pads.'
p4284
aI2150
aa(lp4285
S'defined'
p4286
aI2151
aa(lp4287
S'Partial'
p4288
aI2152
aa(lp4289
S'Moderately'
p4290
aI2153
aa(lp4291
S'limited.'
p4292
aI2154
aa(lp4293
S'acetabulum'
p4294
aI2155
aa(lp4295
S'hydropneumothorax'
p4296
aI2156
aa(lp4297
S'essentially'
p4298
aI2157
aa(lp4299
S'At'
p4300
aI2158
aa(lp4301
S'tenting'
p4302
aI2159
aa(lp4303
S'Underinflated'
p4304
aI2160
aa(lp4305
S'needed'
p4306
aI2161
aa(lp4307
S'being'
p4308
aI2162
aa(lp4309
S'postsurgical.'
p4310
aI2163
aa(lp4311
S'Again,'
p4312
aI2164
aa(lp4313
S'surface.'
p4314
aI2165
aa(lp4315
S'abnormality,'
p4316
aI2166
aa(lp4317
S'ordering'
p4318
aI2167
aa(lp4319
S'specifically'
p4320
aI2168
aa(lp4321
S'knee:'
p4322
aI2169
aa(lp4323
S'chronically'
p4324
aI2170
aa(lp4325
S'colon'
p4326
aI2171
aa(lp4327
S"They're"
p4328
aI2172
aa(lp4329
S'CHF'
p4330
aI2173
aa(lp4331
S'cuffing'
p4332
aI2174
aa(lp4333
S'testes'
p4334
aI2175
aa(lp4335
S'Lucent'
p4336
aI2176
aa(lp4337
S'corresponds'
p4338
aI2177
aa(lp4339
S'All'
p4340
aI2178
aa(lp4341
S'displaced,'
p4342
aI2179
aa(lp4343
S'Enteric'
p4344
aI2180
aa(lp4345
S'injuries.'
p4346
aI2181
aa(lp4347
S'Possibility'
p4348
aI2182
aa(lp4349
S'dual'
p4350
aI2183
aa(lp4351
S'ICD/pacemaker.'
p4352
aI2184
aa(lp4353
S'7mm'
p4354
aI2185
aa(lp4355
S'uncalcified'
p4356
aI2186
aa(lp4357
S'haziness'
p4358
aI2187
aa(lp4359
S'exposure.'
p4360
aI2188
aa(lp4361
S'3.2'
p4362
aI2189
aa(lp4363
S'limited,'
p4364
aI2190
aa(lp4365
S'rotatory'
p4366
aI2191
aa(lp4367
S'histoplasmosis'
p4368
aI2192
aa(lp4369
S'densely'
p4370
aI2193
aa(lp4371
S'epigastric'
p4372
aI2194
aa(lp4373
S'well-demonstrated'
p4374
aI2195
aa(lp4375
S'osteodystrophy'
p4376
aI2196
aa(lp4377
S'densities.'
p4378
aI2197
aa(lp4379
S'procedure.'
p4380
aI2198
aa(lp4381
S'oblong'
p4382
aI2199
aa(lp4383
S'based'
p4384
aI2200
aa(lp4385
S'interstitium.'
p4386
aI2201
aa(lp4387
S'suggested'
p4388
aI2202
aa(lp4389
S'reticular-nodular'
p4390
aI2203
aa(lp4391
S'complication.'
p4392
aI2204
aa(lp4393
S'broken'
p4394
aI2205
aa(lp4395
S'loops.'
p4396
aI2206
aa(lp4397
S'degeneration'
p4398
aI2207
aa(lp4399
S'Previous'
p4400
aI2208
aa(lp4401
S'inferiorly'
p4402
aI2209
aa(lp4403
S'based.'
p4404
aI2210
aa(lp4405
S'KV'
p4406
aI2211
aa(lp4407
S'certified'
p4408
aI2212
aa(lp4409
S'until'
p4410
aI2213
aa(lp4411
S'opportunity'
p4412
aI2214
aa(lp4413
S'removed'
p4414
aI2215
aa(lp4415
S'radiologist,'
p4416
aI2216
aa(lp4417
S'Approximately'
p4418
aI2217
aa(lp4419
S'T5'
p4420
aI2218
aa(lp4421
S'Suggest'
p4422
aI2219
aa(lp4423
S'As'
p4424
aI2220
aa(lp4425
S'accentuated.'
p4426
aI2221
aa(lp4427
S'progression.'
p4428
aI2222
aa(lp4429
S'assist'
p4430
aI2223
aa(lp4431
S'cyst'
p4432
aI2224
aa(lp4433
S'position,'
p4434
aI2225
aa(lp4435
S'origin'
p4436
aI2226
aa(lp4437
S'area,'
p4438
aI2227
aa(lp4439
S'T7'
p4440
aI2228
aa(lp4441
S'intra-abdominal'
p4442
aI2229
aa(lp4443
S'care'
p4444
aI2230
aa(lp4445
S'mild,'
p4446
aI2231
aa(lp4447
S'fluoroscopy'
p4448
aI2232
aa(lp4449
S'NG'
p4450
aI2233
aa(lp4451
S'component'
p4452
aI2234
aa(lp4453
S'sternoclavicular'
p4454
aI2235
aa(lp4455
S'Opacities'
p4456
aI2236
aa(lp4457
S'hemoptysis.'
p4458
aI2237
aa(lp4459
S'However'
p4460
aI2238
aa(lp4461
S'upward'
p4462
aI2239
aa(lp4463
S'cleared.'
p4464
aI2240
aa(lp4465
S'outward'
p4466
aI2241
aa(lp4467
S'parenchyma.'
p4468
aI2242
aa(lp4469
S'Alignment'
p4470
aI2243
aa(lp4471
S'Verterbroplasty'
p4472
aI2244
aa(lp4473
S'incidental'
p4474
aI2245
aa(lp4475
S'contrasted'
p4476
aI2246
aa(lp4477
S'Blunted'
p4478
aI2247
aa(lp4479
S'atelectasis/scar.'
p4480
aI2248
aa(lp4481
S'Another'
p4482
aI2249
aa(lp4483
S'Post'
p4484
aI2250
aa(lp4485
S'initiated'
p4486
aI2251
aa(lp4487
S'neurostimulator,'
p4488
aI2252
aa(lp4489
S'attributable'
p4490
aI2253
aa(lp4491
S'Interstitium'
p4492
aI2254
aa(lp4493
S'Thin'
p4494
aI2255
aa(lp4495
S'levocurvature'
p4496
aI2256
aa(lp4497
S'9'
aI2257
aa(lp4498
S'hyperdensity'
p4499
aI2258
aa(lp4500
S'XXXX/CT.'
p4501
aI2259
aa(lp4502
S'expansion'
p4503
aI2260
aa(lp4504
S'eventration,'
p4505
aI2261
aa(lp4506
S'sinus.'
p4507
aI2262
aa(lp4508
S'factors.'
p4509
aI2263
aa(lp4510
S'resultant'
p4511
aI2264
aa(lp4512
S'location.'
p4513
aI2265
aa(lp4514
S'suggestions'
p4515
aI2266
aa(lp4516
S'spur'
p4517
aI2267
aa(lp4518
S'reviewed'
p4519
aI2268
aa(lp4520
S'XXXX..'
p4521
aI2269
aa(lp4522
S'interstitium,'
p4523
aI2270
aa(lp4524
S'Atelectasis'
p4525
aI2271
aa(lp4526
S'multifocal'
p4527
aI2272
aa(lp4528
S'inspirational'
p4529
aI2273
aa(lp4530
S'nodularity.'
p4531
aI2274
aa(lp4532
S'Resolved'
p4533
aI2275
aa(lp4534
S'operative'
p4535
aI2276
aa(lp4536
S'Probably'
p4537
aI2277
aa(lp4538
S'unknown'
p4539
aI2278
aa(lp4540
S'Clearing'
p4541
aI2279
aa(lp4542
S'confirmation'
p4543
aI2280
aa(lp4544
S'Bridging'
p4545
aI2281
aa(lp4546
S'mediastinal,'
p4547
aI2282
aa(lp4548
S'possible,'
p4549
aI2283
aa(lp4550
S'grafts'
p4551
aI2284
aa(lp4552
S'resection,'
p4553
aI2285
aa(lp4554
S'obviously'
p4555
aI2286
aa(lp4556
S'artery.'
p4557
aI2287
aa(lp4558
S'a.m.'
p4559
aI2288
aa(lp4560
S'arthroplasty'
p4561
aI2289
aa(lp4562
S'(4.3'
p4563
aI2290
aa(lp4564
S'P'
aI2291
aa(lp4565
S'2.8'
p4566
aI2292
aa(lp4567
S'Outward'
p4568
aI2293
aa(lp4569
S'XXXX)'
p4570
aI2294
aa(lp4571
S'hand'
p4572
aI2295
aa(lp4573
S'distortion'
p4574
aI2296
aa(lp4575
S'Buckling'
p4576
aI2297
aa(lp4577
S'aspergilloma-as'
p4578
aI2298
aa(lp4579
S'aspergilloma'
p4580
aI2299
aa(lp4581
S'department'
p4582
aI2300
aa(lp4583
S'report'
p4584
aI2301
aa(lp4585
S'neoplastic.'
p4586
aI2302
aa(lp4587
S'addended.'
p4588
aI2303
aa(lp4589
S'Normal.'
p4590
aI2304
aa(lp4591
S'procedure,'
p4592
aI2305
aa(lp4593
S'significance,'
p4594
aI2306
aa(lp4595
S'Limbus'
p4596
aI2307
aa(lp4597
S'Single'
p4598
aI2308
aa(lp4599
S'stool..'
p4600
aI2309
aa(lp4601
S'hemothorax.'
p4602
aI2310
aa(lp4603
S'progressive'
p4604
aI2311
aa(lp4605
S'found.'
p4606
aI2312
aa(lp4607
S'retrosternally'
p4608
aI2313
aa(lp4609
S'Winged'
p4610
aI2314
aa(lp4611
S'Tip'
p4612
aI2315
aa(lp4613
S'technically'
p4614
aI2316
aa(lp4615
S'supporting'
p4616
aI2317
aa(lp4617
S'apex.There'
p4618
aI2318
aa(lp4619
S'found'
p4620
aI2319
aa(lp4621
S'Chronically'
p4622
aI2320
aa(lp4623
S'solid'
p4624
aI2321
aa(lp4625
S'example,'
p4626
aI2322
aa(lp4627
S'Morgagni'
p4628
aI2323
aa(lp4629
S'believed'
p4630
aI2324
aa(lp4631
S'PICC.'
p4632
aI2325
aa(lp4633
S'today,'
p4634
aI2326
aa(lp4635
S'cavitations.'
p4636
aI2327
aa(lp4637
S'Indeterminate'
p4638
aI2328
aa(lp4639
S'demineralization'
p4640
aI2329
aa(lp4641
S'Pression:'
p4642
aI2330
aa(lp4643
S'energy'
p4644
aI2331
aa(lp4645
S'Increased.'
p4646
aI2332
aa(lp4647
S'osteocartilaginous'
p4648
aI2333
aa(lp4649
S'correlation,'
p4650
aI2334
aa(lp4651
S'22'
p4652
aI2335
aa(lp4653
S'Bochdalek'
p4654
aI2336
aa(lp4655
S'formations'
p4656
aI2337
aa(lp4657
S'medially,'
p4658
aI2338
aa(lp4659
S'Old,'
p4660
aI2339
aa(lp4661
S'thoracentesis.'
p4662
aI2340
aa(lp4663
S'SVC,'
p4664
aI2341
aa(lp4665
S'flattened,'
p4666
aI2342
aa(lp4667
S'Mediastinum,'
p4668
aI2343
aa(lp4669
S'flexion'
p4670
aI2344
aa(lp4671
S'intrapulmonary'
p4672
aI2345
aa(lp4673
S'shaped.'
p4674
aI2346
aa(lp4675
S'paraesophageal'
p4676
aI2347
aa(lp4677
S'cardiothymic'
p4678
aI2348
aa(lp4679
S'esophagogastric'
p4680
aI2349
aa(lp4681
S'uniformly'
p4682
aI2350
aa(lp4683
S'biliary'
p4684
aI2351
aa(lp4685
S'included'
p4686
aI2352
aa(lp4687
S'exacerbation'
p4688
aI2353
aa(lp4689
S'element'
p4690
aI2354
aa(lp4691
S'throughout.'
p4692
aI2355
aa(lp4693
S'empyema.'
p4694
aI2356
aa(lp4695
S'Osteophyte'
p4696
aI2357
aa(lp4697
S'thoracotomy.'
p4698
aI2358
aa(lp4699
S'vertically'
p4700
aI2359
aa(lp4701
S'Esophagogastric'
p4702
aI2360
aa(lp4703
S'per'
p4704
aI2361
aa(lp4705
S'pacemaker/defibrillator.'
p4706
aI2362
aa(lp4707
S'besides'
p4708
aI2363
aa(lp4709
S'orientation'
p4710
aI2364
aa(lp4711
S'stringy'
p4712
aI2365
aa(lp4713
S'peripherally'
p4714
aI2366
aa(lp4715
S'Been'
p4716
aI2367
aa(lp4717
S'Obscuration'
p4718
aI2368
aa(lp4719
S'Azygos'
p4720
aI2369
aa(lp4721
S'residua'
p4722
aI2370
aa(lp4723
S'accompanied'
p4724
aI2371
aa(lp4725
S'25'
p4726
aI2372
aa(lp4727
S'areas.'
p4728
aI2373
aa(lp4729
S'brain'
p4730
aI2374
aa(lp4731
S'conceivably'
p4732
aI2375
aa(lp4733
S'Contrast-enhanced'
p4734
aI2376
aa(lp4735
S'carcinoma'
p4736
aI2377
aa(lp4737
S'Diagnostic'
p4738
aI2378
aa(lp4739
S'7.0'
p4740
aI2379
aa(lp4741
S'sizes.'
p4742
aI2380
aa(lp4743
S'varying'
p4744
aI2381
aa(lp4745
S'plates.'
p4746
aI2382
aa(lp4747
S'identified,'
p4748
aI2383
aa(lp4749
S'spiculated,'
p4750
aI2384
aa(lp4751
S'hemidiaphragms/'
p4752
aI2385
aa(lp4753
S'fully'
p4754
aI2386
aa(lp4755
S'definitively'
p4756
aI2387
aa(lp4757
S'dextroscoliosis,'
p4758
aI2388
aa(lp4759
S'Rectal'
p4760
aI2389
aa(lp4761
S'allow'
p4762
aI2390
aa(lp4763
S'reasonable'
p4764
aI2391
aa(lp4765
S'pneumonic'
p4766
aI2392
aa(lp4767
S'balloon'
p4768
aI2393
aa(lp4769
S'aorta..'
p4770
aI2394
aa(lp4771
S'cephalization,'
p4772
aI2395
aa(lp4773
S'subsequent'
p4774
aI2396
aa(lp4775
S'stomach.'
p4776
aI2397
aa(lp4777
S'narrowed'
p4778
aI2398
aa(lp4779
S'Moderate-to-marked'
p4780
aI2399
aa(lp4781
S'arteriographic'
p4782
aI2400
aa(lp4783
S'moderate-sized'
p4784
aI2401
aa(lp4785
S'generally'
p4786
aI2402
aa(lp4787
S'likewise'
p4788
aI2403
aa(lp4789
S'implants.'
p4790
aI2404
aa(lp4791
S'Gallbladder'
p4792
aI2405
aa(lp4793
S'mass/nodularity'
p4794
aI2406
aa(lp4795
S'predominance.'
p4796
aI2407
aa(lp4797
S'16.2/24.Diffuse'
p4798
aI2408
aa(lp4799
S'3-4'
p4800
aI2409
aa(lp4801
S'Conspicuous'
p4802
aI2410
aa(lp4803
S'incidentally,'
p4804
aI2411
aa(lp4805
S'ventricles.'
p4806
aI2412
aa(lp4807
S'mucous'
p4808
aI2413
aa(lp4809
S'dyspnea.'
p4810
aI2414
aa(lp4811
S'distinct'
p4812
aI2415
aa(lp4813
S'scarring/chronic'
p4814
aI2416
aa(lp4815
S'intramedullary'
p4816
aI2417
aa(lp4817
S'recess.'
p4818
aI2418
aa(lp4819
S'Laryngeal'
p4820
aI2419
aa(lp4821
S'disease/emphysema.'
p4822
aI2420
aa(lp4823
S'expansile'
p4824
aI2421
aa(lp4825
S'infectious/tuberculous'
p4826
aI2422
aa(lp4827
S'bibasilar,'
p4828
aI2423
aa(lp4829
S'enchondroma'
p4830
aI2424
aa(lp4831
S'infarct.'
p4832
aI2425
aa(lp4833
S'appropriate.'
p4834
aI2426
aa(lp4835
S'Bibasilar,'
p4836
aI2427
aa(lp4837
S'anteriorly'
p4838
aI2428
aa(lp4839
S'exist,'
p4840
aI2429
aa(lp4841
S"there's"
p4842
aI2430
aa(lp4843
S'hyperostosis.'
p4844
aI2431
aa(lp4845
S'diameter,'
p4846
aI2432
aa(lp4847
S'atelectatic/fibrotic'
p4848
aI2433
aa(lp4849
S'age'
p4850
aI2434
aa(lp4851
S'crosstable'
p4852
aI2435
aa(lp4853
S'patellofemoral'
p4854
aI2436
aa(lp4855
S'healed.'
p4856
aI2437
aa(lp4857
S'laryngeal'
p4858
aI2438
aa(lp4859
S'Additionally,'
p4860
aI2439
aa(lp4861
S'pneumatoceles.'
p4862
aI2440
aa(lp4863
S'Paramediastinal'
p4864
aI2441
aa(lp4865
S'stranding'
p4866
aI2442
aa(lp4867
S'collapsed'
p4868
aI2443
aa(lp4869
S'superiorly.'
p4870
aI2444
aa(lp4871
S'scant'
p4872
aI2445
aa(lp4873
S'near-complete'
p4874
aI2446
aa(lp4875
S'retracted'
p4876
aI2447
aa(lp4877
S'injuries'
p4878
aI2448
aa(lp4879
S'findings/pneumothorax'
p4880
aI2449
aa(lp4881
S'different'
p4882
aI2450
aa(lp4883
S'purpose'
p4884
aI2451
aa(lp4885
S'primordial.'
p4886
aI2452
aa(lp4887
S'remains.'
p4888
aI2453
aa(lp4889
S'communicated'
p4890
aI2454
aa(lp4891
S'neck,'
p4892
aI2455
aa(lp4893
S'Perihilar'
p4894
aI2456
aa(lp4895
S'implants'
p4896
aI2457
aa(lp4897
S'Now'
p4898
aI2458
aa(lp4899
S'tip.'
p4900
aI2459
aa(lp4901
S'planning.'
p4902
aI2460
aa(lp4903
S'Malpositioned'
p4904
aI2461
aa(lp4905
S'1.Severe'
p4906
aI2462
aa(lp4907
S'Wedge-shaped'
p4908
aI2463
aa(lp4909
S'Congestive'
p4910
aI2464
aa(lp4911
S'Or,'
p4912
aI2465
aa(lp4913
S'Breast'
p4914
aI2466
aa(lp4915
S'xray.'
p4916
aI2467
aa(lp4917
S'recommended,'
p4918
aI2468
aa(lp4919
S'lentiform'
p4920
aI2469
aa(lp4921
S'scar/subsegmental'
p4922
aI2470
aa(lp4923
S'Considerations'
p4924
aI2471
aa(lp4925
S'dilation'
p4926
aI2472
aa(lp4927
S'osteopenic'
p4928
aI2473
aa(lp4929
S'Circumscribed'
p4930
aI2474
aa(lp4931
S'lytic'
p4932
aI2475
aa(lp4933
S'Curvilinear'
p4934
aI2476
aa(lp4935
S'hypoinflated,'
p4936
aI2477
aa(lp4937
S'cervicothoracic'
p4938
aI2478
aa(lp4939
S'otherwise.'
p4940
aI2479
aa(lp4941
S'sulcal'
p4942
aI2480
aa(lp4943
S'inflammatory/infectious'
p4944
aI2481
aa(lp4945
S'failure,'
p4946
aI2482
aa(lp4947
S'inhalational'
p4948
aI2483
aa(lp4949
S'opportunistic'
p4950
aI2484
aa(lp4951
S'Chest,'
p4952
aI2485
aa(lp4953
S'splinting.'
p4954
aI2486
aa(lp4955
S'cardiomyopathy.'
p4956
aI2487
aa(lp4957
S'shift,'
p4958
aI2488
aa(lp4959
S'levoscoliosis.'
p4960
aI2489
aa(lp4961
S'XXXX/lymphoma.'
p4962
aI2490
aa(lp4963
S'Sarcoidosis'
p4964
aI2491
aa(lp4965
S'consideration,'
p4966
aI2492
aa(lp4967
S'considered.'
p4968
aI2493
aa(lp4969
S'online'
p4970
aI2494
aa(lp4971
S'decreasing'
p4972
aI2495
aa(lp4973
S'lymphoproliferative'
p4974
aI2496
aa(lp4975
S'appendage.'
p4976
aI2497
aa(lp4977
S'Infiltrate'
p4978
aI2498
aa(lp4979
S'Mitral'
p4980
aI2499
aa(lp4981
S'pleural.'
p4982
aI2500
aa(lp4983
S'Definite'
p4984
aI2501
aa(lp4985
S'aneurysm,'
p4986
aI2502
aa(lp4987
S'accentuates'
p4988
aI2503
aa(lp4989
S'margins,'
p4990
aI2504
aa(lp4991
S'small,'
p4992
aI2505
aa(lp4993
S'replacement'
p4994
aI2506
aa(lp4995
S'spherical'
p4996
aI2507
aa(lp4997
S'1.There'
p4998
aI2508
aa(lp4999
S'Core'
p5000
aI2509
aa(lp5001
S'3rd-5XXXX'
p5002
aI2510
aa(lp5003
S'focused'
p5004
aI2511
aa(lp5005
S'Review'
p5006
aI2512
aa(lp5007
S'XXXX-CT'
p5008
aI2513
aa(lp5009
S'distribution.'
p5010
aI2514
aa(lp5011
S'recurrent'
p5012
aI2515
aa(lp5013
S'scarring/emphysematous'
p5014
aI2516
aa(lp5015
S'1st'
p5016
aI2517
aa(lp5017
S'Moderate-to-severe'
p5018
aI2518
aa(lp5019
S'Are'
p5020
aI2519
aa(lp5021
S'raising'
p5022
aI2520
aa(lp5023
S'Interposition'
p5024
aI2521
aa(lp5025
S'blunted,'
p5026
aI2522
aa(lp5027
S'transection.'
p5028
aI2523
aa(lp5029
S'T12-L1'
p5030
aI2524
aa(lp5031
S'congenital'
p5032
aI2525
aa(lp5033
S'developmental'
p5034
aI2526
aa(lp5035
S'Contours'
p5036
aI2527
aa(lp5037
S'Unremarkable.'
p5038
aI2528
aa(lp5039
S'shaped'
p5040
aI2529
aa(lp5041
S'cyst.'
p5042
aI2530
aa(lp5043
S'manifestations'
p5044
aI2531
aa(lp5045
S'for<BR>metastatic'
p5046
aI2532
aa(lp5047
S'apparently'
p5048
aI2533
aa(lp5049
S'full'
p5050
aI2534
aa(lp5051
S'anterior-superior'
p5052
aI2535
aa(lp5053
S'liver,'
p5054
aI2536
aa(lp5055
S'hepatic'
p5056
aI2537
aa(lp5057
S'postsurgical,'
p5058
aI2538
aa(lp5059
S'airway/bronchitic'
p5060
aI2539
aa(lp5061
S'verterbroplasty'
p5062
aI2540
aa(lp5063
S'inserted'
p5064
aI2541
aa(lp5065
S'Hips'
p5066
aI2542
aa(lp5067
S'dislocations,'
p5068
aI2543
aa(lp5069
S'16'
p5070
aI2544
aa(lp5071
S'radiographs..'
p5072
aI2545
aa(lp5073
S'severely'
p5074
aI2546
aa(lp5075
S'intussusception'
p5076
aI2547
aa(lp5077
S'SVC;'
p5078
aI2548
aa(lp5079
S'abnormally'
p5080
aI2549
aa(lp5081
S'subglottic'
p5082
aI2550
aa(lp5083
S'Perhaps'
p5084
aI2551
aa(lp5085
S'spinal.'
p5086
aI2552
aa(lp5087
S'here'
p5088
aI2553
aa(lp5089
S'First'
p5090
aI2554
aa(lp5091
S'indolent'
p5092
aI2555
aa(lp5093
S'study..'
p5094
aI2556
aa(lp5095
S'Hip'
p5096
aI2557
aa(lp5097
S'Ureteral'
p5098
aI2558
aa(lp5099
S'progression,'
p5100
aI2559
aa(lp5101
S'nonrib-bearing'
p5102
aI2560
aa(lp5103
S'Discrete'
p5104
aI2561
aa(lp5105
S'Sacroiliac'
p5106
aI2562
aa(lp5107
S'broken,'
p5108
aI2563
aa(lp5109
S'aorticopulmonary'
p5110
aI2564
aa(lp5111
S'systems.'
p5112
aI2565
aa(lp5113
S'nonconsolidating'
p5114
aI2566
aa(lp5115
S'patient..'
p5116
aI2567
aa(lp5117
S'upward.'
p5118
aI2568
aa(lp5119
S'advancement'
p5120
aI2569
aa(lp5121
S'Device'
p5122
aI2570
aa(lp5123
S'retraction,'
p5124
aI2571
aa(lp5125
S'Skin'
p5126
aI2572
aa(lp5127
S'persistent,'
p5128
aI2573
aa(lp5129
S'previous/chronic'
p5130
aI2574
aa(lp5131
S'area.'
p5132
aI2575
aa(lp5133
S'4XXXX'
p5134
aI2576
aa(lp5135
S'Broken'
p5136
aI2577
aa(lp5137
S'5-6'
p5138
aI2578
aa(lp5139
S'showing'
p5140
aI2579
aa(lp5141
S'centimeters'
p5142
aI2580
aa(lp5143
S'radiating'
p5144
aI2581
aa(lp5145
S'pleura'
p5146
aI2582
aa(lp5147
S'bordered'
p5148
aI2583
aa(lp5149
S'pneumomediastinum'
p5150
aI2584
aa(lp5151
S'calcification,'
p5152
aI2585
aa(lp5153
S'convex'
p5154
aI2586
aa(lp5155
S'recalled'
p5156
aI2587
aa(lp5157
S'segment.'
p5158
aI2588
aa(lp5159
S'posterobasal'
p5160
aI2589
aa(lp5161
S'segment,'
p5162
aI2590
aa(lp5163
S'employed'
p5164
aI2591
aa(lp5165
S'postinfectious/postinflammatory.'
p5166
aI2592
aa(lp5167
S'Markedly'
p5168
aI2593
aa(lp5169
S'mentally'
p5170
aI2594
aa(lp5171
S'primordial'
p5172
aI2595
aa(lp5173
S'positioning'
p5174
aI2596
aa(lp5175
S'device.'
p5176
aI2597
aa(lp5177
S'Based'
p5178
aI2598
aa(lp5179
S'room'
p5180
aI2599
aa(lp5181
S'passes'
p5182
aI2600
aa(lp5183
S'visualization'
p5184
aI2601
aa(lp5185
S'age,'
p5186
aI2602
aa(lp5187
S'effusion/pneumothorax.'
p5188
aI2603
aa(lp5189
S'COPD;'
p5190
aI2604
aa(lp5191
S'parapneumonic'
p5192
aI2605
aa(lp5193
S'Dextro-convex'
p5194
aI2606
aa(lp5195
S'tubular'
p5196
aI2607
aa(lp5197
S'notify'
p5198
aI2608
aa(lp5199
S'nasopharynx'
p5200
aI2609
aa(lp5201
S'referring'
p5202
aI2610
aa(lp5203
S'thin-walled'
p5204
aI2611
aa(lp5205
S'demonstrated..'
p5206
aI2612
aa(lp5207
S'previously.'
p5208
aI2613
aa(lp5209
S'origin.'
p5210
aI2614
aa(lp5211
S'traverses'
p5212
aI2615
aa(lp5213
S'non'
p5214
aI2616
aa(lp5215
S'anchor'
p5216
aI2617
aa(lp5217
S'gallstone.'
p5218
aI2618
aa(lp5219
S'anchors.'
p5220
aI2619
aa(lp5221
S'postsurgical/post'
p5222
aI2620
aa(lp5223
S'paralysis.'
p5224
aI2621
aa(lp5225
S'lobectomy,'
p5226
aI2622
aa(lp5227
S'fluoroscopic'
p5228
aI2623
aa(lp5229
S'physicians'
p5230
aI2624
aa(lp5231
S'confirmation.'
p5232
aI2625
aa(lp5233
S'anomaly'
p5234
aI2626
aa(lp5235
S'T12-L1.'
p5236
aI2627
aa(lp5237
S'side,'
p5238
aI2628
aa(lp5239
S'fragments,'
p5240
aI2629
aa(lp5241
S'discordant'
p5242
aI2630
aa(lp5243
S'my'
p5244
aI2631
aa(lp5245
S'structure.'
p5246
aI2632
aa(lp5247
S'interpretation'
p5248
aI2633
aa(lp5249
S'occult'
p5250
aI2634
aa(lp5251
S'(blunting'
p5252
aI2635
aa(lp5253
S'thickening/scar.'
p5254
aI2636
aa(lp5255
S'comparisons,'
p5256
aI2637
aa(lp5257
S'suspicion,'
p5258
aI2638
aa(lp5259
S'Without'
p5260
aI2639
aa(lp5261
S'High-resolution'
p5262
aI2640
aa(lp5263
S'pulmonic'
p5264
aI2641
aa(lp5265
S'neoplastic'
p5266
aI2642
aa(lp5267
S'exclusion'
p5268
aI2643
aa(lp5269
S'Reduced'
p5270
aI2644
aa(lp5271
S'Included'
p5272
aI2645
aa(lp5273
S'units.'
p5274
aI2646
aa(lp5275
S'organomegaly'
p5276
aI2647
aa(lp5277
S'resolve,'
p5278
aI2648
aa(lp5279
S'Small,'
p5280
aI2649
aa(lp5281
S'bilateral.'
p5282
aI2650
aa(lp5283
S'hemorrhage.'
p5284
aI2651
aa(lp5285
S'Concerning'
p5286
aI2652
aa(lp5287
S'maximal'
p5288
aI2653
aa(lp5289
S'look'
p5290
aI2654
aa(lp5291
S'infiltrative'
p5292
aI2655
aa(lp5293
S'hemopneumothorax'
p5294
aI2656
aa(lp5295
S'approach'
p5296
aI2657
aa(lp5297
S'resolve'
p5298
aI2658
aa(lp5299
S'demonstrable'
p5300
aI2659
aa(lp5301
S'reaches'
p5302
aI2660
aa(lp5303
S'confluence.'
p5304
aI2661
aa(lp5305
S'Essentially'
p5306
aI2662
aa(lp5307
S'artifactual,'
p5308
aI2663
aa(lp5309
S'retention'
p5310
aI2664
aa(lp5311
S'XXXX:'
p5312
aI2665
aa(lp5313
S'space,'
p5314
aI2666
aa(lp5315
S'Artifact'
p5316
aI2667
aa(lp5317
S'infiltrate..'
p5318
aI2668
aa(lp5319
S'surface'
p5320
aI2669
aa(lp5321
S'long-term'
p5322
aI2670
aa(lp5323
S'short-term'
p5324
aI2671
aa(lp5325
S'Hyperexpansion,'
p5326
aI2672
aa(lp5327
S'hemithorax,'
p5328
aI2673
aa(lp5329
S'months.'
p5330
aI2674
aa(lp5331
S'scoliosis,'
p5332
aI2675
aa(lp5333
S'reformatted'
p5334
aI2676
aa(lp5335
S'institution.'
p5336
aI2677
aa(lp5337
S'Obscured'
p5338
aI2678
aa(lp5339
S'Malignancy'
p5340
aI2679
aa(lp5341
S'closely'
p5342
aI2680
aa(lp5343
S'confidently'
p5344
aI2681
aa(lp5345
S'hypodense'
p5346
aI2682
aa(lp5347
S'convexity.'
p5348
aI2683
aa(lp5349
S'reduction'
p5350
aI2684
aa(lp5351
S'torturous'
p5352
aI2685
aa(lp5353
S'nephrostomy'
p5354
aI2686
aa(lp5355
S'Irregular,'
p5356
aI2687
aa(lp5357
S'hematoma'
p5358
aI2688
aa(lp5359
S'reformats.'
p5360
aI2689
aa(lp5361
S'(this'
p5362
aI2690
aa(lp5363
S'EKG'
p5364
aI2691
aa(lp5365
S'clarification.'
p5366
aI2692
aa(lp5367
S'XXXX).'
p5368
aI2693
aa(lp5369
S'bacterial'
p5370
aI2694
aa(lp5371
S'engorged'
p5372
aI2695
aa(lp5373
S'side'
p5374
aI2696
aa(lp5375
S'Spinal'
p5376
aI2697
aa(lp5377
S'investigation'
p5378
aI2698
aa(lp5379
S'mechanism'
p5380
aI2699
aa(lp5381
S'fossae.'
p5382
aI2700
aa(lp5383
S'supraclavicular'
p5384
aI2701
aa(lp5385
S'suspicion'
p5386
aI2702
aa(lp5387
S'Depending'
p5388
aI2703
aa(lp5389
S'smooth.'
p5390
aI2704
aa(lp5391
S'shrapnel'
p5392
aI2705
aa(lp5393
S'endotracheal'
p5394
aI2706
aa(lp5395
S'(XXXX),'
p5396
aI2707
aa(lp5397
S'stripe'
p5398
aI2708
aa(lp5399
S'T11.'
p5400
aI2709
aa(lp5401
S'Chronic-appearing'
p5402
aI2710
aa(lp5403
S'Department'
p5404
aI2711
aa(lp5405
S'diverticula'
p5406
aI2712
aa(lp5407
S'anterolisthesis'
p5408
aI2713
aa(lp5409
S'elsewhere'
p5410
aI2714
aa(lp5411
S'flexure'
p5412
aI2715
aa(lp5413
S'axilla'
p5414
aI2716
aa(lp5415
S'smaller.'
p5416
aI2717
aa(lp5417
S'0.9'
p5418
aI2718
aa(lp5419
S'staff'
p5420
aI2719
aa(lp5421
S'radiologist'
p5422
aI2720
aa(lp5423
S'Nonemergent'
p5424
aI2721
aa(lp5425
S'T4'
p5426
aI2722
aa(lp5427
S'Flattening'
p5428
aI2723
aa(lp5429
S'configuration,'
p5430
aI2724
aa(lp5431
S'seems'
p5432
aI2725
aa(lp5433
S'detail'
p5434
aI2726
aa(lp5435
S'bronchiectatic'
p5436
aI2727
aa(lp5437
S'condition.'
p5438
aI2728
aa(lp5439
S'consolidated.'
p5440
aI2729
aa(lp5441
S'direct'
p5442
aI2730
aa(lp5443
S'sinus,'
p5444
aI2731
aa(lp5445
S'Portacatheter'
p5446
aI2732
aa(lp5447
S'nondiagnostic'
p5448
aI2733
aa(lp5449
S'effort'
p5450
aI2734
aa(lp5451
S'atrium/cavoatrial'
p5452
aI2735
aa(lp5453
S'peritracheal'
p5454
aI2736
aa(lp5455
S'inthe'
p5456
aI2737
aa(lp5457
S'B-lines.'
p5458
aI2738
aa(lp5459
S'oval,'
p5460
aI2739
aa(lp5461
S'attenuation.'
p5462
aI2740
aa(lp5463
S'Radiodensity'
p5464
aI2741
aa(lp5465
S'become'
p5466
aI2742
aa(lp5467
S'jewelry.'
p5468
aI2743
aa(lp5469
S'actual'
p5470
aI2744
aa(lp5471
S'6.4'
p5472
aI2745
aa(lp5473
S'results.'
p5474
aI2746
aa(lp5475
S'correlated'
p5476
aI2747
aa(lp5477
S'fat,'
p5478
aI2748
aa(lp5479
S'cartilages'
p5480
aI2749
aa(lp5481
S'Lucencies'
p5482
aI2750
aa(lp5483
S'fullness.'
p5484
aI2751
aa(lp5485
S'reference'
p5486
aI2752
aa(lp5487
S'scarring;'
p5488
aI2753
aa(lp5489
S'magnified'
p5490
aI2754
aa(lp5491
S'Chondral'
p5492
aI2755
aa(lp5493
S'ruled'
p5494
aI2756
aa(lp5495
S'hypertrophy.'
p5496
aI2757
aa(lp5497
S'curvature.'
p5498
aI2758
aa(lp5499
S'3.0'
p5500
aI2759
aa(lp5501
S'out.'
p5502
aI2760
aa(lp5503
S'epipericardial'
p5504
aI2761
aa(lp5505
S'mid/lower'
p5506
aI2762
aa(lp5507
S'opacities;'
p5508
aI2763
aa(lp5509
S'repair'
p5510
aI2764
aa(lp5511
S'sent.'
p5512
aI2765
aa(lp5513
S'extreme'
p5514
aI2766
aa(lp5515
S'identity.'
p5516
aI2767
aa(lp5517
S'pads,'
p5518
aI2768
aa(lp5519
S'clear..'
p5520
aI2769
aa(lp5521
S'artifactual'
p5522
aI2770
aa(lp5523
S'chest/abdomen'
p5524
aI2771
aa(lp5525
S'emphysema,'
p5526
aI2772
aa(lp5527
S'possibility.'
p5528
aI2773
aa(lp5529
S'Abdomen:'
p5530
aI2774
aa(lp5531
S'2nd'
p5532
aI2775
aa(lp5533
S'decreased,'
p5534
aI2776
aa(lp5535
S'cm,'
p5536
aI2777
aa(lp5537
S'6.8'
p5538
aI2778
aa(lp5539
S'sign'
p5540
aI2779
aa(lp5541
S'pedicle/upper'
p5542
aI2780
aa(lp5543
S'Removal'
p5544
aI2781
aa(lp5545
S'collections'
p5546
aI2782
aa(lp5547
S'overlying.'
p5548
aI2783
aa(lp5549
S'Coarsened'
p5550
aI2784
aa(lp5551
S'processes.'
p5552
aI2785
aa(lp5553
S'representative'
p5554
aI2786
aa(lp5555
S'suited'
p5556
aI2787
aa(lp5557
S'Remote'
p5558
aI2788
aa(lp5559
S'exclude.'
p5560
aI2789
aa(lp5561
S'informed'
p5562
aI2790
aa(lp5563
S'XXXX-'
p5564
aI2791
aa(lp5565
S'femur.'
p5566
aI2792
aa(lp5567
S'fragment..'
p5568
aI2793
aa(lp5569
S'appearances'
p5570
aI2794
aa(lp5571
S'interspace'
p5572
aI2795
aa(lp5573
S'1.1'
p5574
aI2796
aa(lp5575
S'interspaces'
p5576
aI2797
aa(lp5577
S'Femur.'
p5578
aI2798
aa(lp5579
S'hypoventilatory'
p5580
aI2799
aa(lp5581
S'subcapital'
p5582
aI2800
aa(lp5583
S'metastases'
p5584
aI2801
aa(lp5585
S'Adjacent'
p5586
aI2802
aa(lp5587
S'disease/fibrosis.'
p5588
aI2803
aa(lp5589
S'Interface'
p5590
aI2804
aa(lp5591
S'worrisome.'
p5592
aI2805
aa(lp5593
S'Over'
p5594
aI2806
aa(lp5595
S'reaction'
p5596
aI2807
aa(lp5597
S'From'
p5598
aI2808
aa(lp5599
S'arteries/pulmonary'
p5600
aI2809
aa(lp5601
S'EVALUATION.'
p5602
aI2810
aa(lp5603
S'FURTHER'
p5604
aI2811
aa(lp5605
S'FOR'
p5606
aI2812
aa(lp5607
S'CHEST'
p5608
aI2813
aa(lp5609
S'certainty'
p5610
aI2814
aa(lp5611
S'Uncertain'
p5612
aI2815
aa(lp5613
S'something'
p5614
aI2816
aa(lp5615
S'Centered'
p5616
aI2817
aa(lp5617
S'comparisons'
p5618
aI2818
aa(lp5619
S'bullae.'
p5620
aI2819
aa(lp5621
S'FINDINGS'
p5622
aI2820
aa(lp5623
S'COULD'
p5624
aI2821
aa(lp5625
S'REPRESENT'
p5626
aI2822
aa(lp5627
S'RESOLVING'
p5628
aI2823
aa(lp5629
S'HISTOPLASMOSIS'
p5630
aI2824
aa(lp5631
S'INFECTION,'
p5632
aI2825
aa(lp5633
S'SARCOIDOSIS,'
p5634
aI2826
aa(lp5635
S'MALIGNANCY'
p5636
aI2827
aa(lp5637
S'AS'
p5638
aI2828
aa(lp5639
S'LYMPHOMA'
p5640
aI2829
aa(lp5641
S'PRIMARY'
p5642
aI2830
aa(lp5643
S'LUNG'
p5644
aI2831
aa(lp5645
S'CANCER.'
p5646
aI2832
aa(lp5647
S'RECOMMEND'
p5648
aI2833
aa(lp5649
S'CONTRAST-ENHANCED'
p5650
aI2834
aa(lp5651
S'popliteal'
p5652
aI2835
aa(lp5653
S'osteoporosis'
p5654
aI2836
aa(lp5655
S'normal.No'
p5656
aI2837
aa(lp5657
S'CTA'
p5658
aI2838
aa(lp5659
S'Other'
p5660
aI2839
aa(lp5661
S'etiologies'
p5662
aI2840
aa(lp5663
S'mycoplasma'
p5664
aI2841
aa(lp5665
S'Ordering'
p5666
aI2842
aa(lp5667
S'high-resolution'
p5668
aI2843
aa(lp5669
S'well-aerated'
p5670
aI2844
aa(lp5671
S'We'
p5672
aI2845
aa(lp5673
S'bulge'
p5674
aI2846
aa(lp5675
S'spondylitic'
p5676
aI2847
aa(lp5677
S'aneurysmal'
p5678
aI2848
aa(lp5679
S'arteries,'
p5680
aI2849
aa(lp5681
S'interim.'
p5682
aI2850
aa(lp5683
S'Hyperaerated'
p5684
aI2851
aa(lp5685
S'setting,'
p5686
aI2852
aa(lp5687
S'infection/pneumonia'
p5688
aI2853
aa(lp5689
S'radiography'
p5690
aI2854
aa(lp5691
S'discordant,'
p5692
aI2855
aa(lp5693
S'Indistinct'
p5694
aI2856
aa(lp5695
S'disease/infiltrate.'
p5696
aI2857
aa(lp5697
S'calcium.'
p5698
aI2858
aa(lp5699
S'densities,'
p5700
aI2859
aa(lp5701
S'support.'
p5702
aI2860
aa(lp5703
S'spread'
p5704
aI2861
aa(lp5705
S'lymphangitic'
p5706
aI2862
aa(lp5707
S'Less'
p5708
aI2863
aa(lp5709
S'artifactually'
p5710
aI2864
aa(lp5711
S'relating'
p5712
aI2865
aa(lp5713
S'vena'
p5714
aI2866
aa(lp5715
S'fusion,'
p5716
aI2867
aa(lp5717
S'Femur'
p5718
aI2868
aa(lp5719
S'Middle'
p5720
aI2869
aa(lp5721
S'pelvic'
p5722
aI2870
aa(lp5723
S'impacted'
p5724
aI2871
aa(lp5725
S'Scoliotic'
p5726
aI2872
aa(lp5727
S'scan,'
p5728
aI2873
aa(lp5729
S'groundglass'
p5730
aI2874
aa(lp5731
S'2.6'
p5732
aI2875
aa(lp5733
S'Comparison:'
p5734
aI2876
aa(lp5735
S'sarcoid.'
p5736
aI2877
aa(lp5737
S'Widening'
p5738
aI2878
aa(lp5739
S'sarcoid,'
p5740
aI2879
aa(lp5741
S'anchors'
p5742
aI2880
aa(lp5743
S'base..'
p5744
aI2881
aa(lp5745
S'superimposes'
p5746
aI2882
aa(lp5747
S'clavicles.'
p5748
aI2883
aa(lp5749
S'Nonspecific,'
p5750
aI2884
aa(lp5751
S'Tubular'
p5752
aI2885
aa(lp5753
S'ring-shaped'
p5754
aI2886
aa(lp5755
S'subjacent'
p5756
aI2887
aa(lp5757
S'XXXX/1Mild'
p5758
aI2888
aa(lp5759
S'Incompletely'
p5760
aI2889
aa(lp5761
S'stable/unremarkable'
p5762
aI2890
aa(lp5763
S'Reconstructed'
p5764
aI2891
aa(lp5765
S'1.3'
p5766
aI2892
aa(lp5767
S'hydropneumothorax,'
p5768
aI2893
aa(lp5769
S'Tuberculosis'
p5770
aI2894
aa(lp5771
S'extension'
p5772
aI2895
aa(lp5773
S'as,'
p5774
aI2896
aa(lp5775
S'fracture-dislocation.'
p5776
aI2897
aa(lp5777
S'suprapatellar'
p5778
aI2898
aa(lp5779
S'prosthesis,'
p5780
aI2899
aa(lp5781
S'02/010/XXXX.'
p5782
aI2900
aa(lp5783
S'pm'
p5784
aI2901
aa(lp5785
S'orthopedic'
p5786
aI2902
aa(lp5787
S'attention'
p5788
aI2903
aa(lp5789
S'narrowed.'
p5790
aI2904
aa(lp5791
S'necks.'
p5792
aI2905
aa(lp5793
S'lateral,'
p5794
aI2906
aa(lp5795
S'decubitus.'
p5796
aI2907
aa(lp5797
S'Osteophytes'
p5798
aI2908
aa(lp5799
S'centrilobular'
p5800
aI2909
aa(lp5801
S'oligemia'
p5802
aI2910
aa(lp5803
S'extremity.'
p5804
aI2911
aa(lp5805
S'performed).'
p5806
aI2912
aa(lp5807
S'recently'
p5808
aI2913
aa(lp5809
S'(unless'
p5810
aI2914
aa(lp5811
S'cancer,'
p5812
aI2915
aa(lp5813
S'prostheses.'
p5814
aI2916
aa(lp5815
S'Wide'
p5816
aI2917
aa(lp5817
S'anteriorly.'
p5818
aI2918
aa(lp5819
S'described.'
p5820
aI2919
aa(lp5821
S'clavicles'
p5822
aI2920
aa(lp5823
S'duct.'
p5824
aI2921
aa(lp5825
S'osteoporosis.'
p5826
aI2922
aa(lp5827
S'flattened.'
p5828
aI2923
aa(lp5829
S'bile'
p5830
aI2924
aa(lp5831
S'Dextroconvex'
p5832
aI2925
aa(lp5833
S'midclavicular'
p5834
aI2926
aa(lp5835
S'reduced'
p5836
aI2927
aa(lp5837
S'crowded'
p5838
aI2928
aa(lp5839
S'exact'
p5840
aI2929
aa(lp5841
S'38'
p5842
aI2930
aa(lp5843
S'geographic'
p5844
aI2931
aa(lp5845
S'1A'
p5846
aI2932
aa(lp5847
S'margins.'
p5848
aI2933
aa(lp5849
S'geode'
p5850
aI2934
aa(lp5851
S'desired,'
p5852
aI2935
aa(lp5853
S'prostate'
p5854
aI2936
aa(lp5855
S'Emphysema,'
p5856
aI2937
aa(lp5857
S'interrupted,'
p5858
aI2938
aa(lp5859
S'aspiration'
p5860
aI2939
aa(lp5861
S'pleuritis'
p5862
aI2940
aa(lp5863
S'pancreatitis.'
p5864
aI2941
aa(lp5865
S'perihilar/upper'
p5866
aI2942
aa(lp5867
S'abut'
p5868
aI2943
aa(lp5869
S'Consideration'
p5870
aI2944
aa(lp5871
S'therapy.'
p5872
aI2945
aa(lp5873
S'More'
p5874
aI2946
aa(lp5875
S"XXXX't"
p5876
aI2947
aa(lp5877
S'Fat'
p5878
aI2948
aa(lp5879
S'telemetry'
p5880
aI2949
aa(lp5881
S'pannus.'
p5882
aI2950
aa(lp5883
S'thorax,'
p5884
aI2951
aa(lp5885
S'beyond'
p5886
aI2952
aa(lp5887
S'fold'
p5888
aI2953
aa(lp5889
S'5.9'
p5890
aI2954
aa(lp5891
S'Strandy'
p5892
aI2955
aa(lp5893
S'Clear,'
p5894
aI2956
aa(lp5895
S'hyperaerated'
p5896
aI2957
aa(lp5897
S'doctor'
p5898
aI2958
aa(lp5899
S"XXXX'"
p5900
aI2959
aa(lp5901
S'service'
p5902
aI2960
aa(lp5903
S'142'
p5904
aI2961
aa(lp5905
S'sympathetic'
p5906
aI2962
aa(lp5907
S'Platelike'
p5908
aI2963
aa(lp5909
S'contributes'
p5910
aI2964
aa(lp5911
S'knees'
p5912
aI2965
aa(lp5913
S'currently'
p5914
aI2966
aa(lp5915
S'Suture'
p5916
aI2967
aa(lp5917
S'overlay'
p5918
aI2968
aa(lp5919
S'inability.'
p5920
aI2969
aa(lp5921
S'Dual-lumen'
p5922
aI2970
aa(lp5923
S'concomitant'
p5924
aI2971
aa(lp5925
S'sent'
p5926
aI2972
aa(lp5927
S'superimposition'
p5928
aI2973
aa(lp5929
S'making'
p5930
aI2974
aa(lp5931
S'noncontrasted'
p5932
aI2975
aa(lp5933
S'enhanced'
p5934
aI2976
aa(lp5935
S'malignancy?'
p5936
aI2977
aa(lp5937
S'Somewhat'
p5938
aI2978
aa(lp5939
S'sarcoidosis'
p5940
aI2979
aa(lp5941
S'rule-out'
p5942
aI2980
aa(lp5943
S'fracture;'
p5944
aI2981
aa(lp5945
S'six'
p5946
aI2982
aa(lp5947
S'degenerate'
p5948
aI2983
aa(lp5949
S'Early'
p5950
aI2984
aa(lp5951
S'cerclage'
p5952
aI2985
aa(lp5953
S'knees.'
p5954
aI2986
aa(lp5955
S'muscles'
p5956
aI2987
aa(lp5957
S'atelectasis.Catheter'
p5958
aI2988
aa(lp5959
S'suction'
p5960
aI2989
aa(lp5961
S'exaggeration'
p5962
aI2990
aa(lp5963
S'crosses'
p5964
aI2991
aa(lp5965
S'scars'
p5966
aI2992
aa(lp5967
S'pseudofissure.'
p5968
aI2993
aa(lp5969
S'Patchy,'
p5970
aI2994
aa(lp5971
S'site'
p5972
aI2995
aa(lp5973
S'Portable'
p5974
aI2996
aa(lp5975
S'airways,'
p5976
aI2997
aa(lp5977
S'exchanged'
p5978
aI2998
aa(lp5979
S'exchange.'
p5980
aI2999
aa(lp5981
S'indwelling'
p5982
aI3000
aa(lp5983
S'addition'
p5984
aI3001
aa(lp5985
S'postprocedural'
p5986
aI3002
aa(lp5987
S'disruption.'
p5988
aI3003
aa(lp5989
S'marking.'
p5990
aI3004
aa(lp5991
S'streakiness'
p5992
aI3005
aa(lp5993
S'streakiness,'
p5994
aI3006
aa(lp5995
S'loculated.'
p5996
aI3007
aa(lp5997
S'tracking'
p5998
aI3008
aa(lp5999
S'Following'
p6000
aI3009
aa(lp6001
S'ossifications'
p6002
aI3010
aa(lp6003
S'infraclavicular'
p6004
aI3011
aa(lp6005
S'fractured'
p6006
aI3012
aa(lp6007
S'crowding/atelectasis.'
p6008
aI3013
aa(lp6009
S'histoplasmoma.'
p6010
aI3014
aa(lp6011
S'mid-thoracic'
p6012
aI3015
aa(lp6013
S'difference'
p6014
aI3016
aa(lp6015
S'syndesmophyte.'
p6016
aI3017
aa(lp6017
S'effusion.Heart'
p6018
aI3018
aa(lp6019
S'limits.Minimal'
p6020
aI3019
aa(lp6021
S'previously<BR>described'
p6022
aI3020
aa(lp6023
S'Overexpanded'
p6024
aI3021
aa(lp6025
S'density,'
p6026
aI3022
aa(lp6027
S'bone.'
p6028
aI3023
aa(lp6029
S'Reticulonodular'
p6030
aI3024
aa(lp6031
S'subcentimeter'
p6032
aI3025
aa(lp6033
S'alternatively,'
p6034
aI3026
aa(lp6035
S'strongly'
p6036
aI3027
aa(lp6037
S'zone,'
p6038
aI3028
aa(lp6039
S'define'
p6040
aI3029
aa(lp6041
S'sided.'
p6042
aI3030
aa(lp6043
S'Mixed'
p6044
aI3031
aa(lp6045
S'distributed'
p6046
aI3032
aa(lp6047
S'Obliquely'
p6048
aI3033
aa(lp6049
S'transverse,'
p6050
aI3034
aa(lp6051
S'aorto'
p6052
aI3035
aa(lp6053
S'iliac'
p6054
aI3036
aa(lp6055
S'suggest.'
p6056
aI3037
aa(lp6057
S'underpenetrated'
p6058
aI3038
aa(lp6059
S'embolization'
p6060
aI3039
aa(lp6061
S'is.'
p6062
aI3040
aa(lp6063
S'underinflated,'
p6064
aI3041
aa(lp6065
S'Constellation'
p6066
aI3042
aa(lp6067
S'Monitoring'
p6068
aI3043
aa(lp6069
S'artifacts.'
p6070
aI3044
aa(lp6071
S'Air-fluid'
p6072
aI3045
aa(lp6073
S'lumen'
p6074
aI3046
aa(lp6075
S'entering'
p6076
aI3047
aa(lp6077
S'approach.'
p6078
aI3048
aa(lp6079
S'incidentally.'
p6080
aI3049
aa(lp6081
S'treatment.'
p6082
aI3050
aa(lp6083
S'Currently,'
p6084
aI3051
aa(lp6085
S'underinflation,'
p6086
aI3052
aa(lp6087
S'4.8'
p6088
aI3053
aa(lp6089
S'Osteophytic'
p6090
aI3054
aa(lp6091
S'skinfold.'
p6092
aI3055
aa(lp6093
S'With'
p6094
aI3056
aa(lp6095
S'dissection,'
p6096
aI3057
aa(lp6097
S'Progressive'
p6098
aI3058
aa(lp6099
S'T9.'
p6100
aI3059
aa(lp6101
S'persistence'
p6102
aI3060
aa(lp6103
S'Posttraumatic'
p6104
aI3061
aa(lp6105
S'subluxation/dislocation'
p6106
aI3062
aa(lp6107
S'shoulder,'
p6108
aI3063
aa(lp6109
S'congestion,'
p6110
aI3064
aa(lp6111
S'revascularization.'
p6112
aI3065
aa(lp6113
S'myocardial'
p6114
aI3066
aa(lp6115
S'raises'
p6116
aI3067
aa(lp6117
S'arising'
p6118
aI3068
aa(lp6119
S'radiology'
p6120
aI3069
aa(lp6121
S'previous,'
p6122
aI3070
aa(lp6123
S'T1Degenerative'
p6124
aI3071
aa(lp6125
S'Abdominal'
p6126
aI3072
aa(lp6127
S'deformity,'
p6128
aI3073
aa(lp6129
S'T1Unchanged'
p6130
aI3074
aa(lp6131
S'needed,'
p6132
aI3075
aa(lp6133
S'MRI.'
p6134
aI3076
aa(lp6135
S'conveyed'
p6136
aI3077
aa(lp6137
S'Primordial'
p6138
aI3078
aa(lp6139
S'communication'
p6140
aI3079
aa(lp6141
S'redemonstrated'
p6142
aI3080
aa(lp6143
S'moderately-inflated'
p6144
aI3081
aa(lp6145
S'chondral'
p6146
aI3082
aa(lp6147
S'Drainage'
p6148
aI3083
aa(lp6149
S'body(lateral'
p6150
aI3084
aa(lp6151
S'caudal'
p6152
aI3085
aa(lp6153
S'Fractured'
p6154
aI3086
aa(lp6155
S'Implantable'
p6156
aI3087
aa(lp6157
S'Accentuated'
p6158
aI3088
aa(lp6159
S'11'
p6160
aI3089
aa(lp6161
S'Well'
p6162
aI3090
aa(lp6163
S'midlower'
p6164
aI3091
aa(lp6165
S'evaluated,'
p6166
aI3092
aa(lp6167
S'Two-view'
p6168
aI3093
aa(lp6169
S'Hindfoot,'
p6170
aI3094
aa(lp6171
S'midfoot,'
p6172
aI3095
aa(lp6173
S'forefoot'
p6174
aI3096
aa(lp6175
S'100%.'
p6176
aI3097
aa(lp6177
S'Right-to-left'
p6178
aI3098
aa(lp6179
S'physiology.'
p6180
aI3099
aa(lp6181
S'tract'
p6182
aI3100
aa(lp6183
S'XXXX-filled'
p6184
aI3101
aa(lp6185
S'convexity,'
p6186
aI3102
aa(lp6187
S'retrolisthesis'
p6188
aI3103
aa(lp6189
S'Skeletal'
p6190
aI3104
aa(lp6191
S'Retrolisthesis'
p6192
aI3105
aa(lp6193
S'rotation,'
p6194
aI3106
aa(lp6195
S'distending'
p6196
aI3107
aa(lp6197
S'stomach,'
p6198
aI3108
aa(lp6199
S'crescentic'
p6200
aI3109
aa(lp6201
S'muscular'
p6202
aI3110
aa(lp6203
S'extends'
p6204
aI3111
aa(lp6205
S'Concern'
p6206
aI3112
aa(lp6207
S'Verification'
p6208
aI3113
aa(lp6209
S'out'
p6210
aI3114
aa(lp6211
S'costodiaphragmatic'
p6212
aI3115
aa(lp6213
S'plateaus.'
p6214
aI3116
aa(lp6215
S'tibial'
p6216
aI3117
aa(lp6217
S'narrow.'
p6218
aI3118
aa(lp6219
S'thoraco'
p6220
aI3119
aa(lp6221
S'comminuted'
p6222
aI3120
aa(lp6223
S'thirds'
p6224
aI3121
aa(lp6225
S'superiorly'
p6226
aI3122
aa(lp6227
S'25%'
p6228
aI3123
aa(lp6229
S'Glenohumeral'
p6230
aI3124
aa(lp6231
S'preserved'
p6232
aI3125
aa(lp6233
S'subluxation'
p6234
aI3126
aa(lp6235
S'pathology;'
p6236
aI3127
aa(lp6237
S'dysmorphic'
p6238
aI3128
aa(lp6239
S'ossification'
p6240
aI3129
aa(lp6241
S'superolateral'
p6242
aI3130
aa(lp6243
S'angulate.'
p6244
aI3131
aa(lp6245
S'bullets'
p6246
aI3132
aa(lp6247
S'vasculaturity'
p6248
aI3133
aa(lp6249
S'infectious,'
p6250
aI3134
aa(lp6251
S'contusion'
p6252
aI3135
aa(lp6253
S'Scoliosis.'
p6254
aI3136
aa(lp6255
S'Associated'
p6256
aI3137
aa(lp6257
S'stabilization'
p6258
aI3138
aa(lp6259
S'dystrophy'
p6260
aI3139
aa(lp6261
S'laparoscopic'
p6262
aI3140
aa(lp6263
S'electrodes,'
p6264
aI3141
aa(lp6265
S'Spondylosis'
p6266
aI3142
aa(lp6267
S'lobe/lingula'
p6268
aI3143
aa(lp6269
S'hump.'
p6270
aI3144
aa(lp6271
S'unilateral'
p6272
aI3145
aa(lp6273
S'ring.'
p6274
aI3146
aa(lp6275
S'malignancy,'
p6276
aI3147
aa(lp6277
S'cross-sectional'
p6278
aI3148
aa(lp6279
S'verify.'
p6280
aI3149
aa(lp6281
S'appearing,'
p6282
aI3150
aa(lp6283
S'granulomatous.'
p6284
aI3151
aa(lp6285
S'granulomatous,'
p6286
aI3152
aa(lp6287
S'visible.'
p6288
aI3153
aa(lp6289
S'persists,'
p6290
aI3154
aa(lp6291
S'institutions'
p6292
aI3155
aa(lp6293
S'kidneys,'
p6294
aI3156
aa(lp6295
S'radiography.'
p6296
aI3157
aa(lp6297
S'1.Lucency'
p6298
aI3158
aa(lp6299
S'Generative'
p6300
aI3159
aa(lp6301
S'bihilar'
p6302
aI3160
aa(lp6303
S'Bihilar'
p6304
aI3161
aa(lp6305
S'lymphoid'
p6306
aI3162
aa(lp6307
S'extraluminal'
p6308
aI3163
aa(lp6309
S'attributed'
p6310
aI3164
aa(lp6311
S'diaphragmatic'
p6312
aI3165
aa(lp6313
S'inspiration'
p6314
aI3166
aa(lp6315
S'infiltrate/atelectasis'
p6316
aI3167
aa(lp6317
S'Suboptimal'
p6318
aI3168
aa(lp6319
S'opacities..'
p6320
aI3169
aa(lp6321
S'Nasogastric'
p6322
aI3170
aa(lp6323
S'capping'
p6324
aI3171
aa(lp6325
S'capping,'
p6326
aI3172
aa(lp6327
S'before,'
p6328
aI3173
aa(lp6329
S'Ankle.'
p6330
aI3174
aa(lp6331
S'malleoli.'
p6332
aI3175
aa(lp6333
S'Mortise'
p6334
aI3176
aa(lp6335
S'Multilobar'
p6336
aI3177
aa(lp6337
S'Opacification'
p6338
aI3178
aa(lp6339
S'4.7'
p6340
aI3179
aa(lp6341
S'Decubitus'
p6342
aI3180
aa(lp6343
S'informative.'
p6344
aI3181
aa(lp6345
S'Hand.'
p6346
aI3182
aa(lp6347
S'rods'
p6348
aI3183
aa(lp6349
S'trabecular'
p6350
aI3184
aa(lp6351
S'metacarpal'
p6352
aI3185
aa(lp6353
S'Hand'
p6354
aI3186
aa(lp6355
S'metacarpal.'
p6356
aI3187
aa(lp6357
S'exists'
p6358
aI3188
aa(lp6359
S'then'
p6360
aI3189
aa(lp6361
S'they'
p6362
aI3190
aa(lp6363
S'explained'
p6364
aI3191
aa(lp6365
S'overlap.'
p6366
aI3192
aa(lp6367
S'lordosis'
p6368
aI3193
aa(lp6369
S'40%'
p6370
aI3194
aa(lp6371
S'sinus'
p6372
aI3195
aa(lp6373
S'sinuses.'
p6374
aI3196
aa(lp6375
S'chin.'
p6376
aI3197
aa(lp6377
S'Background'
p6378
aI3198
aa(lp6379
S'phenomenon.'
p6380
aI3199
aa(lp6381
S'positional'
p6382
aI3200
aa(lp6383
S'laterally'
p6384
aI3201
aa(lp6385
S'spasm'
p6386
aI3202
aa(lp6387
S'muscle'
p6388
aI3203
aa(lp6389
S'reversal'
p6390
aI3204
aa(lp6391
S'Follow'
p6392
aI3205
aa(lp6393
S'Also,'
p6394
aI3206
aa(lp6395
S'Developing'
p6396
aI3207
aa(lp6397
S'exam..'
p6398
aI3208
aa(lp6399
S'sulci,'
p6400
aI3209
aa(lp6401
S'centrally.'
p6402
aI3210
aa(lp6403
S'B'
aI3211
aa(lp6404
S'diffuse,'
p6405
aI3212
aa(lp6406
S'Near-complete'
p6407
aI3213
aa(lp6408
S'6.1'
p6409
aI3214
aa(lp6410
S'cartilage'
p6411
aI3215
aa(lp6412
S'perihilar/midlung'
p6413
aI3216
aa(lp6414
S'(anterior'
p6415
aI3217
aa(lp6416
S'interspace)'
p6417
aI3218
aa(lp6418
S'provide'
p6419
aI3219
aa(lp6420
S'Radiographically,'
p6421
aI3220
aa(lp6422
S'shortening'
p6423
aI3221
aa(lp6424
S'intrathecal'
p6425
aI3222
aa(lp6426
S'contusion.'
p6427
aI3223
aa(lp6428
S'Diffuse,'
p6429
aI3224
aa(lp6430
S'pneumothoraces..'
p6431
aI3225
aa(lp6432
S'nonemergent'
p6433
aI3226
aa(lp6434
S'COPD/emphysema.'
p6435
aI3227
aa(lp6436
S'thickening/sclerosis.'
p6437
aI3228
aa(lp6438
S'segments.'
p6439
aI3229
aa(lp6440
S'Confluent'
p6441
aI3230
aa(lp6442
S'Aspiration'
p6443
aI3231
aa(lp6444
S'well-characterized.'
p6445
aI3232
aa(lp6446
S'Dual-XXXX'
p6447
aI3233
aa(lp6448
S'laterally.'
p6449
aI3234
aa(lp6450
S'L1.'
p6451
aI3235
aa(lp6452
S'submitted.'
p6453
aI3236
aa(lp6454
S'Additionally'
p6455
aI3237
aa(lp6456
S'perform'
p6457
aI3238
aa(lp6458
S'compartments'
p6459
aI3239
aa(lp6460
S'all'
p6461
aI3240
aa(lp6462
S'pneumomediastinum,'
p6463
aI3241
aa(lp6464
S'pathology'
p6465
aI3242
aa(lp6466
S'smooth'
p6467
aI3243
aa(lp6468
S'Configuration'
p6469
aI3244
aa(lp6470
S'irregularities,'
p6471
aI3245
aa(lp6472
S'demineralization,'
p6473
aI3246
aa(lp6474
S'pacemaker/defibrillator'
p6475
aI3247
aa(lp6476
S'T/Spine'
p6477
aI3248
aa(lp6478
S'extrapleural'
p6479
aI3249
aa(lp6480
S'C/Spine'
p6481
aI3250
aa(lp6482
S'XXXX-XXXX'
p6483
aI3251
aa(lp6484
S'respect'
p6485
aI3252
aa(lp6486
S'junctions.'
p6487
aI3253
aa(lp6488
S'lumpectomy.'
p6489
aI3254
aa(lp6490
S'pain.'
p6491
aI3255
aa(lp6492
S'presumably'
p6493
aI3256
aa(lp6494
S'Corticated'
p6495
aI3257
aa(lp6496
S'piercing).'
p6497
aI3258
aa(lp6498
S'Healing'
p6499
aI3259
aa(lp6500
S'perhaps'
p6501
aI3260
aa(lp6502
S'cholecystectomy,'
p6503
aI3261
aa(lp6504
S'ORIF'
p6505
aI3262
aa(lp6506
S'artifactual.'
p6507
aI3263
aa(lp6508
S'4.6'
p6509
aI3264
aa(lp6510
S'underneath'
p6511
aI3265
aa(lp6512
S'great'
p6513
aI3266
aa(lp6514
S'artifact,'
p6515
aI3267
aa(lp6516
S'accentuation,'
p6517
aI3268
aa(lp6518
S'faxed.'
p6519
aI3269
aa(lp6520
S'receipt.'
p6521
aI3270
aa(lp6522
S'pathology.'
p6523
aI3271
aa(lp6524
S'hematoma,'
p6525
aI3272
aa(lp6526
S'empyema,'
p6527
aI3273
aa(lp6528
S'disruption'
p6529
aI3274
aa(lp6530
S'acute.'
p6531
aI3275
aa(lp6532
S'T7,'
p6533
aI3276
aa(lp6534
S'defect'
p6535
aI3277
aa(lp6536
S'pneumonia..'
p6537
aI3278
aa(lp6538
S'excavatum.'
p6539
aI3279
aa(lp6540
S'screw.'
p6541
aI3280
aa(lp6542
S'Once'
p6543
aI3281
aa(lp6544
S'5.8'
p6545
aI3282
aa(lp6546
S'midshaft'
p6547
aI3283
aa(lp6548
S'6.0'
p6549
aI3284
aa(lp6550
S'one-third'
p6551
aI3285
aa(lp6552
S'Displaced'
p6553
aI3286
aa(lp6554
S"XXXX's"
p6555
aI3287
aa(lp6556
S'definitive'
p6557
aI3288
aa(lp6558
S'XXXXPM'
p6559
aI3289
aa(lp6560
S'XXXX/XXXX'
p6561
aI3290
aa(lp6562
S'accepted'
p6563
aI3291
aa(lp6564
S'midfoot'
p6565
aI3292
aa(lp6566
S'plantar'
p6567
aI3293
aa(lp6568
S'sclerotic.'
p6569
aI3294
aa(lp6570
S'persist'
p6571
aI3295
aa(lp6572
S'improved.'
p6573
aI3296
aa(lp6574
S'pull-through'
p6575
aI3297
aa(lp6576
S'gastric'
p6577
aI3298
aa(lp6578
S'shunt.'
p6579
aI3299
aa(lp6580
S'arteriosum.'
p6581
aI3300
aa(lp6582
S'ligamentum'
p6583
aI3301
aa(lp6584
S'Presumed'
p6585
aI3302
aa(lp6586
S'fissures'
p6587
aI3303
aa(lp6588
S'pads'
p6589
aI3304
aa(lp6590
S'clipped'
p6591
aI3305
aa(lp6592
S'improvement/resolution'
p6593
aI3306
aa(lp6594
S'S1'
p6595
aI3307
aa(lp6596
S'Specifically'
p6597
aI3308
aa(lp6598
S'account'
p6599
aI3309
aa(lp6600
S'clothing'
p6601
aI3310
aa(lp6602
S'Exaggeration'
p6603
aI3311
aa(lp6604
S'magnification.'
p6605
aI3312
aa(lp6606
S'correction'
p6607
aI3313
aa(lp6608
S'oval-shaped'
p6609
aI3314
aa(lp6610
S'valvuloplasty'
p6611
aI3315
aa(lp6612
S'Unfolded'
p6613
aI3316
aa(lp6614
S'consolidation..'
p6615
aI3317
aa(lp6616
S'duct'
p6617
aI3318
aa(lp6618
S'opacities/atelectasis.'
p6619
aI3319
aa(lp6620
S'improvement.'
p6621
aI3320
aa(lp6622
S'computed'
p6623
aI3321
aa(lp6624
S'Thoracolumbar'
p6625
aI3322
aa(lp6626
S'inlet,'
p6627
aI3323
aa(lp6628
S'thready'
p6629
aI3324
aa(lp6630
S'except'
p6631
aI3325
aa(lp6632
S'separation.'
p6633
aI3326
aa(lp6634
S'Clavicle.'
p6635
aI3327
aa(lp6636
S'Scapular'
p6637
aI3328
aa(lp6638
S'widened.'
p6639
aI3329
aa(lp6640
S'coracoclavicular'
p6641
aI3330
aa(lp6642
S'Cutaneous'
p6643
aI3331
aa(lp6644
S'articular'
p6645
aI3332
aa(lp6646
S'coracoid'
p6647
aI3333
aa(lp6648
S'possibility'
p6649
aI3334
aa(lp6650
S'3.Chronic'
p6651
aI3335
aa(lp6652
S'attached'
p6653
aI3336
aa(lp6654
S'Shoulder'
p6655
aI3337
aa(lp6656
S'3.4'
p6657
aI3338
aa(lp6658
S'perforation.'
p6659
aI3339
aa(lp6660
S'pneumoperitoneum'
p6661
aI3340
aa(lp6662
S'focally'
p6663
aI3341
aa(lp6664
S'tomogram.'
p6665
aI3342
aa(lp6666
S'Age-indeterminate,'
p6667
aI3343
aa(lp6668
S'cartilages.'
p6669
aI3344
aa(lp6670
S'within,'
p6671
aI3345
aa(lp6672
S'scarring/subsegmental'
p6673
aI3346
aa(lp6674
S'narrowing,'
p6675
aI3347
aa(lp6676
S'cyst,'
p6677
aI3348
aa(lp6678
S'persist.'
p6679
aI3349
aa(lp6680
S'opacification,'
p6681
aI3350
aa(lp6682
S'repeated.'
p6683
aI3351
aa(lp6684
S'expiratory'
p6685
aI3352
aa(lp6686
S'worrisome'
p6687
aI3353
aa(lp6688
S'osteophytes,'
p6689
aI3354
aa(lp6690
S'hyperostosis'
p6691
aI3355
aa(lp6692
S'(DISH).'
p6693
aI3356
aa(lp6694
S'cirrhotic'
p6695
aI3357
aa(lp6696
S'enlargement.Prominence'
p6697
aI3358
aa(lp6698
S'enthesopathy.'
p6699
aI3359
aa(lp6700
S'Midfoot'
p6701
aI3360
aa(lp6702
S'mortise'
p6703
aI3361
aa(lp6704
S'Ankle'
p6705
aI3362
aa(lp6706
S'narrow,'
p6707
aI3363
aa(lp6708
S'worst'
p6709
aI3364
aa(lp6710
S'L2-LXXXX'
p6711
aI3365
aa(lp6712
S'L4'
p6713
aI3366
aa(lp6714
S'enthesophyte.'
p6715
aI3367
aa(lp6716
S'formation,'
p6717
aI3368
aa(lp6718
S'osteochondromas.'
p6719
aI3369
aa(lp6720
S'assess.'
p6721
aI3370
aa(lp6722
S'Deformed'
p6723
aI3371
aa(lp6724
S'T6.'
p6725
aI3372
aa(lp6726
S'Size'
p6727
aI3373
aa(lp6728
S'coils.'
p6729
aI3374
aa(lp6730
S'Pneumonia'
p6731
aI3375
aa(lp6732
S'differential.'
p6733
aI3376
aa(lp6734
S'hilar/perihilar'
p6735
aI3377
aa(lp6736
S'history,'
p6737
aI3378
aa(lp6738
S'Of'
p6739
aI3379
aa(lp6740
S'lymphoma'
p6741
aI3380
aa(lp6742
S'suboptimal'
p6743
aI3381
aa(lp6744
S"Hodgkin's"
p6745
aI3382
aa(lp6746
S'mediastinum.There'
p6747
aI3383
aa(lp6748
S'immediately'
p6749
aI3384
aa(lp6750
S'retrocardiac,'
p6751
aI3385
aa(lp6752
S'indicates'
p6753
aI3386
aa(lp6754
S'Densely'
p6755
aI3387
aa(lp6756
S'intact..'
p6757
aI3388
aa(lp6758
S'pacemaker/ICD'
p6759
aI3389
aa(lp6760
S'bronchitic/bronchiolitis'
p6761
aI3390
aa(lp6762
S'markers,'
p6763
aI3391
aa(lp6764
S'Suggestion'
p6765
aI3392
aa(lp6766
S'anchor.'
p6767
aI3393
aa(lp6768
S'undergone'
p6769
aI3394
aa(lp6770
S'Haziness'
p6771
aI3395
aa(lp6772
S'unremarkable..'
p6773
aI3396
aa(lp6774
S'intervertebral'
p6775
aI3397
aa(lp6776
S'Study'
p6777
aI3398
aa(lp6778
S'Lines'
p6779
aI3399
aa(lp6780
S'pronounced'
p6781
aI3400
aa(lp6782
S'Superimposed'
p6783
aI3401
aa(lp6784
S'lucent.'
p6785
aI3402
aa(lp6786
S'postobstructive'
p6787
aI3403
aa(lp6788
S'Exact'
p6789
aI3404
aa(lp6790
S'Masslike'
p6791
aI3405
aa(lp6792
S'significance.'
p6793
aI3406
aa(lp6794
S'lobes,'
p6795
aI3407
aa(lp6796
S'gallstones.'
p6797
aI3408
aa(lp6798
S'fracture..'
p6799
aI3409
aa(lp6800
S'overlay.'
p6801
aI3410
aa(lp6802
S'dyspnea'
p6803
aI3411
aa(lp6804
S'admission'
p6805
aI3412
aa(lp6806
S'arrange'
p6807
aI3413
aa(lp6808
S'Sclerosis'
p6809
aI3414
aa(lp6810
S'AVN.'
p6811
aI3415
aa(lp6812
S'Sclerotic'
p6813
aI3416
aa(lp6814
S'endplates'
p6815
aI3417
aa(lp6816
S'depression.'
p6817
aI3418
aa(lp6818
S'chest..'
p6819
aI3419
aa(lp6820
S'detecting'
p6821
aI3420
aa(lp6822
S'sensitive'
p6823
aI3421
aa(lp6824
S'Moderate-to-large'
p6825
aI3422
aa(lp6826
S'reasonably'
p6827
aI3423
aa(lp6828
S'shape'
p6829
aI3424
aa(lp6830
S'fluid..'
p6831
aI3425
aa(lp6832
S'fungal.'
p6833
aI3426
aa(lp6834
S'fistula.'
p6835
aI3427
aa(lp6836
S'bronchopleural'
p6837
aI3428
aa(lp6838
S'empyema'
p6839
aI3429
aa(lp6840
S'High'
p6841
aI3430
aa(lp6842
S'hydropneumothorax.'
p6843
aI3431
aa(lp6844
S'suggested.'
p6845
aI3432
aa(lp6846
S'bipolar'
p6847
aI3433
aa(lp6848
S'callus.'
p6849
aI3434
aa(lp6850
S'depressions'
p6851
aI3435
aa(lp6852
S'distended'
p6853
aI3436
aa(lp6854
S'Formed'
p6855
aI3437
aa(lp6856
S'mechanical'
p6857
aI3438
aa(lp6858
S'Straightening'
p6859
aI3439
aa(lp6860
S'imaged.'
p6861
aI3440
aa(lp6862
S'contour.Unfolded'
p6863
aI3441
aa(lp6864
S'T12,'
p6865
aI3442
aa(lp6866
S'maximum'
p6867
aI3443
aa(lp6868
S'hemiabdomen'
p6869
aI3444
aa(lp6870
S'Stigmata'
p6871
aI3445
aa(lp6872
S'review.'
p6873
aI3446
aa(lp6874
S'almost'
p6875
aI3447
aa(lp6876
S'overload'
p6877
aI3448
aa(lp6878
S'XXXX/XXXX,'
p6879
aI3449
aa(lp6880
S'Corresponds'
p6881
aI3450
aa(lp6882
S'those'
p6883
aI3451
aa(lp6884
S'having'
p6885
aI3452
aa(lp6886
S'simply'
p6887
aI3453
aa(lp6888
S'chronicity.'
p6889
aI3454
aa(lp6890
S'Callus'
p6891
aI3455
aa(lp6892
S'upon'
p6893
aI3456
aa(lp6894
S'considerably'
p6895
aI3457
aa(lp6896
S'triangular'
p6897
aI3458
aa(lp6898
S'Cholelithiasis.'
p6899
aI3459
aa(lp6900
S'Postop'
p6901
aI3460
aa(lp6902
S'adequately'
p6903
aI3461
aa(lp6904
S'outlining'
p6905
aI3462
aa(lp6906
S'4-6'
p6907
aI3463
aa(lp6908
S'observed'
p6909
aI3464
aa(lp6910
S'cuffing.'
p6911
aI3465
aa(lp6912
S'shifted'
p6913
aI3466
aa(lp6914
S'totally'
p6915
aI3467
aa(lp6916
S'opaque.'
p6917
aI3468
aa(lp6918
S'vessel'
p6919
aI3469
aa(lp6920
S'bronchiolitis.'
p6921
aI3470
aa(lp6922
S'amputation.'
p6923
aI3471
aa(lp6924
S'upper/mid'
p6925
aI3472
aa(lp6926
S'questioned.'
p6927
aI3473
aa(lp6928
S'healed,'
p6929
aI3474
aa(lp6930
S'reflex'
p6931
aI3475
aa(lp6932
S'vascular,'
p6933
aI3476
aa(lp6934
S'trying'
p6935
aI3477
aa(lp6936
S'she'
p6937
aI3478
aa(lp6938
S'extending'
p6939
aI3479
aa(lp6940
S'Tortuous/ectatic'
p6941
aI3480
aa(lp6942
S'benign.'
p6943
aI3481
aa(lp6944
S'notably'
p6945
aI3482
aa(lp6946
S'stigmata'
p6947
aI3483
aa(lp6948
S'liver'
p6949
aI3484
aa(lp6950
S'Torturous/ectatic'
p6951
aI3485
aa(lp6952
S'fluid,'
p6953
aI3486
aa(lp6954
S'tumor'
p6955
aI3487
aa(lp6956
S'leftward'
p6957
aI3488
aa(lp6958
S'L2'
p6959
aI3489
aa(lp6960
S'Pathologic'
p6961
aI3490
aa(lp6962
S'LLeft'
p6963
aI3491
aa(lp6964
S'Expansile'
p6965
aI3492
aa(lp6966
S'capping.'
p6967
aI3493
aa(lp6968
S'normal.&gt;]'
p6969
aI3494
aa(lp6970
S'projection),'
p6971
aI3495
aa(lp6972
S'definition'
p6973
aI3496
aa(lp6974
S'widespread'
p6975
aI3497
aa(lp6976
S'elongation'
p6977
aI3498
aa(lp6978
S'piercing.'
p6979
aI3499
aa(lp6980
S'[&lt;The'
p6981
aI3500
aa(lp6982
S'pneumothorax.&gt;]'
p6983
aI3501
aa(lp6984
S'interim'
p6985
aI3502
aa(lp6986
S'junction,'
p6987
aI3503
aa(lp6988
S'CXR'
p6989
aI3504
aa(lp6990
S'Consolidation,'
p6991
aI3505
aa(lp6992
S'Cleared'
p6993
aI3506
aa(lp6994
S'bronchopulmonary'
p6995
aI3507
aa(lp6996
S'Subcarinal'
p6997
aI3508
aa(lp6998
S'compensatory'
p6999
aI3509
aa(lp7000
S'differentiate'
p7001
aI3510
aa(lp7002
S'Diminutive'
p7003
aI3511
aa(lp7004
S'artery,'
p7005
aI3512
aa(lp7006
S'details.'
p7007
aI3513
aa(lp7008
S'L1-LPlease'
p7009
aI3514
aa(lp7010
S'dictation.'
p7011
aI3515
aa(lp7012
S'ordered'
p7013
aI3516
aa(lp7014
S'LA'
p7015
aI3517
aa(lp7016
S'retropulsion'
p7017
aI3518
aa(lp7018
S'L1-LThere'
p7019
aI3519
aa(lp7020
S'19/33.'
p7021
aI3520
aa(lp7022
S'Umbilical'
p7023
aI3521
aa(lp7024
S'phleboliths'
p7025
aI3522
aa(lp7026
S'comparison,'
p7027
aI3523
aa(lp7028
S'blood'
p7029
aI3524
aa(lp7030
S'Relatively'
p7031
aI3525
aa(lp7032
S'NO'
p7033
aI3526
aa(lp7034
S'examination..'
p7035
aI3527
aa(lp7036
S'histoplasmoma'
p7037
aI3528
aa(lp7038
S'morbidly'
p7039
aI3529
aa(lp7040
S'Rib'
p7041
aI3530
aa(lp7042
S'T8,'
p7043
aI3531
aa(lp7044
S'She'
p7045
aI3532
aa(lp7046
S'nondilated'
p7047
aI3533
aa(lp7048
S'benefit.'
p7049
aI3534
aa(lp7050
S'bowel.'
p7051
aI3535
aa(lp7052
S'Supine'
p7053
aI3536
aa(lp7054
S'Abdomen'
p7055
aI3537
aa(lp7056
S'interlobar'
p7057
aI3538
aa(lp7058
S'advised.'
p7059
aI3539
aa(lp7060
S'severe.'
p7061
aI3540
aa(lp7062
S'arthritis'
p7063
aI3541
aa(lp7064
S'underpenetration,'
p7065
aI3542
aa(lp7066
S'cachexia'
p7067
aI3543
aa(lp7068
S'nodule/lymph'
p7069
aI3544
aa(lp7070
S'superimposing'
p7071
aI3545
aa(lp7072
S'symptoms'
p7073
aI3546
aa(lp7074
S'fold.'
p7075
aI3547
aa(lp7076
S'tricompartmental'
p7077
aI3548
aa(lp7078
S'noncalcified,'
p7079
aI3549
aa(lp7080
S'pancreatic'
p7081
aI3550
aa(lp7082
S'pancreatitis'
p7083
aI3551
aa(lp7084
S'detail.'
p7085
aI3552
aa(lp7086
S'reactivation'
p7087
aI3553
aa(lp7088
S'cavity,'
p7089
aI3554
aa(lp7090
S'noticed'
p7091
aI3555
aa(lp7092
S'peripherally.'
p7093
aI3556
aa(lp7094
S'granulomatous/tuberculous'
p7095
aI3557
aa(lp7096
S'retrolisthesis.'
p7097
aI3558
aa(lp7098
S'31'
p7099
aI3559
aa(lp7100
S'osteochondromatosis'
p7101
aI3560
aa(lp7102
S'Oval'
p7103
aI3561
aa(lp7104
S'2.No'
p7105
aI3562
aa(lp7106
S'lines.'
p7107
aI3563
aa(lp7108
S'Large,'
p7109
aI3564
aa(lp7110
S'Residuals'
p7111
aI3565
aa(lp7112
S'anterolateral'
p7113
aI3566
aa(lp7114
S'[Pulmonary'
p7115
aI3567
aa(lp7116
S'limits>].'
p7117
aI3568
aa(lp7118
S'Hypoventilated'
p7119
aI3569
aa(lp7120
S'Compressive'
p7121
aI3570
aa(lp7122
S'[<Heart'
p7123
aI3571
aa(lp7124
S'determined.'
p7125
aI3572
aa(lp7126
S'ligamentous'
p7127
aI3573
aa(lp7128
S'XXXX;'
p7129
aI3574
aa(lp7130
S'evolving'
p7131
aI3575
aa(lp7132
S'series'
p7133
aI3576
aa(lp7134
S'frontal,'
p7135
aI3577
aa(lp7136
S'swimmers'
p7137
aI3578
aa(lp7138
S'malalignment.'
p7139
aI3579
aa(lp7140
S'Sternum.'
p7141
aI3580
aa(lp7142
S'radiodensity'
p7143
aI3581
aa(lp7144
S'nasogastric'
p7145
aI3582
aa(lp7146
S'motion.'
p7147
aI3583
aa(lp7148
S'Decrease'
p7149
aI3584
aa(lp7150
S'opaque'
p7151
aI3585
aa(lp7152
S'12/33'
p7153
aI3586
aa(lp7154
S'bone-on-bone'
p7155
aI3587
aa(lp7156
S'articulation,'
p7157
aI3588
aa(lp7158
S'remodeling'
p7159
aI3589
aa(lp7160
S'film,'
p7161
aI3590
aa(lp7162
S'gallbladder'
p7163
aI3591
aa(lp7164
S'voluntary'
p7165
aI3592
aa(lp7166
S'Disc'
p7167
aI3593
aa(lp7168
S'midright'
p7169
aI3594
aa(lp7170
S'islands.'
p7171
aI3595
aa(lp7172
S'aspect.'
p7173
aI3596
aatRp7174
.