(dp1
S'grad_clip'
p2
F2
sS'dim'
p3
I300
sS'dim_word'
p4
I300
sS'data'
p5
S'xray'
p6
sS'lrate'
p7
F0.001
sS'batch_size'
p8
I300
sS'maxlen_w'
p9
I150
sS'saveto'
p10
S'vse/xray'
p11
sS'word_idict'
p12
(dp13
I0
S'<eos>'
p14
sI1
S'UNK'
p15
sI2
S'No'
p16
sI3
S'is'
p17
sI4
S'are'
p18
sI5
S'The'
p19
sI6
S'the'
p20
sI7
S'and'
p21
sI8
S'of'
p22
sI9
S'acute'
p23
sI10
S'XXXX'
p24
sI11
S'or'
p25
sI12
S'pleural'
p26
sI13
S'There'
p27
sI14
S'normal'
p28
sI15
S'focal'
p29
sI16
S'size'
p30
sI17
S'no'
p31
sI18
S'in'
p32
sI19
S'within'
p33
sI20
S'cardiopulmonary'
p34
sI21
S'lungs'
p35
sI22
S'pulmonary'
p36
sI23
S'normal.'
p37
sI24
S'Heart'
p38
sI25
S'pneumothorax.'
p39
sI26
S'disease.'
p40
sI27
S'right'
p41
sI28
S'limits.'
p42
sI29
S'heart'
p43
sI30
S'with'
p44
sI31
S'effusion.'
p45
sI32
S'airspace'
p46
sI33
S'clear.'
p47
sI34
S'left'
p48
sI35
S'abnormality.'
p49
sI36
S'pneumothorax'
p50
sI37
S'effusion'
p51
sI38
S'silhouette'
p52
sI39
S'lung'
p53
sI40
S'mediastinal'
p54
sI41
S'evidence'
p55
sI42
S'clear'
p56
sI43
S'changes'
p57
sI44
S'consolidation,'
p58
sI45
S'cardiomediastinal'
p59
sI46
S'without'
p60
sI47
S'structures'
p61
sI48
S'Lungs'
p62
sI49
S'for'
p63
sI50
S'to'
p64
sI51
S'unremarkable.'
p65
sI52
S'thoracic'
p66
sI53
S'mediastinum'
p67
sI54
S'a'
sI55
S'Stable'
p68
sI56
S'spine.'
p69
sI57
S'Normal'
p70
sI58
S'upper'
p71
sI59
S'appear'
p72
sI60
S'consolidation.'
p73
sI61
S'XXXX.'
p74
sI62
S'large'
p75
sI63
S'chest'
p76
sI64
S'findings.'
p77
sI65
S'effusion,'
p78
sI66
S'size.'
p79
sI67
S'contours'
p80
sI68
S'bony'
p81
sI69
S'pneumothorax,'
p82
sI70
S'limits'
p83
sI71
S'vascularity'
p84
sI72
S'seen.'
p85
sI73
S'active'
p86
sI74
S'intact.'
p87
sI75
S'lower'
p88
sI76
S'identified.'
p89
sI77
S'process.'
p90
sI78
S'osseous'
p91
sI79
S'lateral'
p92
sI80
S'degenerative'
p93
sI81
S'contour.'
p94
sI82
S'mild'
p95
sI83
S'lobe'
p96
sI84
S'calcified'
p97
sI85
S'Mild'
p98
sI86
S'abnormalities.'
p99
sI87
S'on'
p100
sI88
S'cardiac'
p101
sI89
S'be'
p102
sI90
S'vasculature'
p103
sI91
S'opacity'
p104
sI92
S'effusions.'
p105
sI93
S'air'
p106
sI94
S'may'
p107
sI95
S'disease'
p108
sI96
S'interstitial'
p109
sI97
S'lungs.'
p110
sI98
S'edema.'
p111
sI99
S'Pulmonary'
p112
sI100
S'opacities'
p113
sI101
S'Negative'
p114
sI102
S'stable'
p115
sI103
S'contour'
p116
sI104
S'bilateral'
p117
sI105
S'atelectasis.'
p118
sI106
S'prior'
p119
sI107
S'atelectasis'
p120
sI108
S'bilaterally.'
p121
sI109
S'noted.'
p122
sI110
S'grossly'
p123
sI111
S'Right'
p124
sI112
S'Cardiomediastinal'
p125
sI113
S'aorta.'
p126
sI114
S'space'
p127
sI115
S'free'
p128
sI116
S'Mediastinal'
p129
sI117
S'Visualized'
p130
sI118
S'findings'
p131
sI119
S'hilar'
p132
sI120
S'volumes'
p133
sI121
S'small'
p134
sI122
S'effusions'
p135
sI123
S'nodules'
p136
sI124
S'rib'
p137
sI125
S'basilar'
p138
sI126
S'Degenerative'
p139
sI127
S'which'
p140
sI128
S'seen'
p141
sI129
S'at'
p142
sI130
S'pneumonia.'
p143
sI131
S'Left'
p144
sI132
S'Low'
p145
sI133
S'definite'
p146
sI134
S'visible'
p147
sI135
S'Bony'
p148
sI136
S'from'
p149
sI137
S'Cardiac'
p150
sI138
S'disease,'
p151
sI139
S'thorax'
p152
sI140
S'abnormality'
p153
sI141
S'represent'
p154
sI142
S'present'
p155
sI143
S'Calcified'
p156
sI144
S'Clear'
p157
sI145
S'vascular'
p158
sI146
S'infiltrate.'
p159
sI147
S'consistent'
p160
sI148
S'radiographic'
p161
sI149
S'spine'
p162
sI150
S'contours.'
p163
sI151
S'visualized'
p164
sI152
S'cardiomegaly.'
p165
sI153
S'pneumothoraces.'
p166
sI154
S'base'
p167
sI155
S'chest.'
p168
sI156
S'not'
p169
sI157
S'XXXX,'
p170
sI158
S'otherwise'
p171
sI159
S'chronic'
p172
sI160
S'appears'
p173
sI161
S'granulomatous'
p174
sI162
S'stable.'
p175
sI163
S'granuloma'
p176
sI164
S'opacity,'
p177
sI165
S'mildly'
p178
sI166
S'silhouette.'
p179
sI167
S'tip'
p180
sI168
S'suspicious'
p181
sI169
S'lobe.'
p182
sI170
S'costophrenic'
p183
sI171
S'soft'
p184
sI172
S'scarring'
p185
sI173
S'enlarged.'
p186
sI174
S'volumes.'
p187
sI175
S'areas'
p188
sI176
S'Both'
p189
sI177
S'masses.'
p190
sI178
S'expanded.'
p191
sI179
S'opacities.'
p192
sI180
S'lymph'
p193
sI181
S'appearance'
p194
sI182
S'appearance.'
p195
sI183
S'overlying'
p196
sI184
S'This'
p197
sI185
S'consolidation'
p198
sI186
S'aortic'
p199
sI187
S'alveolar'
p200
sI188
S'suggest'
p201
sI189
S'central'
p202
sI190
S'infiltrate'
p203
sI191
S'noted'
p204
sI192
S'increased'
p205
sI193
S'posterior'
p206
sI194
S'Specifically,'
p207
sI195
S'an'
p208
sI196
S'previous'
p209
sI197
S'anterior'
p210
sI198
S'bibasilar'
p211
sI199
S'versus'
p212
sI200
S'low'
p213
sI201
S'cardiomegaly'
p214
sI202
S'scarring.'
p215
sI203
S'Osseous'
p216
sI204
S'density'
p217
sI205
S'there'
p218
sI206
S'has'
p219
sI207
S'Minimal'
p220
sI208
S'base.'
p221
sI209
S'typical'
p222
sI210
S'opacity.'
p223
sI211
S'spaces'
p224
sI212
S'but'
p225
sI213
S'aorta'
p226
sI214
S'as'
p227
sI215
S'unchanged'
p228
sI216
S'bronchovascular'
p229
sI217
S'have'
p230
sI218
S'compatible'
p231
sI219
S'patchy'
p232
sI220
S'subsegmental'
p233
sI221
S'tissues'
p234
sI222
S'Small'
p235
sI223
S'unchanged.'
p236
sI224
S'examination'
p237
sI225
S'change'
p238
sI226
S'show'
p239
sI227
S'nodule'
p240
sI228
S'sternotomy'
p241
sI229
S'effusions,'
p242
sI230
S'A'
sI231
S'opacities,'
p243
sI232
S'again'
p244
sI233
S'infiltrates.'
p245
sI234
S'patient'
p246
sI235
S'could'
p247
sI236
S'displaced'
p248
sI237
S'over'
p249
sI238
S'present.'
p250
sI239
S'Cardiomegaly'
p251
sI240
S'minimal'
p252
sI241
S'calcifications'
p253
sI242
S'catheter'
p254
sI243
S'views'
p255
sI244
S'further'
p256
sI245
S'skeletal'
p257
sI246
S'cm'
p258
sI247
S'Cardio'
p259
sI248
S'most'
p260
sI249
S'this'
p261
sI250
S'than'
p262
sI251
S'middle'
p263
sI252
S'atherosclerotic'
p264
sI253
S'effusion..'
p265
sI254
S'normally'
p266
sI255
S'nodular'
p267
sI256
S'markings'
p268
sI257
S'interval.'
p269
sI258
S'inflated'
p270
sI259
S'clips'
p271
sI260
S'mm'
p272
sI261
S'clear,'
p273
sI262
S'CT'
p274
sI263
S'granuloma.'
p275
sI264
S'edema,'
p276
sI265
S'frontal'
p277
sI266
S'blunting'
p278
sI267
S'hemidiaphragm.'
p279
sI268
S'midline.'
p280
sI269
S'midlung'
p281
sI270
S'fracture'
p282
sI271
S'mid'
p283
sI272
S'interval'
p284
sI273
S'due'
p285
sI274
S'deformity'
p286
sI275
S'prominent'
p287
sI276
S'emphysema.'
p288
sI277
S'fractures'
p289
sI278
S'hemidiaphragm'
p290
sI279
S'old'
p291
sI280
S'bone'
p292
sI281
S'vertebral'
p293
sI282
S'Thoracic'
p294
sI283
S'edema'
p295
sI284
S'been'
p296
sI285
S'silhouettes'
p297
sI286
S'hiatal'
p298
sI287
S'secondary'
p299
sI288
S'spondylosis.'
p300
sI289
S'streaky'
p301
sI290
S'view'
p302
sI291
S'changes.'
p303
sI292
S'Lung'
p304
sI293
S'Bilateral'
p305
sI294
S'fractures.'
p306
sI295
S'diaphragm.'
p307
sI296
S'exam.'
p308
sI297
S'moderate'
p309
sI298
S'contour,'
p310
sI299
S'perihilar'
p311
sI300
S'tissue'
p312
sI301
S'significant'
p313
sI302
S'view.'
p314
sI303
S'pneumonia,'
p315
sI304
S'trachea'
p316
sI305
S'size,'
p317
sI306
S'apical'
p318
sI307
S'radiographs'
p319
sI308
S'surgical'
p320
sI309
S'limits,'
p321
sI310
S'Chest.'
p322
sI311
S'Interval'
p323
sI312
S'hernia.'
p324
sI313
S'appearing'
p325
sI314
S'tortuous'
p326
sI315
S'abnormality..'
p327
sI316
S'prominence'
p328
sI317
S'Prominent'
p329
sI318
S'finding.'
p330
sI319
S'granulomas.'
p331
sI320
S'Chronic'
p332
sI321
S'crowding'
p333
sI322
S'2'
sI323
S'well'
p334
sI324
S'possibly'
p335
sI325
S'greater'
p336
sI326
S'enlarged'
p337
sI327
S'projecting'
p338
sI328
S'since'
p339
sI329
S'evaluation'
p340
sI330
S'PA'
p341
sI331
S'x-XXXX.'
p342
sI332
S'compared'
p343
sI333
S'comparison'
p344
sI334
S'infiltrates'
p345
sI335
S'adenopathy,'
p346
sI336
S'granulomas'
p347
sI337
S'elevation'
p348
sI338
S'area'
p349
sI339
S'Well-expanded'
p350
sI340
S'right-sided'
p351
sI341
S'suggestive'
p352
sI342
S'was'
p353
sI343
S'venous'
p354
sI344
S'unremarkable'
p355
sI345
S'infiltrate,'
p356
sI346
S'medial'
p357
sI347
S'lung.'
p358
sI348
S'Tortuous'
p359
sI349
S'Aortic'
p360
sI350
S'tortuosity'
p361
sI351
S'obtained.'
p362
sI352
S'abdomen'
p363
sI353
S'crowding.'
p364
sI354
S'identified'
p365
sI355
S'fracture.'
p366
sI356
S'Hyperexpanded'
p367
sI357
S'scattered'
p368
sI358
S'SVC.'
p369
sI359
S'also'
p370
sI360
S'were'
p371
sI361
S'under'
p372
sI362
S'some'
p373
sI363
S'would'
p374
sI364
S'calcification'
p375
sI365
S'consolidations.'
p376
sI366
S'represents'
p377
sI367
S'study.'
p378
sI368
S'vascularity.'
p379
sI369
S'Moderate'
p380
sI370
S'heart,'
p381
sI371
S'bilaterally'
p382
sI372
S'nodule.'
p383
sI373
S'If'
p384
sI374
S'Scattered'
p385
sI375
S'throughout'
p386
sI376
S'Borderline'
p387
sI377
S'distal'
p388
sI378
S'consists'
p389
sI379
S'Frontal'
p390
sI380
S'study'
p391
sI381
S'Bibasilar'
p392
sI382
S'pneumonia'
p393
sI383
S'approximately'
p394
sI384
S'both'
p395
sI385
S'slightly'
p396
sI386
S'tuberculosis.'
p397
sI387
S'change.'
p398
sI388
S'Multiple'
p399
sI389
S'thoracolumbar'
p400
sI390
S'near'
p401
sI391
S'intraperitoneal'
p402
sI392
S'hyperexpanded.'
p403
sI393
S'hyperexpanded'
p404
sI394
S'body'
p405
sI395
S'superior'
p406
sI396
S'Recommend'
p407
sI397
S'associated'
p408
sI398
S'tortuous.'
p409
sI399
S'Mildly'
p410
sI400
S'Otherwise,'
p411
sI401
S'Limited'
p412
sI402
S'suggesting'
p413
sI403
S'fluid.'
p414
sI404
S'mass'
p415
sI405
S'representing'
p416
sI406
S'by'
p417
sI407
S'midthoracic'
p418
sI408
S'vasculature.'
p419
sI409
S'AP'
p420
sI410
S'cervical'
p421
sI411
S'infection.'
p422
sI412
S'any'
p423
sI413
S'retrocardiac'
p424
sI414
S'lungs,'
p425
sI415
S'exam'
p426
sI416
S'remains'
p427
sI417
S'These'
p428
sI418
S'emphysematous'
p429
sI419
S'configuration.'
p430
sI420
S'if'
p431
sI421
S'and/or'
p432
sI422
S'abnormalities'
p433
sI423
S'Patchy'
p434
sI424
S'heart.'
p435
sI425
S'left.'
p436
sI426
S'Surgical'
p437
sI427
S'Comparison'
p438
sI428
S'reveal'
p439
sI429
S'midlung.'
p440
sI430
S'junction.'
p441
sI431
S'limited'
p442
sI432
S'diffuse'
p443
sI433
S'Large'
p444
sI434
S'radiograph.'
p445
sI435
S'Otherwise'
p446
sI436
S'similar'
p447
sI437
S'volume'
p448
sI438
S'demonstrated.'
p449
sI439
S'flattening'
p450
sI440
S'Prior'
p451
sI441
S'left-sided'
p452
sI442
S'examination.'
p453
sI443
S'Unremarkable'
p454
sI444
S'images.'
p455
sI445
S'multiple'
p456
sI446
S'In'
p457
sI447
S'scan'
p458
sI448
S'superimposed'
p459
sI449
S'Atherosclerotic'
p460
sI450
S'tube'
p461
sI451
S'thickening'
p462
sI452
S'mediastinum.'
p463
sI453
S"patient's"
p464
sI454
S'demonstrate'
p465
sI455
S'PICC'
p466
sI456
S'leads'
p467
sI457
S'densities'
p468
sI458
S'Findings'
p469
sI459
S'remain'
p470
sI460
S'evaluation.'
p471
sI461
S'line'
p472
sI462
S'silhouette,'
p473
sI463
S'congestion.'
p474
sI464
S'rib.'
p475
sI465
S'top'
p476
sI466
S'widening.'
p477
sI467
S'hyperinflated'
p478
sI468
S'related'
p479
sI469
S'lobe,'
p480
sI470
S'expanded'
p481
sI471
S'bases.'
p482
sI472
S'Cardiomegaly.'
p483
sI473
S'hypoinflated'
p484
sI474
S'.'
sI475
S'disc'
p485
sI476
S'measuring'
p486
sI477
S'followup'
p487
sI478
S'intact'
p488
sI479
S'paratracheal'
p489
sI480
S'fluid'
p490
sI481
S'through'
p491
sI482
S'calcification.'
p492
sI483
S'level'
p493
sI484
S'clinical'
p494
sI485
S'enlargement'
p495
sI486
S'5'
sI487
S'Soft'
p496
sI488
S'post'
p497
sI489
S'Unchanged'
p498
sI490
S'along'
p499
sI491
S'Increased'
p500
sI492
S'right.'
p501
sI493
S'endplate'
p502
sI494
S'osteophytes.'
p503
sI495
S'reflect'
p504
sI496
S'low.'
p505
sI497
S'severe'
p506
sI498
S'Pleural'
p507
sI499
S'that'
p508
sI500
S'known'
p509
sI501
S'curvature'
p510
sI502
S'recommended.'
p511
sI503
S'concerning'
p512
sI504
S'masses'
p513
sI505
S'postsurgical'
p514
sI506
S'T-spine'
p515
sI507
S'given'
p516
sI508
S'bases'
p517
sI509
S'COPD.'
p518
sI510
S'biapical'
p519
sI511
S'more'
p520
sI512
S'demonstrated'
p521
sI513
S'adenopathy.'
p522
sI514
S'joint'
p523
sI515
S'lobar'
p524
sI516
S'engorgement'
p525
sI517
S'Aorta'
p526
sI518
S'lung,'
p527
sI519
S'significantly'
p528
sI520
S'region'
p529
sI521
S'lobes.'
p530
sI522
S'lumbar'
p531
sI523
S'Probable'
p532
sI524
S'subclavian'
p533
sI525
S'Streaky'
p534
sI526
S'atelectasis,'
p535
sI527
S'overt'
p536
sI528
S'loss'
p537
sI529
S'base,'
p538
sI530
S'enlarged,'
p539
sI531
S'congestion'
p540
sI532
S'tuberculosis'
p541
sI533
S'radiograph'
p542
sI534
S'descending'
p543
sI535
S'injury.'
p544
sI536
S'obstructive'
p545
sI537
S'ribs.'
p546
sI538
S'residual'
p547
sI539
S'consider'
p548
sI540
S'parenchymal'
p549
sI541
S'sequela'
p550
sI542
S'humeral'
p551
sI543
S'underlying'
p552
sI544
S'view,'
p553
sI545
S'calcifications.'
p554
sI546
S'body.'
p555
sI547
S'Persistent'
p556
sI548
S'process'
p557
sI549
S'mediastinum,'
p558
sI550
S'cardiac,'
p559
sI551
S'reveals'
p560
sI552
S'probable'
p561
sI553
S'nodules.'
p562
sI554
S'segment'
p563
sI555
S'apex'
p564
sI556
S'age..'
p565
sI557
S'diaphragm'
p566
sI558
S'possible'
p567
sI559
S'intrathoracic'
p568
sI560
S'thickening.'
p569
sI561
S'deformities'
p570
sI562
S'Old'
p571
sI563
S'CABG.'
p572
sI564
S'partially'
p573
sI565
S'apex.'
p574
sI566
S'borderline'
p575
sI567
S'Hyperinflated'
p576
sI568
S'clinically'
p577
sI569
S'Emphysema'
p578
sI570
S'metastatic'
p579
sI571
S'history'
p580
sI572
S'Hypoinflation'
p581
sI573
S'Emphysema.'
p582
sI574
S'x'
sI575
S'available'
p583
sI576
S'resolution'
p584
sI577
S'pericardial'
p585
sI578
S'shoulder'
p586
sI579
S'lucency'
p587
sI580
S'somewhat'
p588
sI581
S'fibrosis.'
p589
sI582
S'6th'
p590
sI583
S'lingular'
p591
sI584
S'probably'
p592
sI585
S'differential'
p593
sI586
S'atrium.'
p594
sI587
S'Changes'
p595
sI588
S'Arthritic'
p596
sI589
S'markings.'
p597
sI590
S'contrast'
p598
sI591
S'improved'
p599
sI592
S'wall'
p600
sI593
S'clips.'
p601
sI594
S'volumes,'
p602
sI595
S'age.'
p603
sI596
S'abdomen.'
p604
sI597
S'imaging'
p605
sI598
S'Vague'
p606
sI599
S'quadrant.'
p607
sI600
S'position.'
p608
sI601
S'airways'
p609
sI602
S'atrium'
p610
sI603
S'prior.'
p611
sI604
S'elevated'
p612
sI605
S'convincing'
p613
sI606
S'one'
p614
sI607
S'infectious'
p615
sI608
S'configuration'
p616
sI609
S'cardiomegaly,'
p617
sI610
S'involving'
p618
sI611
S'markings,'
p619
sI612
S'clavicle'
p620
sI613
S'atrial'
p621
sI614
S'adjacent'
p622
sI615
S'Postsurgical'
p623
sI616
S'Nodular'
p624
sI617
S'adenopathy'
p625
sI618
S'peripheral'
p626
sI619
S'x-XXXX'
p627
sI620
S'amount'
p628
sI621
S'aspect'
p629
sI622
S'nipple'
p630
sI623
S'9th'
p631
sI624
S'cannot'
p632
sI625
S'early'
p633
sI626
S'failure.'
p634
sI627
S'Chest'
p635
sI628
S'Emphysematous'
p636
sI629
S'Vascular'
p637
sI630
S'outside'
p638
sI631
S'recommended'
p639
sI632
S'exclude'
p640
sI633
S'helpful'
p641
sI634
S'aorta,'
p642
sI635
S'Question'
p643
sI636
S'ventricle.'
p644
sI637
S'overall'
p645
sI638
S'few'
p646
sI639
S'resolution.'
p647
sI640
S'air.'
p648
sI641
S'diagnosis'
p649
sI642
S'dense'
p650
sI643
S'Some'
p651
sI644
S'previously'
p652
sI645
S'ascending'
p653
sI646
S'vasculature,'
p654
sI647
S'Central'
p655
sI648
S'flattened'
p656
sI649
S'abnormal'
p657
sI650
S'Left-sided'
p658
sI651
S'better'
p659
sI652
S'wedge'
p660
sI653
S'7th'
p661
sI654
S'atypical'
p662
sI655
S'region.'
p663
sI656
S'artery'
p664
sI657
S'Multilevel'
p665
sI658
S'persistent'
p666
sI659
S'calcified.'
p667
sI660
S'COPD'
p668
sI661
S'Elevated'
p669
sI662
S'eventration'
p670
sI663
S'ribs'
p671
sI664
S'technical'
p672
sI665
S'suggests'
p673
sI666
S'abdominal'
p674
sI667
S'fusion'
p675
sI668
S'technique.'
p676
sI669
S'correlation'
p677
sI670
S'acute,'
p678
sI671
S'scar'
p679
sI672
S'surgery.'
p680
sI673
S'films'
p681
sI674
S'projection.'
p682
sI675
S'valve'
p683
sI676
S'factors'
p684
sI677
S'multilevel'
p685
sI678
S'cavitary'
p686
sI679
S'nodules,'
p687
sI680
S'scoliosis'
p688
sI681
S'aeration'
p689
sI682
S'preoperative'
p690
sI683
S'clavicle.'
p691
sI684
S'other'
p692
sI685
S'parenchyma'
p693
sI686
S'However,'
p694
sI687
S'hernia'
p695
sI688
S'chest,'
p696
sI689
S'Trachea'
p697
sI690
S'CT.'
p698
sI691
S'breast'
p699
sI692
S'aerated.'
p700
sI693
S'shoulder.'
p701
sI694
S'osteophytes'
p702
sI695
S'visualized.'
p703
sI696
S'moderately'
p704
sI697
S'6'
sI698
S'hyperexpansion'
p705
sI699
S'inflammatory'
p706
sI700
S'widening'
p707
sI701
S'several'
p708
sI702
S'inferior'
p709
sI703
S'above'
p710
sI704
S'foreign'
p711
sI705
S'placement'
p712
sI706
S'internal'
p713
sI707
S'jugular'
p714
sI708
S'dilated'
p715
sI709
S'bowel'
p716
sI710
S'recommend'
p717
sI711
S'film.'
p718
sI712
S'first'
p719
sI713
S'hypertension.'
p720
sI714
S'excluded.'
p721
sI715
S'5th'
p722
sI716
S'lingula.'
p723
sI717
S'removal'
p724
sI718
S'overlies'
p725
sI719
S'apex,'
p726
sI720
S'enlargement.'
p727
sI721
S'up'
p728
sI722
S'large.'
p729
sI723
S'Severe'
p730
sI724
S'marked'
p731
sI725
S'development'
p732
sI726
S'kyphosis.'
p733
sI727
S'Followup'
p734
sI728
S'Possible'
p735
sI729
S'note'
p736
sI730
S'projects'
p737
sI731
S'fat'
p738
sI732
S'before.'
p739
sI733
S'position'
p740
sI734
S'Diffuse'
p741
sI735
S'monitor'
p742
sI736
S'vein.'
p743
sI737
S'bodies.'
p744
sI738
S'diameter.'
p745
sI739
S'Extensive'
p746
sI740
S'healed'
p747
sI741
S'contours,'
p748
sI742
S'kyphosis'
p749
sI743
S'irregular'
p750
sI744
S'8th'
p751
sI745
S'lesions'
p752
sI746
S'retrosternal'
p753
sI747
S'diaphragms'
p754
sI748
S'3'
sI749
S'status'
p755
sI750
S'round'
p756
sI751
S'proximal'
p757
sI752
S'pleural-parenchymal'
p758
sI753
S'infection'
p759
sI754
S'Slight'
p760
sI755
S'collapse'
p761
sI756
S'sternotomy.'
p762
sI757
S'cavoatrial'
p763
sI758
S'Lateral'
p764
sI759
S'hyperinflation'
p765
sI760
S'head'
p766
sI761
S'technique,'
p767
sI762
S'Correlate'
p768
sI763
S'numerous'
p769
sI764
S'hypoinflated.'
p770
sI765
S'well-aerated.'
p771
sI766
S'7'
sI767
S'hilum.'
p772
sI768
S'mass.'
p773
sI769
S'1'
sI770
S'Redemonstration'
p774
sI771
S'atherosclerotic.'
p775
sI772
S'concern'
p776
sI773
S'arthritic'
p777
sI774
S'interval,'
p778
sI775
S'rounded'
p779
sI776
S'epicardial'
p780
sI777
S'postoperative'
p781
sI778
S'normal,'
p782
sI779
S'elevated.'
p783
sI780
S'pattern'
p784
sI781
S'hemidiaphragms.'
p785
sI782
S'document'
p786
sI783
S'images'
p787
sI784
S'recent'
p788
sI785
S'hyperinflation.'
p789
sI786
S'lymphadenopathy.'
p790
sI787
S'bodies'
p791
sI788
S'bilaterally,'
p792
sI789
S'failure'
p793
sI790
S'generator'
p794
sI791
S'Sternotomy'
p795
sI792
S'sulcus'
p796
sI793
S'Bronchovascular'
p797
sI794
S'scarring,'
p798
sI795
S'evaluate'
p799
sI796
S'notification'
p800
sI797
S'external'
p801
sI798
S'lesion'
p802
sI799
S'acromioclavicular'
p803
sI800
S'IJ'
p804
sI801
S'CABG'
p805
sI802
S'It'
p806
sI803
S'deformity.'
p807
sI804
S'overlie'
p808
sI805
S'dedicated'
p809
sI806
S'fibrosis'
p810
sI807
S'device'
p811
sI808
S'developed'
p812
sI809
S'increase'
p813
sI810
S'spurring'
p814
sI811
S'sized'
p815
sI812
S'4'
sI813
S'ectasia/tortuosity.'
p816
sI814
S'partial'
p817
sI815
S'quadrant'
p818
sI816
S'scar.'
p819
sI817
S'prominence.'
p820
sI818
S'Continued'
p821
sI819
S'indicate'
p822
sI820
S'ectasia'
p823
sI821
S'coarse'
p824
sI822
S'Chest:'
p825
sI823
S'subdiaphragmatic'
p826
sI824
S'coronary'
p827
sI825
S'calcific'
p828
sI826
S'age-indeterminate'
p829
sI827
S'artifact.'
p830
sI828
S'high'
p831
sI829
S'Patient'
p832
sI830
S'fissure.'
p833
sI831
S'measures'
p834
sI832
S'Scoliosis'
p835
sI833
S'apices.'
p836
sI834
S'Marked'
p837
sI835
S'bases,'
p838
sI836
S'hilum'
p839
sI837
S'slight'
p840
sI838
S'stomach'
p841
sI839
S'structures.'
p842
sI840
S'Focal'
p843
sI841
S'Abnormal'
p844
sI842
S'emphysema'
p845
sI843
S'shows'
p846
sI844
S'gross'
p847
sI845
S'cystic'
p848
sI846
S'includes'
p849
sI847
S'noncalcified'
p850
sI848
S'worse'
p851
sI849
S'dextroscoliosis'
p852
sI850
S'bandlike'
p853
sI851
S'suprahilar'
p854
sI852
S'decreased'
p855
sI853
S'Primordial.'
p856
sI854
S'result'
p857
sI855
S'Consider'
p858
sI856
S'above.'
p859
sI857
S'Mediastinum'
p860
sI858
S'wedging'
p861
sI859
S'discrete'
p862
sI860
S'Slightly'
p863
sI861
S'demonstrates'
p864
sI862
S'appropriate'
p865
sI863
S'however'
p866
sI864
S'redemonstration'
p867
sI865
S'remote'
p868
sI866
S'Stable,'
p869
sI867
S'arteries.'
p870
sI868
S'zone.'
p871
sI869
S'Please'
p872
sI870
S'exam,'
p873
sI871
S'consolidations,'
p874
sI872
S'accentuated'
p875
sI873
S'infection,'
p876
sI874
S'developing'
p877
sI875
S'Grossly'
p878
sI876
S'including'
p879
sI877
S'these'
p880
sI878
S'diaphragms.'
p881
sI879
S'Interstitial'
p882
sI880
S'expected'
p883
sI881
S'Considering'
p884
sI882
S'osteophyte'
p885
sI883
S'tuberculous'
p886
sI884
S'loops'
p887
sI885
S'ill-defined'
p888
sI886
S'ectatic'
p889
sI887
S'Sequelae'
p890
sI888
S'cholecystectomy.'
p891
sI889
S'Two'
p892
sI890
S'left,'
p893
sI891
S'described'
p894
sI892
S'improvement'
p895
sI893
S'basal'
p896
sI894
S'removed.'
p897
sI895
S'obscuration'
p898
sI896
S'midline'
p899
sI897
S"today's"
p900
sI898
S'healing'
p901
sI899
S'comparison.'
p902
sI900
S'Improved'
p903
sI901
S'Critical'
p904
sI902
S'noted,'
p905
sI903
S'Dr.'
p906
sI904
S'caliber.'
p907
sI905
S'Further'
p908
sI906
S'questionable'
p909
sI907
S'extensive'
p910
sI908
S'its'
p911
sI909
S'age-indeterminate.'
p912
sI910
S'appreciated'
p913
sI911
S'discussed'
p914
sI912
S'catheter.'
p915
sI913
S'excluded'
p916
sI914
S'hemithorax'
p917
sI915
S'CHF.'
p918
sI916
S'fixation'
p919
sI917
S'carina.'
p920
sI918
S'crowding,'
p921
sI919
S'Osteopenia'
p922
sI920
S'Negative.'
p923
sI921
S'incompletely'
p924
sI922
S'pelvis'
p925
sI923
S'Enlarged'
p926
sI924
S'azygos'
p927
sI925
S'Right-sided'
p928
sI926
S'inspiratory'
p929
sI927
S'documented'
p930
sI928
S'characterization.'
p931
sI929
S'clips,'
p932
sI930
S'node.'
p933
sI931
S'blunted'
p934
sI932
S'atelectasis/airspace'
p935
sI933
S'fourth'
p936
sI934
S'difficult'
p937
sI935
S'unfolding'
p938
sI936
S'knee.'
p939
sI937
S'pacemaker'
p940
sI938
S'lobes'
p941
sI939
S'terminating'
p942
sI940
S'changes,'
p943
sI941
S'helpful.'
p944
sI942
S'dual-lumen'
p945
sI943
S'include'
p946
sI944
S'irregularity'
p947
sI945
S'Compared'
p948
sI946
S'scan.'
p949
sI947
S'Biapical'
p950
sI948
S'destructive'
p951
sI949
S'projected'
p952
sI950
S'neck'
p953
sI951
S'treatment'
p954
sI952
S'osseus'
p955
sI953
S'Again'
p956
sI954
S'spine,'
p957
sI955
S'deformities.'
p958
sI956
S'fusion.'
p959
sI957
S'fat.'
p960
sI958
S'tubing'
p961
sI959
S'pneumoperitoneum.'
p962
sI960
S'posttraumatic'
p963
sI961
S'worsening'
p964
sI962
S'Cardiomegaly,'
p965
sI963
S'injury'
p966
sI964
S'Age-indeterminate'
p967
sI965
S'location'
p968
sI966
S'Status'
p969
sI967
S'collection'
p970
sI968
S'cm.'
p971
sI969
S'correlate'
p972
sI970
S'nodule,'
p973
sI971
S'fractures,'
p974
sI972
S'formation'
p975
sI973
S'below'
p976
sI974
S'study,'
p977
sI975
S'only'
p978
sI976
S'differences'
p979
sI977
S'dislocation.'
p980
sI978
S'Exam'
p981
sI979
S'lordotic'
p982
sI980
S'shadows'
p983
sI981
S'vague'
p984
sI982
S'axillary'
p985
sI983
S'complete'
p986
sI984
S'additional'
p987
sI985
S'indicated.'
p988
sI986
S'zone'
p989
sI987
S'joints'
p990
sI988
S'Fracture'
p991
sI989
S'primary'
p992
sI990
S'dislocations.'
p993
sI991
S'Postoperative'
p994
sI992
S'prominent.'
p995
sI993
S'Overall'
p996
sI994
S'Dense'
p997
sI995
S'Previously'
p998
sI996
S'ensure'
p999
sI997
S'blunted.'
p1000
sI998
S'rotation.'
p1001
sI999
S'hypoinflation'
p1002
sI1000
S'opacification'
p1003
sI1001
S'sclerotic'
p1004
sI1002
S'obvious'
p1005
sI1003
S'infiltrates,'
p1006
sI1004
S'decubitus'
p1007
sI1005
S'appreciated.'
p1008
sI1006
S'Granulomatous'
p1009
sI1007
S'hyperinflated.'
p1010
sI1008
S'artifact'
p1011
sI1009
S'hyperexpansion.'
p1012
sI1010
S'senescent'
p1013
sI1011
S'bypass'
p1014
sI1012
S'loculated'
p1015
sI1013
S'Tracheostomy'
p1016
sI1014
S'confluent'
p1017
sI1015
S'Exaggerated'
p1018
sI1016
S'confirm'
p1019
sI1017
S'Costophrenic'
p1020
sI1018
S'subtle'
p1021
sI1019
S'indistinct'
p1022
sI1020
S'8mm'
p1023
sI1021
S'Eventration'
p1024
sI1022
S'cortical'
p1025
sI1023
S'does'
p1026
sI1024
S'obscured'
p1027
sI1025
S'Upper'
p1028
sI1026
S'finding'
p1029
sI1027
S'Blunting'
p1030
sI1028
S'symmetric'
p1031
sI1029
S'spinal'
p1032
sI1030
S'seen,'
p1033
sI1031
S'relatively'
p1034
sI1032
S'Evidence'
p1035
sI1033
S'levoscoliosis'
p1036
sI1034
S'less'
p1037
sI1035
S'midlung,'
p1038
sI1036
S'habitus.'
p1039
sI1037
S'two'
p1040
sI1038
S'pneumonitis.'
p1041
sI1039
S'Midline'
p1042
sI1040
S'Bone'
p1043
sI1041
S'performed'
p1044
sI1042
S'etiology'
p1045
sI1043
S'fracture,'
p1046
sI1044
S'tips'
p1047
sI1045
S'scoliosis.'
p1048
sI1046
S'8'
sI1047
S'Pectus'
p1049
sI1048
S'eventration.'
p1050
sI1049
S'setting'
p1051
sI1050
S'collections.'
p1052
sI1051
S'caval'
p1053
sI1052
S'fibrotic'
p1054
sI1053
S'diameter'
p1055
sI1054
S'trapping'
p1056
sI1055
S'Evaluation'
p1057
sI1056
S'lingula'
p1058
sI1057
S'infrahilar'
p1059
sI1058
S'platelike'
p1060
sI1059
S'studies'
p1061
sI1060
S'Cholecystectomy'
p1062
sI1061
S'TB.'
p1063
sI1062
S'space.'
p1064
sI1063
S'asymmetric'
p1065
sI1064
S'Rotated'
p1066
sI1065
S'tissues.'
p1067
sI1066
S'arteries'
p1068
sI1067
S'nondisplaced'
p1069
sI1068
S'favored'
p1070
sI1069
S'tracheostomy'
p1071
sI1070
S'rib,'
p1072
sI1071
S'XXXX-A-XXXX'
p1073
sI1072
S'hours'
p1074
sI1073
S'well-inflated'
p1075
sI1074
S'XXXX/XXXX.'
p1076
sI1075
S'overlap'
p1077
sI1076
S'single'
p1078
sI1077
S'dextrocurvature'
p1079
sI1078
S'history.'
p1080
sI1079
S'rotated.'
p1081
sI1080
S'corresponding'
p1082
sI1081
S'portions'
p1083
sI1082
S'tortuosity.'
p1084
sI1083
S'airspace.'
p1085
sI1084
S'imaging.'
p1086
sI1085
S'mass,'
p1087
sI1086
S'knee:'
p1088
sI1087
S'reflecting'
p1089
sI1088
S'active/acute'
p1090
sI1089
S'prominence,'
p1091
sI1090
S'clinically.'
p1092
sI1091
S'Opacity'
p1093
sI1092
S'bullous'
p1094
sI1093
S'Bandlike'
p1095
sI1094
S'stent.'
p1096
sI1095
S'subcutaneous'
p1097
sI1096
S'rightward'
p1098
sI1097
S'notified'
p1099
sI1098
S'question'
p1100
sI1099
S'Acute'
p1101
sI1100
S'node'
p1102
sI1101
S'stability.'
p1103
sI1102
S'reactive'
p1104
sI1103
S'following'
p1105
sI1104
S'hip'
p1106
sI1105
S'engorged.'
p1107
sI1106
S'1.9'
p1108
sI1107
S'atherosclerosis.'
p1109
sI1108
S'tortuous,'
p1110
sI1109
S'Apparent'
p1111
sI1110
S'predominantly'
p1112
sI1111
S'fullness'
p1113
sI1112
S'shift.'
p1114
sI1113
S'weeks'
p1115
sI1114
S'sarcoidosis.'
p1116
sI1115
S'catheter,'
p1117
sI1116
S'combination'
p1118
sI1117
S'femoral'
p1119
sI1118
S'available,'
p1120
sI1119
S'head.'
p1121
sI1120
S'thorax.'
p1122
sI1121
S'mitral'
p1123
sI1122
S'apparent'
p1124
sI1123
S'atelectatic'
p1125
sI1124
S'Similar'
p1126
sI1125
S'diffusely'
p1127
sI1126
S'after'
p1128
sI1127
S'very'
p1129
sI1128
S'evaluated'
p1130
sI1129
S'between'
p1131
sI1130
S'Very'
p1132
sI1131
S'Apical'
p1133
sI1132
S'Redemonstrated'
p1134
sI1133
S'Lumbar'
p1135
sI1134
S'junction'
p1136
sI1135
S'now'
p1137
sI1136
S'thickening,'
p1138
sI1137
S'quality'
p1139
sI1138
S'apices'
p1140
sI1139
S'approximating'
p1141
sI1140
S'hypoventilation'
p1142
sI1141
S'ectatic.'
p1143
sI1142
S'focus'
p1144
sI1143
S'obtained'
p1145
sI1144
S'aneurysm.'
p1146
sI1145
S'nonspecific'
p1147
sI1146
S'causing'
p1148
sI1147
S'consolidations'
p1149
sI1148
S'Incidental'
p1150
sI1149
S'Decreased'
p1151
sI1150
S'opacification.'
p1152
sI1151
S'this.'
p1153
sI1152
S'kyphotic'
p1154
sI1153
S'density.'
p1155
sI1154
S'air-fluid'
p1156
sI1155
S'evaluated.'
p1157
sI1156
S'film'
p1158
sI1157
S'Lower'
p1159
sI1158
S'T9'
p1160
sI1159
S'overlapping'
p1161
sI1160
S'sulci'
p1162
sI1161
S'fissure'
p1163
sI1162
S'T12.'
p1164
sI1163
S'largest'
p1165
sI1164
S'lobectomy.'
p1166
sI1165
S'replacement.'
p1167
sI1166
S'larger'
p1168
sI1167
S'follow'
p1169
sI1168
S'Within'
p1170
sI1169
S'containing'
p1171
sI1170
S'Subtle'
p1172
sI1171
S'3.3'
p1173
sI1172
S'studies.'
p1174
sI1173
S"There's"
p1175
sI1174
S'resolved.'
p1176
sI1175
S'Appearance'
p1177
sI1176
S'cancer.'
p1178
sI1177
S'aneurysm'
p1179
sI1178
S'axilla.'
p1180
sI1179
S'obscure'
p1181
sI1180
S'diminished'
p1182
sI1181
S'disease..'
p1183
sI1182
S'evaluate.'
p1184
sI1183
S'pleura,'
p1185
sI1184
S'Questionable'
p1186
sI1185
S'dialysis'
p1187
sI1186
S'cardiophrenic'
p1188
sI1187
S'Basilar'
p1189
sI1188
S'stimulator'
p1190
sI1189
S'exaggerated'
p1191
sI1190
S'Tortuosity'
p1192
sI1191
S'disease/atelectasis.'
p1193
sI1192
S'ventricular'
p1194
sI1193
S'resection'
p1195
sI1194
S'structure'
p1196
sI1195
S'negative'
p1197
sI1196
S'Hyperexpansion'
p1198
sI1197
S'atherosclerosis'
p1199
sI1198
S'alignment'
p1200
sI1199
S'remaining'
p1201
sI1200
S'airways.'
p1202
sI1201
S'clavicle,'
p1203
sI1202
S'part'
p1204
sI1203
S'dextro'
p1205
sI1204
S'widened'
p1206
sI1205
S'continued'
p1207
sI1206
S'region,'
p1208
sI1207
S'scoliotic'
p1209
sI1208
S'Clips'
p1210
sI1209
S'On'
p1211
sI1210
S'tunneled'
p1212
sI1211
S'stent'
p1213
sI1212
S'1.5'
p1214
sI1213
S'screw'
p1215
sI1214
S'cholecystectomy'
p1216
sI1215
S'Minimally'
p1217
sI1216
S'about'
p1218
sI1217
S'please'
p1219
sI1218
S'trachea.'
p1220
sI1219
S'bullet'
p1221
sI1220
S'like'
p1222
sI1221
S'Hyperinflation'
p1223
sI1222
S'well.'
p1224
sI1223
S'granuloma,'
p1225
sI1224
S'Retrocardiac'
p1226
sI1225
S'see'
p1227
sI1226
S'narrowing'
p1228
sI1227
S'spine..'
p1229
sI1228
S'radiopaque'
p1230
sI1229
S'Three'
p1231
sI1230
S'sided'
p1232
sI1231
S'shadows.'
p1233
sI1232
S'presence'
p1234
sI1233
S'determine'
p1235
sI1234
S'localized'
p1236
sI1235
S'An'
p1237
sI1236
S'pectus'
p1238
sI1237
S'lines'
p1239
sI1238
S'mastectomy.'
p1240
sI1239
S'neck.'
p1241
sI1240
S'S-shaped'
p1242
sI1241
S'it'
p1243
sI1242
S'exams.'
p1244
sI1243
S'granulomata'
p1245
sI1244
S'1.8'
p1246
sI1245
S'cardiothoracic'
p1247
sI1246
S'wall.'
p1248
sI1247
S'relative'
p1249
sI1248
S'Dextroscoliosis'
p1250
sI1249
S'Calcific'
p1251
sI1250
S'Ill-defined'
p1252
sI1251
S'reticular'
p1253
sI1252
S'Healed'
p1254
sI1253
S'cardio'
p1255
sI1254
S'maintained.'
p1256
sI1255
S'Hyperlucent'
p1257
sI1256
S'should'
p1258
sI1257
S'Note'
p1259
sI1258
S'subpleural'
p1260
sI1259
S'malignancy.'
p1261
sI1260
S'Overall,'
p1262
sI1261
S'humerus.'
p1263
sI1262
S'dextroscoliosis.'
p1264
sI1263
S'resolved'
p1265
sI1264
S'/'
sI1265
S'Prominence'
p1266
sI1266
S'projection'
p1267
sI1267
S'material'
p1268
sI1268
S'hyperinflated,'
p1269
sI1269
S'ventricle,'
p1270
sI1270
S'well-seen'
p1271
sI1271
S'humerus'
p1272
sI1272
S'shunt'
p1273
sI1273
S'characteristic'
p1274
sI1274
S'arterial'
p1275
sI1275
S'transverse'
p1276
sI1276
S'consolidative'
p1277
sI1277
S'renal'
p1278
sI1278
S'May'
p1279
sI1279
S'portion'
p1280
sI1280
S'Relative'
p1281
sI1281
S'extremity'
p1282
sI1282
S'10'
p1283
sI1283
S'9'
sI1284
S'irregularities'
p1284
sI1285
S'ectasia/tortuosity,'
p1285
sI1286
S'discoid'
p1286
sI1287
S'abdomen,'
p1287
sI1288
S'External'
p1288
sI1289
S'lymphadenopathy'
p1289
sI1290
S'sulci.'
p1290
sI1291
S'X-XXXX'
p1291
sI1292
S'considerations'
p1292
sI1293
S'posteriorly'
p1293
sI1294
S'femur'
p1294
sI1295
S'For'
p1295
sI1296
S'Calcification'
p1296
sI1297
S'stable,'
p1297
sI1298
S'hyperinflation,'
p1298
sI1299
S'thoracotomy'
p1299
sI1300
S'motion.'
p1300
sI1301
S'greatest'
p1301
sI1302
S'Cannot'
p1302
sI1303
S'hemithorax.'
p1303
sI1304
S'background'
p1304
sI1305
S'Contrast'
p1305
sI1306
S'oriented'
p1306
sI1307
S'dated'
p1307
sI1308
S'coarsened'
p1308
sI1309
S'increased.'
p1309
sI1310
S'colon.'
p1310
sI1311
S'hyperlucency'
p1311
sI1312
S'reflects'
p1312
sI1313
S'suture'
p1313
sI1314
S'hemidiaphragms'
p1314
sI1315
S'glenohumeral'
p1315
sI1316
S'AICD'
p1316
sI1317
S'thin'
p1317
sI1318
S'however,'
p1318
sI1319
S'hiatus'
p1319
sI1320
S'decreased.'
p1320
sI1321
S'well-expanded'
p1321
sI1322
S'hilum,'
p1322
sI1323
S'fibrosis,'
p1323
sI1324
S'Underlying'
p1324
sI1325
S'suggested'
p1325
sI1326
S'defibrillator'
p1326
sI1327
S'advanced'
p1327
sI1328
S'hyperexpanded,'
p1328
sI1329
S'masses,'
p1329
sI1330
S'loss.'
p1330
sI1331
S'demineralization.'
p1331
sI1332
S'ribs,'
p1332
sI1333
S'remainder'
p1333
sI1334
S'views.'
p1334
sI1335
S'whose'
p1335
sI1336
S'although'
p1336
sI1337
S'absence'
p1337
sI1338
S'Remainder'
p1338
sI1339
S'Unchanged.'
p1339
sI1340
S'markedly'
p1340
sI1341
S'splenic'
p1341
sI1342
S'gastroesophageal'
p1342
sI1343
S'redemonstrated.'
p1343
sI1344
S'shape.'
p1344
sI1345
S'entirely'
p1345
sI1346
S'intravenous'
p1346
sI1347
S'Catheter'
p1347
sI1348
S'Suspected'
p1348
sI1349
S'Dilated'
p1349
sI1350
S'body,'
p1350
sI1351
S'elevation.'
p1351
sI1352
S'clavicular'
p1352
sI1353
S'atelectasis..'
p1353
sI1354
S'critical'
p1354
sI1355
S'completely'
p1355
sI1356
S'pneumothorax..'
p1356
sI1357
S'bilaterally.There'
p1357
sI1358
S'radiographically'
p1358
sI1359
S'image'
p1359
sI1360
S'Rounded'
p1360
sI1361
S'radiographs.'
p1361
sI1362
S'procedure.'
p1362
sI1363
S'warranted.'
p1363
sI1364
S'curvilinear'
p1364
sI1365
S'increasing'
p1365
sI1366
S'particularly'
p1366
sI1367
S'time'
p1367
sI1368
S'convexity'
p1368
sI1369
S'breast.'
p1369
sI1370
S'vertebra.'
p1370
sI1371
S'graft'
p1371
sI1372
S'third'
p1372
sI1373
S'Consolidation'
p1373
sI1374
S'1.2'
p1374
sI1375
S'aspiration.'
p1375
sI1376
S'bronchi'
p1376
sI1377
S'Resolution'
p1377
sI1378
S'10th'
p1378
sI1379
S'lesion.'
p1379
sI1380
S'retraction.'
p1380
sI1381
S'T10'
p1381
sI1382
S'osteopenia'
p1382
sI1383
S'hemidiaphragms,'
p1383
sI1384
S'identified..'
p1384
sI1385
S'closure'
p1385
sI1386
S'posterolateral'
p1386
sI1387
S'Abdomen.'
p1387
sI1388
S'placed'
p1388
sI1389
S'obstruction.'
p1389
sI1390
S'bronchitis.'
p1390
sI1391
S'obscures'
p1391
sI1392
S'bronchiectasis,'
p1392
sI1393
S'oblique'
p1393
sI1394
S'peribronchial'
p1394
sI1395
S'overload.'
p1395
sI1396
S'uncertain'
p1396
sI1397
S'Osteopenia.'
p1397
sI1398
S'lesions.'
p1398
sI1399
S'suggestion'
p1399
sI1400
S'layering'
p1400
sI1401
S'indicated,'
p1401
sI1402
S'periphery'
p1402
sI1403
S'tube.'
p1403
sI1404
S'Coronary'
p1404
sI1405
S'ovoid'
p1405
sI1406
S'Numerous'
p1406
sI1407
S'satisfactory'
p1407
sI1408
S'correlation.'
p1408
sI1409
S'knee'
p1409
sI1410
S'ankle.'
p1410
sI1411
S'innominate'
p1411
sI1412
S'T6,'
p1412
sI1413
S'fibronodular'
p1413
sI1414
S'glenoid,'
p1414
sI1415
S'can'
p1415
sI1416
S'level.'
p1416
sI1417
S'brachiocephalic'
p1417
sI1418
S'rotator'
p1418
sI1419
S'joints.'
p1419
sI1420
S'examinations.'
p1420
sI1421
S'destruction.'
p1421
sI1422
S'compartment.'
p1422
sI1423
S'lingula,'
p1423
sI1424
S'located'
p1424
sI1425
S'dislocation'
p1425
sI1426
S'glenoid'
p1426
sI1427
S'tenderness.'
p1427
sI1428
S'notable'
p1428
sI1429
S'ventricle'
p1429
sI1430
S'1.4'
p1430
sI1431
S'Technically'
p1431
sI1432
S'patient.'
p1432
sI1433
S'unfolded.'
p1433
sI1434
S'colonic'
p1434
sI1435
S'blunting.'
p1435
sI1436
S'examinations'
p1436
sI1437
S'cavity.'
p1437
sI1438
S'scarring/atelectasis.'
p1438
sI1439
S'Correlation'
p1439
sI1440
S'available.'
p1440
sI1441
S'Decreasing'
p1441
sI1442
S'decrease'
p1442
sI1443
S'consolidating'
p1443
sI1444
S'reticulonodular'
p1444
sI1445
S'sutures'
p1445
sI1446
S'enlargement,'
p1446
sI1447
S'supine'
p1447
sI1448
S'Anticipated'
p1448
sI1449
S'excavatum'
p1449
sI1450
S'traumatic'
p1450
sI1451
S'neoplasm.'
p1451
sI1452
S'compartment'
p1452
sI1453
S'T11'
p1453
sI1454
S'Scarring'
p1454
sI1455
S'elements'
p1455
sI1456
S'costochondral'
p1456
sI1457
S'Anterior'
p1457
sI1458
S'courses'
p1458
sI1459
S'SVC'
p1459
sI1460
S'distribution'
p1460
sI1461
S'characterized'
p1461
sI1462
S'2.1'
p1462
sI1463
S'4th'
p1463
sI1464
S'Pacemaker'
p1464
sI1465
S'though'
p1465
sI1466
S'hernia,'
p1466
sI1467
S'Mid'
p1467
sI1468
S'After'
p1468
sI1469
S'series.'
p1469
sI1470
S'bibasal'
p1470
sI1471
S'Multifocal'
p1471
sI1472
S'unchanged,'
p1472
sI1473
S'subphrenic'
p1473
sI1474
S','
sI1475
S'will'
p1474
sI1476
S'thyroid'
p1475
sI1477
S'interstitium.'
p1476
sI1478
S'radiodense'
p1477
sI1479
S'desired'
p1478
sI1480
S'placement.'
p1479
sI1481
S'dense,'
p1480
sI1482
S'foci'
p1481
sI1483
S'large,'
p1482
sI1484
S'repeat'
p1483
sI1485
S'feeding'
p1484
sI1486
S'indicated'
p1485
sI1487
S'fifth'
p1486
sI1488
S'pneumomediastinum.'
p1487
sI1489
S'none'
p1488
sI1490
S'unfolded'
p1489
sI1491
S'features'
p1490
sI1492
S'Atherosclerosis'
p1491
sI1493
S'osteopenia.'
p1492
sI1494
S'whether'
p1493
sI1495
S'Distal'
p1494
sI1496
S'Airspace'
p1495
sI1497
S'incidentally'
p1496
sI1498
S'dual-XXXX'
p1497
sI1499
S'joint.'
p1498
sI1500
S'Hiatal'
p1499
sI1501
S'17'
p1500
sI1502
S'imaging,'
p1501
sI1503
S'Increasing'
p1502
sI1504
S'Accounting'
p1503
sI1505
S'granulomas/lymph'
p1504
sI1506
S'retraction'
p1505
sI1507
S'resolving'
p1506
sI1508
S'margin'
p1507
sI1509
S'congestive'
p1508
sI1510
S'obscuring'
p1509
sI1511
S'questions'
p1510
sI1512
S'Levocurvature'
p1511
sI1513
S'margination.'
p1512
sI1514
S'indeterminant'
p1513
sI1515
S'Enteric'
p1514
sI1516
S'Veriphy'
p1515
sI1517
S'your'
p1516
sI1518
S'idiopathic'
p1517
sI1519
S'Stable.'
p1518
sI1520
S'Mediport'
p1519
sI1521
S'rotated'
p1520
sI1522
S'into'
p1521
sI1523
S'aerated'
p1522
sI1524
S'tubes.'
p1523
sI1525
S'Sequela'
p1524
sI1526
S'aspiration,'
p1525
sI1527
S'margination'
p1526
sI1528
S'useful.'
p1527
sI1529
S'Maybe'
p1528
sI1530
S'1.6'
p1529
sI1531
S'Nonspecific'
p1530
sI1532
S'followed'
p1531
sI1533
S'tumor.'
p1532
sI1534
S'intact,'
p1533
sI1535
S'XXXX-of-view.'
p1534
sI1536
S'VP'
p1535
sI1537
S'annular'
p1536
sI1538
S'1.0'
p1537
sI1539
S'thickness.'
p1538
sI1540
S'pattern.'
p1539
sI1541
S'Clinical'
p1540
sI1542
S'parahilar'
p1541
sI1543
S'ICD'
p1542
sI1544
S'therapy'
p1543
sI1545
S'already'
p1544
sI1546
S'remarkable.'
p1545
sI1547
S'END'
p1546
sI1548
S'Intact'
p1547
sI1549
S'3.5'
p1548
sI1550
S'OF'
p1549
sI1551
S'Round'
p1550
sI1552
S'REPORT.'
p1551
sI1553
S'collection.'
p1552
sI1554
S'partly'
p1553
sI1555
S'Subsegmental'
p1554
sI1556
S'total'
p1555
sI1557
S'tubes'
p1556
sI1558
S'radiation'
p1557
sI1559
S'Generalized'
p1558
sI1560
S'months'
p1559
sI1561
S'TIPS'
p1560
sI1562
S'Endotracheal'
p1561
sI1563
S'beneath'
p1562
sI1564
S'shoulder:'
p1563
sI1565
S'levels'
p1564
sI1566
S'markers.'
p1565
sI1567
S'Mild,'
p1566
sI1568
S'short'
p1567
sI1569
S'Bullae'
p1568
sI1570
S'regions,'
p1569
sI1571
S'levels.'
p1570
sI1572
S'Shunt'
p1571
sI1573
S'motion'
p1572
sI1574
S'rotation'
p1573
sI1575
S'interstitium'
p1574
sI1576
S'subpulmonic'
p1575
sI1577
S'vertebroplasty'
p1576
sI1578
S'Elevation'
p1577
sI1579
S'myeloma.'
p1578
sI1580
S'lucency.'
p1579
sI1581
S'prosthetic'
p1580
sI1582
S'cortex'
p1581
sI1583
S'view).'
p1582
sI1584
S'cuffing'
p1583
sI1585
S'notably'
p1584
sI1586
S'Lingular'
p1585
sI1587
S'line.'
p1586
sI1588
S'receipt'
p1587
sI1589
S'diaphragm,'
p1588
sI1590
S'dependent'
p1589
sI1591
S'centrally'
p1590
sI1592
S'fragment'
p1591
sI1593
S'osteopenia,'
p1592
sI1594
S'deformities,'
p1593
sI1595
S'ectatic,'
p1594
sI1596
S'Peripheral'
p1595
sI1597
S'IV'
p1596
sI1598
S'Contour'
p1597
sI1599
S'left-sided.'
p1598
sI1600
S'physician'
p1599
sI1601
S'p.m.'
p1600
sI1602
S'loss,'
p1601
sI1603
S'Senescent'
p1602
sI1604
S'Fractures'
p1603
sI1605
S'pattern,'
p1604
sI1606
S'shift'
p1605
sI1607
S'recommendations'
p1606
sI1608
S'posteriorly.'
p1607
sI1609
S'telephone'
p1608
sI1610
S'DISH'
p1609
sI1611
S'Several'
p1610
sI1612
S'definitively'
p1611
sI1613
S'XXXX-a-XXXX'
p1612
sI1614
S'alternatively'
p1613
sI1615
S'silhouettes.'
p1614
sI1616
S'end.'
p1615
sI1617
S'Cervical'
p1616
sI1618
S'I'
sI1619
S'cardia'
p1617
sI1620
S'progression'
p1618
sI1621
S'do'
p1619
sI1622
S'message'
p1620
sI1623
S'detailed'
p1621
sI1624
S'structures,'
p1622
sI1625
S'L1'
p1623
sI1626
S'T12'
p1624
sI1627
S'Lumbosacral'
p1625
sI1628
S'regions.'
p1626
sI1629
S'appreciable'
p1627
sI1630
S'before'
p1628
sI1631
S'portable'
p1629
sI1632
S'scapula'
p1630
sI1633
S'1.7'
p1631
sI1634
S'fractured.'
p1632
sI1635
S'Lobulated'
p1633
sI1636
S'vertebrae'
p1634
sI1637
S'benign'
p1635
sI1638
S'Ribs.'
p1636
sI1639
S'Pelvis.'
p1637
sI1640
S'obliteration'
p1638
sI1641
S'projectile'
p1639
sI1642
S'Calcifications'
p1640
sI1643
S'another'
p1641
sI1644
S'definitely'
p1642
sI1645
S'true'
p1643
sI1646
S'displacement'
p1644
sI1647
S'bronchial'
p1645
sI1648
S'poorly'
p1646
sI1649
S'second'
p1647
sI1650
S'sequelae'
p1648
sI1651
S'characterization'
p1649
sI1652
S'Cardiopulmonary'
p1650
sI1653
S'hyperlucent'
p1651
sI1654
S'denser'
p1652
sI1655
S'indeterminate'
p1653
sI1656
S'stool'
p1654
sI1657
S'Advanced'
p1655
sI1658
S'benefit'
p1656
sI1659
S'useful'
p1657
sI1660
S'Irregularity'
p1658
sI1661
S'Suggest'
p1659
sI1662
S'subchondral'
p1660
sI1663
S'potential'
p1661
sI1664
S'Pelvis'
p1662
sI1665
S'DISH.'
p1663
sI1666
S'Given'
p1664
sI1667
S'arthritis.'
p1665
sI1668
S'sclerosis'
p1666
sI1669
S'pacemaker.'
p1667
sI1670
S'contain'
p1668
sI1671
S'Flowing'
p1669
sI1672
S'L1,'
p1670
sI1673
S'aeration.'
p1671
sI1674
S'highly'
p1672
sI1675
S'positional.'
p1673
sI1676
S'deviation'
p1674
sI1677
S'lymphadenopathy,'
p1675
sI1678
S'terminates'
p1676
sI1679
S'osteoarthritis.'
p1677
sI1680
S'marginal'
p1678
sI1681
S'side.'
p1679
sI1682
S'clearing'
p1680
sI1683
S'carinatum.'
p1681
sI1684
S'Deformity'
p1682
sI1685
S'consideration.'
p1683
sI1686
S'addition,'
p1684
sI1687
S'residuals'
p1685
sI1688
S'superficial'
p1686
sI1689
S'appearance,'
p1687
sI1690
S'onset'
p1688
sI1691
S'exams'
p1689
sI1692
S'Although'
p1690
sI1693
S'fissural'
p1691
sI1694
S'masslike'
p1692
sI1695
S'malignancy'
p1693
sI1696
S'septal'
p1694
sI1697
S'limit'
p1695
sI1698
S'leads,'
p1696
sI1699
S'results'
p1697
sI1700
S'callus'
p1698
sI1701
S'Volume'
p1699
sI1702
S'circular'
p1700
sI1703
S'Irregular'
p1701
sI1704
S'horizontal'
p1702
sI1705
S'attenuation'
p1703
sI1706
S'Feeding'
p1704
sI1707
S'collecting'
p1705
sI1708
S'tricompartmental'
p1706
sI1709
S'width.'
p1707
sI1710
S'obliquely'
p1708
sI1711
S'Crowded'
p1709
sI1712
S'conspicuous'
p1710
sI1713
S'hip.'
p1711
sI1714
S'negative.'
p1712
sI1715
S'Worsening'
p1713
sI1716
S'airway'
p1714
sI1717
S'improved.'
p1715
sI1718
S'accentuated.'
p1716
sI1719
S'humerus,'
p1717
sI1720
S'Gastrostomy'
p1718
sI1721
S'disrupted.'
p1719
sI1722
S'immediately'
p1720
sI1723
S'Asymmetric'
p1721
sI1724
S'telephone.'
p1722
sI1725
S'zones.'
p1723
sI1726
S'workup'
p1724
sI1727
S'Couple'
p1725
sI1728
S'scars'
p1726
sI1729
S'progression.'
p1727
sI1730
S'Significant'
p1728
sI1731
S'T5'
p1729
sI1732
S'symptoms'
p1730
sI1733
S'calcaneal'
p1731
sI1734
S'13'
p1732
sI1735
S'care'
p1733
sI1736
S'Vertebral'
p1734
sI1737
S'chronic.'
p1735
sI1738
S'postsurgical.'
p1736
sI1739
S'bronchiectasis.'
p1737
sI1740
S'NECK.'
p1738
sI1741
S'TISSUE'
p1739
sI1742
S'infection/pneumonia.'
p1740
sI1743
S'moved'
p1741
sI1744
S'artifacts,'
p1742
sI1745
S'sparing'
p1743
sI1746
S'symmetric.'
p1744
sI1747
S'epiglottis'
p1745
sI1748
S'orthopedic'
p1746
sI1749
S'injuries.'
p1747
sI1750
S'Also'
p1748
sI1751
S'4.5'
p1749
sI1752
S'prevertebral'
p1750
sI1753
S'Results'
p1751
sI1754
S'scars.'
p1752
sI1755
S'subcarinal'
p1753
sI1756
S'Moderately'
p1754
sI1757
S'width'
p1755
sI1758
S'amputation.'
p1756
sI1759
S'process,'
p1757
sI1760
S'specifically'
p1758
sI1761
S'ICD/pacemaker.'
p1759
sI1762
S'recurrence.'
p1760
sI1763
S'effusion/hemothorax.'
p1761
sI1764
S'wedge-shaped'
p1762
sI1765
S'dual'
p1763
sI1766
S'define'
p1764
sI1767
S'densities.'
p1765
sI1768
S'essentially'
p1766
sI1769
S'inferiorly.'
p1767
sI1770
S'Granulomas.'
p1768
sI1771
S'Additional'
p1769
sI1772
S'syndesmophytes'
p1770
sI1773
S'displacement.'
p1771
sI1774
S'Suture'
p1772
sI1775
S'positioning'
p1773
sI1776
S'pelvis.'
p1774
sI1777
S'hypoventilated.'
p1775
sI1778
S'Air-fluid'
p1776
sI1779
S'pneumothoraces'
p1777
sI1780
S'aspiration'
p1778
sI1781
S'(on'
p1779
sI1782
S'cassettes)'
p1780
sI1783
S'detail.'
p1781
sI1784
S'based'
p1782
sI1785
S'low,'
p1783
sI1786
S'Nonobstructive'
p1784
sI1787
S'interpretation,'
p1785
sI1788
S'assist'
p1786
sI1789
S'opportunity'
p1787
sI1790
S'inlet.'
p1788
sI1791
S'allowing'
p1789
sI1792
S'paraspinal'
p1790
sI1793
S"XXXX's"
p1791
sI1794
S'tenting'
p1792
sI1795
S'Comparison:'
p1793
sI1796
S'PIC'
p1794
sI1797
S'needed'
p1795
sI1798
S'Metastatic'
p1796
sI1799
S'being'
p1797
sI1800
S'sternum.'
p1798
sI1801
S'possible.'
p1799
sI1802
S'degree'
p1800
sI1803
S'3rd'
p1801
sI1804
S'radiograph,'
p1802
sI1805
S'image.'
p1803
sI1806
S'ventricles.'
p1804
sI1807
S'corresponds'
p1805
sI1808
S'surface.'
p1806
sI1809
S'medication'
p1807
sI1810
S'injection'
p1808
sI1811
S'Inferior'
p1809
sI1812
S'radiologist,'
p1810
sI1813
S'ago.'
p1811
sI1814
S'bronchiectasis'
p1812
sI1815
S'years'
p1813
sI1816
S'zones'
p1814
sI1817
S'elbow'
p1815
sI1818
S'circumscribed'
p1816
sI1819
S'Previous'
p1817
sI1820
S'thought'
p1818
sI1821
S'summation'
p1819
sI1822
S'LV'
p1820
sI1823
S'Unclear'
p1821
sI1824
S'trachea,'
p1822
sI1825
S'elevated,'
p1823
sI1826
S'redemonstrated,'
p1824
sI1827
S'component'
p1825
sI1828
S'caliber'
p1826
sI1829
S'examination,'
p1827
sI1830
S'warranted'
p1828
sI1831
S'12th'
p1829
sI1832
S'sulcus.'
p1830
sI1833
S'pneumonitis'
p1831
sI1834
S'concern,'
p1832
sI1835
S'electronic'
p1833
sI1836
S'Also,'
p1834
sI1837
S'filled'
p1835
sI1838
S'subacute'
p1836
sI1839
S'recess'
p1837
sI1840
S'Age'
p1838
sI1841
S'hips'
p1839
sI1842
S'Lucent'
p1840
sI1843
S'metastases.'
p1841
sI1844
S'Prosthetic'
p1842
sI1845
S'certified'
p1843
sI1846
S'left-to-right'
p1844
sI1847
S'right,'
p1845
sI1848
S'Developing'
p1846
sI1849
S'testes'
p1847
sI1850
S'Obscured'
p1848
sI1851
S'infracarinal'
p1849
sI1852
S'change,'
p1850
sI1853
S'CHEST.'
p1851
sI1854
S'suspect'
p1852
sI1855
S'prior,'
p1853
sI1856
S'persistently'
p1854
sI1857
S'considered'
p1855
sI1858
S'8-12'
p1856
sI1859
S'atrium,'
p1857
sI1860
S'Fracture-dislocation'
p1858
sI1861
S'below.'
p1859
sI1862
S'persist'
p1860
sI1863
S'weeks.'
p1861
sI1864
S'IMPRESSION:'
p1862
sI1865
S'identify'
p1863
sI1866
S'spine:'
p1864
sI1867
S'separation'
p1865
sI1868
S'SOFT'
p1866
sI1869
S'CHEST'
p1867
sI1870
S'exaggeration'
p1868
sI1871
S'films,'
p1869
sI1872
S'To'
p1870
sI1873
S'acknowledged'
p1871
sI1874
S'confluence'
p1872
sI1875
S'loculation.'
p1873
sI1876
S'Does'
p1874
sI1877
S'nonemergent'
p1875
sI1878
S'tendinitis.'
p1876
sI1879
S'otherwise,'
p1877
sI1880
S'only.'
p1878
sI1881
S'forearm.'
p1879
sI1882
S'pads.'
p1880
sI1883
S'As'
p1881
sI1884
S'lesion,'
p1882
sI1885
S'localize'
p1883
sI1886
S'setting.'
p1884
sI1887
S'formations.'
p1885
sI1888
S'XXXX-filled'
p1886
sI1889
S'Again,'
p1887
sI1890
S'degraded'
p1888
sI1891
S'rotated,'
p1889
sI1892
S'mostly'
p1890
sI1893
S'haziness'
p1891
sI1894
S'tapering'
p1892
sI1895
S'Underinflated'
p1893
sI1896
S'Result'
p1894
sI1897
S'shielded.'
p1895
sI1898
S'formation.'
p1896
sI1899
S'pathologic'
p1897
sI1900
S'inflammation,'
p1898
sI1901
S'scar,'
p1899
sI1902
S'Residual'
p1900
sI1903
S'nerve'
p1901
sI1904
S'surrounding'
p1902
sI1905
S'3.7'
p1903
sI1906
S'subluxation.'
p1904
sI1907
S'positioned'
p1905
sI1908
S'postop'
p1906
sI1909
S'(XXXX'
p1907
sI1910
S'Spurring'
p1908
sI1911
S'etiology.'
p1909
sI1912
S'rotatory'
p1910
sI1913
S'right-to-left'
p1911
sI1914
S'3.2'
p1912
sI1915
S'around'
p1913
sI1916
S'reaction.'
p1914
sI1917
S'Sternotomy.'
p1915
sI1918
S'esophagectomy'
p1916
sI1919
S'nodule/mass'
p1917
sI1920
S'except'
p1918
sI1921
S'described,'
p1919
sI1922
S'behind'
p1920
sI1923
S'patellofemoral'
p1921
sI1924
S'grafting.'
p1922
sI1925
S'tortuous/ectatic'
p1923
sI1926
S'dominant'
p1924
sI1927
S'review'
p1925
sI1928
S'sacroiliac'
p1926
sI1929
S'vasculatures'
p1927
sI1930
S'alignment.'
p1928
sI1931
S'Leads'
p1929
sI1932
S'bullae'
p1930
sI1933
S'informative'
p1931
sI1934
S'Significantly'
p1932
sI1935
S'sixth'
p1933
sI1936
S'Lordotic'
p1934
sI1937
S'superior-most'
p1935
sI1938
S'IVC'
p1936
sI1939
S'establish'
p1937
sI1940
S'origin'
p1938
sI1941
S'clavicle:'
p1939
sI1942
S'cavity'
p1940
sI1943
S'assess'
p1941
sI1944
S'stents'
p1942
sI1945
S'Sacrum'
p1943
sI1946
S'vein'
p1944
sI1947
S'comparisons.'
p1945
sI1948
S'Unfolding'
p1946
sI1949
S'bodies,'
p1947
sI1950
S'uncalcified'
p1948
sI1951
S'flowing'
p1949
sI1952
S'7mm'
p1950
sI1953
S'2.2'
p1951
sI1954
S'stomach.'
p1952
sI1955
S'performed,'
p1953
sI1956
S'contrast-enhanced'
p1954
sI1957
S'regarding'
p1955
sI1958
S'Grossly,'
p1956
sI1959
S'Levoscoliosis'
p1957
sI1960
S'findings,'
p1958
sI1961
S'reticular-nodular'
p1959
sI1962
S'leads.'
p1960
sI1963
S'abnormality,'
p1961
sI1964
S'Overlying'
p1962
sI1965
S'lumpectomy.'
p1963
sI1966
S'KUB'
p1964
sI1967
S'Stent'
p1965
sI1968
S'hydropneumothorax'
p1966
sI1969
S'Descending'
p1967
sI1970
S'carinatum'
p1968
sI1971
S'Radiographic'
p1969
sI1972
S'punctate'
p1970
sI1973
S'juxtahilar'
p1971
sI1974
S'degeneration'
p1972
sI1975
S'examination..'
p1973
sI1976
S'wall,'
p1974
sI1977
S'tube,'
p1975
sI1978
S'area,'
p1976
sI1979
S'KUB.'
p1977
sI1980
S'redistribution'
p1978
sI1981
S'XXXX/fluid'
p1979
sI1982
S'obstruction'
p1980
sI1983
S'nonspecific.'
p1981
sI1984
S'asbestos'
p1982
sI1985
S'biventricular'
p1983
sI1986
S'midabdomen.'
p1984
sI1987
S'films.'
p1985
sI1988
S'plaque'
p1986
sI1989
S'spurring.'
p1987
sI1990
S'traction'
p1988
sI1991
S'prostheses'
p1989
sI1992
S'hemodialysis'
p1990
sI1993
S'exposure.'
p1991
sI1994
S'histoplasmosis'
p1992
sI1995
S'spaces,'
p1993
sI1996
S'Innumerable'
p1994
sI1997
S'evaluation,'
p1995
sI1998
S'scans.'
p1996
sI1999
S'foot.'
p1997
sI2000
S'retrohilar'
p1998
sI2001
S'lobulated'
p1999
sI2002
S'stripe,'
p2000
sI2003
S'CHF'
p2001
sI2004
S'readily'
p2002
sI2005
S'Tortuous,'
p2003
sI2006
S'fissures.'
p2004
sI2007
S'well-demonstrated'
p2005
sI2008
S'limits..'
p2006
sI2009
S'prominent,'
p2007
sI2010
S'dissection.'
p2008
sI2011
S'ectasia.'
p2009
sI2012
S'ectasia/tortuosity'
p2010
sI2013
S'sulcus,'
p2011
sI2014
S'curvature.'
p2012
sI2015
S'earlier'
p2013
sI2016
S'occluder'
p2014
sI2017
S'Atrial'
p2015
sI2018
S'embolization'
p2016
sI2019
S'lucencies'
p2017
sI2020
S'called'
p2018
sI2021
S'based.'
p2019
sI2022
S'outflow'
p2020
sI2023
S'chronicity'
p2021
sI2024
S'arm'
p2022
sI2025
S'defined'
p2023
sI2026
S'lucent'
p2024
sI2027
S'either'
p2025
sI2028
S'3.8'
p2026
sI2029
S'Remaining'
p2027
sI2030
S'XXXX/granulomas.'
p2028
sI2031
S'hyper'
p2029
sI2032
S'demineralization'
p2030
sI2033
S'exclude.'
p2031
sI2034
S'cyst'
p2032
sI2035
S'ratio'
p2033
sI2036
S'Ectatic'
p2034
sI2037
S'embolism'
p2035
sI2038
S"They're"
p2036
sI2039
S'old.'
p2037
sI2040
S'chronic,'
p2038
sI2041
S'mild,'
p2039
sI2042
S'projectional'
p2040
sI2043
S'certainty.'
p2041
sI2044
S'fragment.'
p2042
sI2045
S'stated'
p2043
sI2046
S'calcium'
p2044
sI2047
S'scapular'
p2045
sI2048
S'common'
p2046
sI2049
S'Atypical'
p2047
sI2050
S'fragments'
p2048
sI2051
S'same'
p2049
sI2052
S'Not'
p2050
sI2053
S'graft.'
p2051
sI2054
S'measure'
p2052
sI2055
S'technique'
p2053
sI2056
S'air-filled'
p2054
sI2057
S'limited.'
p2055
sI2058
S'positioning.'
p2056
sI2059
S'acetabulum'
p2057
sI2060
S'Improving'
p2058
sI2061
S'residual.'
p2059
sI2062
S'markers'
p2060
sI2063
S'minimally'
p2061
sI2064
S'case'
p2062
sI2065
S'features.'
p2063
sI2066
S'complicating'
p2064
sI2067
S'discuss'
p2065
sI2068
S'CABG,'
p2066
sI2069
S'All'
p2067
sI2070
S'performance'
p2068
sI2071
S'Epigastric'
p2069
sI2072
S'Possibility'
p2070
sI2073
S'Azygos'
p2071
sI2074
S'nonenlarged'
p2072
sI2075
S'reside'
p2073
sI2076
S'Bullous'
p2074
sI2077
S'Few'
p2075
sI2078
S'globular'
p2076
sI2079
S'repositioning'
p2077
sI2080
S'further,'
p2078
sI2081
S'costicartilage'
p2079
sI2082
S'line,'
p2080
sI2083
S'dimension'
p2081
sI2084
S'Partial'
p2082
sI2085
S'atelectasis/scar.'
p2083
sI2086
S'Increase'
p2084
sI2087
S'hemidiaphragm,'
p2085
sI2088
S'dextrocardia.'
p2086
sI2089
S'characterize.'
p2087
sI2090
S'fat,'
p2088
sI2091
S'4th,'
p2089
sI2092
S'Postop'
p2090
sI2093
S'2.0'
p2091
sI2094
S'performed.'
p2092
sI2095
S'erosions'
p2093
sI2096
S'visualized,'
p2094
sI2097
S'ordering'
p2095
sI2098
S'Thanks.'
p2096
sI2099
S'prosthesis.'
p2097
sI2100
S'deep'
p2098
sI2101
S'until'
p2099
sI2102
S'coronal'
p2100
sI2103
S'level,'
p2101
sI2104
S'rectum.'
p2102
sI2105
S'perhaps'
p2103
sI2106
S'number'
p2104
sI2107
S'At'
p2105
sI2108
S'especially'
p2106
sI2109
S'generator.'
p2107
sI2110
S'cleared'
p2108
sI2111
S'atelectasis/scarring.'
p2109
sI2112
S'prosthesis'
p2110
sI2113
S'smaller'
p2111
sI2114
S'Air'
p2112
sI2115
S'stability'
p2113
sI2116
S'extremely'
p2114
sI2117
S'result.'
p2115
sI2118
S'inferiorly'
p2116
sI2119
S'sagittal'
p2117
sI2120
S'vein,'
p2118
sI2121
S'OR'
p2119
sI2122
S'position,'
p2120
sI2123
S'pleuroparenchymal'
p2121
sI2124
S'assessment'
p2122
sI2125
S'Subcutaneous'
p2123
sI2126
S'compressive'
p2124
sI2127
S'skin'
p2125
sI2128
S'epigastric'
p2126
sI2129
S'evident.'
p2127
sI2130
S'innumerable'
p2128
sI2131
S'Granulomas'
p2129
sI2132
S'removed'
p2130
sI2133
S'piriform'
p2131
sI2134
S'included'
p2132
sI2135
S'symmetrically'
p2133
sI2136
S'generalized'
p2134
sI2137
S'persists'
p2135
sI2138
S'results.'
p2136
sI2139
S'liver.'
p2137
sI2140
S'suspected'
p2138
sI2141
S'considering'
p2139
sI2142
S'Lucency'
p2140
sI2143
S'osteoarthritis'
p2141
sI2144
S'scaphoid.'
p2142
sI2145
S'ring'
p2143
sI2146
S'thorax,'
p2144
sI2147
S'correct'
p2145
sI2148
S'end'
p2146
sI2149
S'Pneumoperitoneum,'
p2147
sI2150
S'coursing'
p2148
sI2151
S'12'
p2149
sI2152
S'regions'
p2150
sI2153
S'artery.'
p2151
sI2154
S'bridging.'
p2152
sI2155
S'mm.'
p2153
sI2156
S'osteopenic.'
p2154
sI2157
S'tenderness'
p2155
sI2158
S'grade'
p2156
sI2159
S'inflammation'
p2157
sI2160
S'implants'
p2158
sI2161
S'KV'
p2159
sI2162
S'carina,'
p2160
sI2163
S'densely'
p2161
sI2164
S'strandy'
p2162
sI2165
S'passive'
p2163
sI2166
S'atelectasis/scarring'
p2164
sI2167
S'Endplate'
p2165
sI2168
S'primarily'
p2166
sI2169
S'tissues,'
p2167
sI2170
S'vertebra'
p2168
sI2171
S'projection,'
p2169
sI2172
S'heavily'
p2170
sI2173
S'dextroscoliosis,'
p2171
sI2174
S'vertebrae,'
p2172
sI2175
S'hypoinflation.'
p2173
sI2176
S'atelectasis/infiltrate.'
p2174
sI2177
S'non-calcified'
p2175
sI2178
S'postradiation'
p2176
sI2179
S'Nipple'
p2177
sI2180
S'repair.'
p2178
sI2181
S'recesses'
p2179
sI2182
S'paraspinal/retrocrural'
p2180
sI2183
S'limited,'
p2181
sI2184
S'Examination'
p2182
sI2185
S'bronchiolitis.'
p2183
sI2186
S'viral'
p2184
sI2187
S'evident'
p2185
sI2188
S'enlarging'
p2186
sI2189
S'(lateral'
p2187
sI2190
S'thickening/scarring.'
p2188
sI2191
S'cavitation.'
p2189
sI2192
S'goiter.'
p2190
sI2193
S'complication.'
p2191
sI2194
S'5th,'
p2192
sI2195
S'stripe.'
p2193
sI2196
S'exposure'
p2194
sI2197
S'interposition'
p2195
sI2198
S'levoscoliosis.'
p2196
sI2199
S'suspected.'
p2197
sI2200
S'mixed'
p2198
sI2201
S'hyperexpansion,'
p2199
sI2202
S'osteodystrophy'
p2200
sI2203
S'require'
p2201
sI2204
S'hyperdense'
p2202
sI2205
S'favoring'
p2203
sI2206
S'node,'
p2204
sI2207
S'habitus'
p2205
sI2208
S'recess,'
p2206
sI2209
S'engorged'
p2207
sI2210
S'Obscuration'
p2208
sI2211
S'Been'
p2209
sI2212
S'Now'
p2210
sI2213
S'condition.'
p2211
sI2214
S'near-complete'
p2212
sI2215
S'Malpositioned'
p2213
sI2216
S'bronchopulmonary'
p2214
sI2217
S'planning.'
p2215
sI2218
S'age'
p2216
sI2219
S'purpose'
p2217
sI2220
S'atelectatic/fibrotic'
p2218
sI2221
S'1.Severe'
p2219
sI2222
S'narrowed'
p2220
sI2223
S'CXR'
p2221
sI2224
S'tip.'
p2222
sI2225
S'clarification.'
p2223
sI2226
S'Study'
p2224
sI2227
S'mediastinum.There'
p2225
sI2228
S'nonspecific,'
p2226
sI2229
S'fully'
p2227
sI2230
S'effusion/pneumothorax.'
p2228
sI2231
S'COPD;'
p2229
sI2232
S'advancement'
p2230
sI2233
S'SVC;'
p2231
sI2234
S'fluid..'
p2232
sI2235
S'convexity,'
p2233
sI2236
S'appearances'
p2234
sI2237
S'infiltrate/atelectasis'
p2235
sI2238
S'shift,'
p2236
sI2239
S'pronounced'
p2237
sI2240
S'Opacification'
p2238
sI2241
S'Thin'
p2239
sI2242
S'atrium/cavoatrial'
p2240
sI2243
S'solid'
p2241
sI2244
S'interspace'
p2242
sI2245
S'series'
p2243
sI2246
S'postsurgical,'
p2244
sI2247
S'exchange.'
p2245
sI2248
S'exchanged'
p2246
sI2249
S'discordant,'
p2247
sI2250
S'triangular'
p2248
sI2251
S'Indistinct'
p2249
sI2252
S'verterbroplasty'
p2250
sI2253
S'stomach,'
p2251
sI2254
S'1.1'
p2252
sI2255
S'distending'
p2253
sI2256
S'zone,'
p2254
sI2257
S'metastases'
p2255
sI2258
S'suited'
p2256
sI2259
S'interspaces'
p2257
sI2260
S'Old,'
p2258
sI2261
S'collections'
p2259
sI2262
S'verify.'
p2260
sI2263
S'healed.'
p2261
sI2264
S'knees'
p2262
sI2265
S'SVC,'
p2263
sI2266
S'forefoot'
p2264
sI2267
S'midfoot,'
p2265
sI2268
S'Hindfoot,'
p2266
sI2269
S'demonstration'
p2267
sI2270
S'Two-view'
p2268
sI2271
S'knees.'
p2269
sI2272
S'Widening'
p2270
sI2273
S'Rib'
p2271
sI2274
S'streakiness,'
p2272
sI2275
S'streakiness'
p2273
sI2276
S'scarring/emphysematous'
p2274
sI2277
S'strongly'
p2275
sI2278
S'blunting,'
p2276
sI2279
S'sarcoid.'
p2277
sI2280
S'sarcoid,'
p2278
sI2281
S'cross-sectional'
p2279
sI2282
S'cartilages.'
p2280
sI2283
S'malignancy,'
p2281
sI2284
S'ring.'
p2282
sI2285
S'unilateral'
p2283
sI2286
S'film,'
p2284
sI2287
S'Paramediastinal'
p2285
sI2288
S'Age-indeterminate,'
p2286
sI2289
S'Nonemergent'
p2287
sI2290
S'findings/opacities/infiltrates'
p2288
sI2291
S'interstitium,'
p2289
sI2292
S'a.m.'
p2290
sI2293
S'accessory'
p2291
sI2294
S'department'
p2292
sI2295
S'sternoclavicular'
p2293
sI2296
S'attributable'
p2294
sI2297
S'Postsurgical/biopsy'
p2295
sI2298
S'mid/lower'
p2296
sI2299
S'blunted,'
p2297
sI2300
S'sent.'
p2298
sI2301
S'Recurrent'
p2299
sI2302
S'anchor'
p2300
sI2303
S'they'
p2301
sI2304
S'prostheses.'
p2302
sI2305
S'postsurgical/post'
p2303
sI2306
S'lobectomy,'
p2304
sI2307
S'identity.'
p2305
sI2308
S'reduced.'
p2306
sI2309
S'diaphragms,'
p2307
sI2310
S'improvement.'
p2308
sI2311
S'Hyperexpansion,'
p2309
sI2312
S'thickening/atelectasis'
p2310
sI2313
S'deviation.'
p2311
sI2314
S'space,'
p2312
sI2315
S'Suspicion'
p2313
sI2316
S'100%.'
p2314
sI2317
S'described.'
p2315
sI2318
S'6.0'
p2316
sI2319
S'Removal'
p2317
sI2320
S'faxed.'
p2318
sI2321
S'receipt.'
p2319
sI2322
S'accepted'
p2320
sI2323
S'XXXX/XXXX'
p2321
sI2324
S'XXXXPM'
p2322
sI2325
S'5.8'
p2323
sI2326
S'Right-to-left'
p2324
sI2327
S'silhouette;'
p2325
sI2328
S'Radiographically,'
p2326
sI2329
S'tract'
p2327
sI2330
S'2.No'
p2328
sI2331
S'physiology.'
p2329
sI2332
S'present,'
p2330
sI2333
S'scarring;'
p2331
sI2334
S'anteriorly.'
p2332
sI2335
S'radiography'
p2333
sI2336
S'posterobasal'
p2334
sI2337
S'pathology'
p2335
sI2338
S'pathology.'
p2336
sI2339
S'fold'
p2337
sI2340
S'beyond'
p2338
sI2341
S'Reticulonodular'
p2339
sI2342
S'segment.'
p2340
sI2343
S'Relatively'
p2341
sI2344
S'Size'
p2342
sI2345
S'narrowed.'
p2343
sI2346
S'necks.'
p2344
sI2347
S'Osteophytes'
p2345
sI2348
S'setting,'
p2346
sI2349
S'infection/pneumonia'
p2347
sI2350
S'ligamentous'
p2348
sI2351
S'Follow'
p2349
sI2352
S'assess.'
p2350
sI2353
S'T12-L1.'
p2351
sI2354
S'plateaus.'
p2352
sI2355
S'moderately-inflated'
p2353
sI2356
S'anomaly'
p2354
sI2357
S'developmental'
p2355
sI2358
S'congenital'
p2356
sI2359
S'Diffuse,'
p2357
sI2360
S'T12-L1'
p2358
sI2361
S'aspect.'
p2359
sI2362
S'recurrence'
p2360
sI2363
S'tibial'
p2361
sI2364
S'narrow.'
p2362
sI2365
S'Formed'
p2363
sI2366
S'marking.'
p2364
sI2367
S'distended'
p2365
sI2368
S'metastasis.'
p2366
sI2369
S'mechanical'
p2367
sI2370
S'artery,'
p2368
sI2371
S'piercing).'
p2369
sI2372
S'sternum'
p2370
sI2373
S'intramedullary'
p2371
sI2374
S'6.4'
p2372
sI2375
S'3-4'
p2373
sI2376
S'Conspicuous'
p2374
sI2377
S'bullae.'
p2375
sI2378
S'hypoventilation.'
p2376
sI2379
S'evaluated,'
p2377
sI2380
S'Dextroconvex'
p2378
sI2381
S'disruption'
p2379
sI2382
S'acute.'
p2380
sI2383
S'defect'
p2381
sI2384
S'enlargement.Prominence'
p2382
sI2385
S'Patchy,'
p2383
sI2386
S'configuration,'
p2384
sI2387
S'hypertrophy.'
p2385
sI2388
S'body(lateral'
p2386
sI2389
S'Limbus'
p2387
sI2390
S'voluntary'
p2388
sI2391
S'well-aerated'
p2389
sI2392
S'manifestations'
p2390
sI2393
S'fractured'
p2391
sI2394
S'upper/mid'
p2392
sI2395
S'incidentally,'
p2393
sI2396
S'mediastinal,'
p2394
sI2397
S'inability.'
p2395
sI2398
S'overlay'
p2396
sI2399
S'allow'
p2397
sI2400
S'reasonable'
p2398
sI2401
S'sclerotic.'
p2399
sI2402
S'S1'
p2400
sI2403
S'L4'
p2401
sI2404
S'L2-LXXXX'
p2402
sI2405
S'worst'
p2403
sI2406
S'narrow,'
p2404
sI2407
S'account'
p2405
sI2408
S'clothing'
p2406
sI2409
S'review.'
p2407
sI2410
S'Hilar'
p2408
sI2411
S'perforation.'
p2409
sI2412
S'pneumoperitoneum'
p2410
sI2413
S'magnification.'
p2411
sI2414
S'correction'
p2412
sI2415
S'oval-shaped'
p2413
sI2416
S'centrilobular'
p2414
sI2417
S'lobe/lingula'
p2415
sI2418
S'Wide'
p2416
sI2419
S'crosstable'
p2417
sI2420
S'Callus'
p2418
sI2421
S'questioned.'
p2419
sI2422
S'crosses'
p2420
sI2423
S'extension'
p2421
sI2424
S'detecting'
p2422
sI2425
S'smooth'
p2423
sI2426
S'Fractured'
p2424
sI2427
S'caudal'
p2425
sI2428
S'arteries/pulmonary'
p2426
sI2429
S'Verterbroplasty'
p2427
sI2430
S'Blunted'
p2428
sI2431
S'fossae.'
p2429
sI2432
S'supraclavicular'
p2430
sI2433
S'distinct'
p2431
sI2434
S'arteries,'
p2432
sI2435
S'sensitive'
p2433
sI2436
S'hydropneumothorax,'
p2434
sI2437
S'previously.'
p2435
sI2438
S'artifactually'
p2436
sI2439
S'likewise'
p2437
sI2440
S'Tortuous/ectatic'
p2438
sI2441
S'benign.'
p2439
sI2442
S'Torturous/ectatic'
p2440
sI2443
S'overlying.'
p2441
sI2444
S'XXXX.In'
p2442
sI2445
S'thin-walled'
p2443
sI2446
S'Morgagni'
p2444
sI2447
S'1.3'
p2445
sI2448
S'Tuberculosis'
p2446
sI2449
S'shunt.'
p2447
sI2450
S'Enlargement'
p2448
sI2451
S'arteriosum.'
p2449
sI2452
S'ligamentum'
p2450
sI2453
S'Presumed'
p2451
sI2454
S'artifactual.'
p2452
sI2455
S'towards'
p2453
sI2456
S'spiculated,'
p2454
sI2457
S'degenerate'
p2455
sI2458
S'bacterial'
p2456
sI2459
S'alternatively,'
p2457
sI2460
S'subcentimeter'
p2458
sI2461
S'resolve'
p2459
sI2462
S'valve.'
p2460
sI2463
S'suspicion,'
p2461
sI2464
S'discordant'
p2462
sI2465
S'comparisons,'
p2463
sI2466
S'Without'
p2464
sI2467
S'presumably'
p2465
sI2468
S'progression,'
p2466
sI2469
S'Perhaps'
p2467
sI2470
S'here'
p2468
sI2471
S'indolent'
p2469
sI2472
S'worrisome'
p2470
sI2473
S'normal.&gt;]'
p2471
sI2474
S'Expansile'
p2472
sI2475
S'underinflated,'
p2473
sI2476
S'institutions'
p2474
sI2477
S'subluxation'
p2475
sI2478
S'preserved'
p2476
sI2479
S'Glenohumeral'
p2477
sI2480
S'25%'
p2478
sI2481
S'superiorly'
p2479
sI2482
S'thirds'
p2480
sI2483
S'comminuted'
p2481
sI2484
S'thoraco'
p2482
sI2485
S'chest..'
p2483
sI2486
S'fragments,'
p2484
sI2487
S'hypoinflated,'
p2485
sI2488
S'dysmorphic'
p2486
sI2489
S'Markedly'
p2487
sI2490
S'visualization'
p2488
sI2491
S'chronically'
p2489
sI2492
S'perform'
p2490
sI2493
S'dislocations,'
p2491
sI2494
S'Hips'
p2492
sI2495
S'T8,'
p2493
sI2496
S'She'
p2494
sI2497
S'2.,'
p2495
sI2498
S'age-indeterminate,'
p2496
sI2499
S'pathology;'
p2497
sI2500
S'ossification'
p2498
sI2501
S'underinflation,'
p2499
sI2502
S'artifactual,'
p2500
sI2503
S'And'
p2501
sI2504
S'inflammatory/infectious'
p2502
sI2505
S'sulcal'
p2503
sI2506
S'From'
p2504
sI2507
S'reaction'
p2505
sI2508
S'Over'
p2506
sI2509
S'contour.Unfolded'
p2507
sI2510
S'attention'
p2508
sI2511
S'Incompletely'
p2509
sI2512
S'prosthesis,'
p2510
sI2513
S'-'
sI2514
S'superolateral'
p2511
sI2515
S'aspergilloma'
p2512
sI2516
S'aspergilloma-as'
p2513
sI2517
S'XXXX)'
p2514
sI2518
S'2.8'
p2515
sI2519
S'(4.3'
p2516
sI2520
S'base..'
p2517
sI2521
S'clavicles'
p2518
sI2522
S'actual'
p2519
sI2523
S'seems'
p2520
sI2524
S'focused'
p2521
sI2525
S'islands.'
p2522
sI2526
S'midright'
p2523
sI2527
S'anchors'
p2524
sI2528
S'outward'
p2525
sI2529
S'recalled'
p2526
sI2530
S'Deformed'
p2527
sI2531
S'Sacroiliac'
p2528
sI2532
S'Hip'
p2529
sI2533
S'Strandy'
p2530
sI2534
S'subglottic'
p2531
sI2535
S'Tip'
p2532
sI2536
S'Outward'
p2533
sI2537
S'Clearing'
p2534
sI2538
S'cleared.'
p2535
sI2539
S'out.'
p2536
sI2540
S'Spinal'
p2537
sI2541
S'ruled'
p2538
sI2542
S'inlet,'
p2539
sI2543
S'radiographs..'
p2540
sI2544
S'airway/bronchitic'
p2541
sI2545
S'T12,'
p2542
sI2546
S'Contrast-enhanced'
p2543
sI2547
S'Drainage'
p2544
sI2548
S'cavitations.'
p2545
sI2549
S'concomitant'
p2546
sI2550
S'Osteophytic'
p2547
sI2551
S'room'
p2548
sI2552
S'T7,'
p2549
sI2553
S'displaced,'
p2550
sI2554
S'smooth.'
p2551
sI2555
S'retention'
p2552
sI2556
S'communication'
p2553
sI2557
S'Primordial'
p2554
sI2558
S'conveyed'
p2555
sI2559
S'MRI.'
p2556
sI2560
S'needed,'
p2557
sI2561
S'T1Unchanged'
p2558
sI2562
S'deformity,'
p2559
sI2563
S'Abdominal'
p2560
sI2564
S'T1Degenerative'
p2561
sI2565
S'previous,'
p2562
sI2566
S'Large,'
p2563
sI2567
S'conceivably'
p2564
sI2568
S'osteocartilaginous'
p2565
sI2569
S'residua'
p2566
sI2570
S'25'
p2567
sI2571
S'pads,'
p2568
sI2572
S'Of'
p2569
sI2573
S'neoplastic'
p2570
sI2574
S'gallstone.'
p2571
sI2575
S'stable/unremarkable'
p2572
sI2576
S'noticed'
p2573
sI2577
S'spinal.'
p2574
sI2578
S'T6.'
p2575
sI2579
S'disease/emphysema.'
p2576
sI2580
S'Exam:'
p2577
sI2581
S'2V'
p2578
sI2582
S'FRONTAL/LATERAL'
p2579
sI2583
S'Date:'
p2580
sI2584
S'PM'
p2581
sI2585
S'reviewed'
p2582
sI2586
S'History:'
p2583
sI2587
S'Shortness'
p2584
sI2588
S'breath'
p2585
sI2589
S'FINDINGS:'
p2586
sI2590
S'explained'
p2587
sI2591
S'loops.'
p2588
sI2592
S'Haziness'
p2589
sI2593
S'vessel'
p2590
sI2594
S'demineralization,'
p2591
sI2595
S'irregularities,'
p2592
sI2596
S'artifact,'
p2593
sI2597
S'resolve,'
p2594
sI2598
S'suprapatellar'
p2595
sI2599
S'fracture-dislocation.'
p2596
sI2600
S'comparisons'
p2597
sI2601
S'enthesopathy.'
p2598
sI2602
S'inthe'
p2599
sI2603
S'hydropneumothorax.'
p2600
sI2604
S'mortise'
p2601
sI2605
S'having'
p2602
sI2606
S'laterally'
p2603
sI2607
S'Background'
p2604
sI2608
S'chin.'
p2605
sI2609
S'side'
p2606
sI2610
S'airways,'
p2607
sI2611
S'Portable'
p2608
sI2612
S'Diminutive'
p2609
sI2613
S'compensatory'
p2610
sI2614
S'Coarsened'
p2611
sI2615
S'simply'
p2612
sI2616
S'those'
p2613
sI2617
S'empyema'
p2614
sI2618
S'Corresponds'
p2615
sI2619
S'XXXX/XXXX,'
p2616
sI2620
S'projection),'
p2617
sI2621
S'peripherally'
p2618
sI2622
S'accentuation,'
p2619
sI2623
S'opaque.'
p2620
sI2624
S'totally'
p2621
sI2625
S'shifted'
p2622
sI2626
S'fistula.'
p2623
sI2627
S'bronchopleural'
p2624
sI2628
S'Midfoot'
p2625
sI2629
S'Ankle'
p2626
sI2630
S'patient..'
p2627
sI2631
S'uniformly'
p2628
sI2632
S'Dextro-convex'
p2629
sI2633
S'Supine'
p2630
sI2634
S'bowel.'
p2631
sI2635
S'nondilated'
p2632
sI2636
S'empyema.'
p2633
sI2637
S'cephalization,'
p2634
sI2638
S'midclavicular'
p2635
sI2639
S'fungal.'
p2636
sI2640
S'lymphoma'
p2637
sI2641
S"Hodgkin's"
p2638
sI2642
S'throughout.'
p2639
sI2643
S'dating'
p2640
sI2644
S'Osteophyte'
p2641
sI2645
S'spondylosis'
p2642
sI2646
S'biliary'
p2643
sI2647
S'vertically'
p2644
sI2648
S'quadrant,'
p2645
sI2649
S'thready'
p2646
sI2650
S'XXXX/lymphoma.'
p2647
sI2651
S'lymphoproliferative'
p2648
sI2652
S'consideration,'
p2649
sI2653
S'Sarcoidosis'
p2650
sI2654
S'Abdomen'
p2651
sI2655
S'back'
p2652
sI2656
S'enthesophyte.'
p2653
sI2657
S'anchors.'
p2654
sI2658
S'diaphragmatic'
p2655
sI2659
S'hump.'
p2656
sI2660
S'plantar'
p2657
sI2661
S'midfoot'
p2658
sI2662
S'0.9'
p2659
sI2663
S'cyst,'
p2660
sI2664
S'bilateral,'
p2661
sI2665
S'bullets'
p2662
sI2666
S'developed.'
p2663
sI2667
S'Nasogastric'
p2664
sI2668
S'underneath'
p2665
sI2669
S'submitted.'
p2666
sI2670
S'NO'
p2667
sI2671
S'great'
p2668
sI2672
S'segments.'
p2669
sI2673
S'sent'
p2670
sI2674
S'rule-out'
p2671
sI2675
S'fracture;'
p2672
sI2676
S'six'
p2673
sI2677
S'study..'
p2674
sI2678
S'First'
p2675
sI2679
S'pneumothoraces..'
p2676
sI2680
S'intrapulmonary'
p2677
sI2681
S'paraesophageal'
p2678
sI2682
S'anterolateral'
p2679
sI2683
S'Verification'
p2680
sI2684
S'bronchiectatic'
p2681
sI2685
S'laparoscopic'
p2682
sI2686
S'bilateral.'
p2683
sI2687
S'shortening'
p2684
sI2688
S'infectious/tuberculous'
p2685
sI2689
S'XXXX..'
p2686
sI2690
S'02/010/XXXX.'
p2687
sI2691
S'piercing.'
p2688
sI2692
S'Umbilical'
p2689
sI2693
S'out'
p2690
sI2694
S'Concern'
p2691
sI2695
S'effusion.Heart'
p2692
sI2696
S'extends'
p2693
sI2697
S'lucency,'
p2694
sI2698
S'crescentic'
p2695
sI2699
S'Cleared'
p2696
sI2700
S'Consolidation,'
p2697
sI2701
S'scarring/subsegmental'
p2698
sI2702
S'maximum'
p2699
sI2703
S'possibility.'
p2700
sI2704
S'artifactual'
p2701
sI2705
S'hemothorax.'
p2702
sI2706
S'L1.'
p2703
sI2707
S'cholecystectomy,'
p2704
sI2708
S'all'
p2705
sI2709
S'confidently'
p2706
sI2710
S'hilar/perihilar'
p2707
sI2711
S'cardiomyopathy.'
p2708
sI2712
S'Considerations'
p2709
sI2713
S'Widened'
p2710
sI2714
S"XXXX't"
p2711
sI2715
S'opacities;'
p2712
sI2716
S'per'
p2713
sI2717
S'decubitus.'
p2714
sI2718
S'lateral,'
p2715
sI2719
S'x-XXXX,'
p2716
sI2720
S'Malignancy'
p2717
sI2721
S'limits.Minimal'
p2718
sI2722
S'institution.'
p2719
sI2723
S'reformatted'
p2720
sI2724
S'months.'
p2721
sI2725
S'short-term'
p2722
sI2726
S'long-term'
p2723
sI2727
S'Irregular,'
p2724
sI2728
S'reformats.'
p2725
sI2729
S'factors.'
p2726
sI2730
S'Interstitium'
p2727
sI2731
S'previously<BR>described'
p2728
sI2732
S'extreme'
p2729
sI2733
S'nonconsolidating'
p2730
sI2734
S'normal.Calcified'
p2731
sI2735
S'dilation'
p2732
sI2736
S'19/33.'
p2733
sI2737
S'considered.'
p2734
sI2738
S'online'
p2735
sI2739
S'appendage.'
p2736
sI2740
S'aneurysm,'
p2737
sI2741
S'Circumscribed'
p2738
sI2742
S'time.'
p2739
sI2743
S'contusion'
p2740
sI2744
S'infectious,'
p2741
sI2745
S'NG'
p2742
sI2746
S'regular'
p2743
sI2747
S'Vascularity'
p2744
sI2748
S'groundglass'
p2745
sI2749
S'scan,'
p2746
sI2750
S'Similar-appearing'
p2747
sI2751
S'interruption'
p2748
sI2752
S'22'
p2749
sI2753
S'sulci,'
p2750
sI2754
S'14'
p2751
sI2755
S'B'
sI2756
S'diffuse,'
p2752
sI2757
S'compartments'
p2753
sI2758
S'granulomatous/tuberculous'
p2754
sI2759
S'nondiagnostic'
p2755
sI2760
S'intact..'
p2756
sI2761
S'prostate'
p2757
sI2762
S'lines.'
p2758
sI2763
S'LLeft'
p2759
sI2764
S'Pathologic'
p2760
sI2765
S'L2'
p2761
sI2766
S'Bibasilar,'
p2762
sI2767
S'incidental'
p2763
sI2768
S'markers,'
p2764
sI2769
S'pacemaker/ICD'
p2765
sI2770
S'relates'
p2766
sI2771
S'extremity.'
p2767
sI2772
S'bibasilar,'
p2768
sI2773
S'Skin'
p2769
sI2774
S'Accentuated'
p2770
sI2775
S'bipolar'
p2771
sI2776
S'evolving'
p2772
sI2777
S'pain.'
p2773
sI2778
S'Corticated'
p2774
sI2779
S'performed).'
p2775
sI2780
S'recently'
p2776
sI2781
S'(unless'
p2777
sI2782
S'cancer,'
p2778
sI2783
S'persist.'
p2779
sI2784
S'Flattening'
p2780
sI2785
S'opacification,'
p2781
sI2786
S'(this'
p2782
sI2787
S'MALIGNANCY'
p2783
sI2788
S'AS'
p2784
sI2789
S'LYMPHOMA'
p2785
sI2790
S'PRIMARY'
p2786
sI2791
S'LUNG'
p2787
sI2792
S'CANCER.'
p2788
sI2793
S'RECOMMEND'
p2789
sI2794
S'CONTRAST-ENHANCED'
p2790
sI2795
S'FOR'
p2791
sI2796
S'FURTHER'
p2792
sI2797
S'EVALUATION.'
p2793
sI2798
S'vasculaturity'
p2794
sI2799
S'expansion'
p2795
sI2800
S'neck,'
p2796
sI2801
S'eventration,'
p2797
sI2802
S'[<Heart'
p2798
sI2803
S'Reconstructed'
p2799
sI2804
S'sign'
p2800
sI2805
S'radiology'
p2801
sI2806
S'pneumonic'
p2802
sI2807
S'incidentally.'
p2803
sI2808
S'SARCOIDOSIS,'
p2804
sI2809
S'INFECTION,'
p2805
sI2810
S'HISTOPLASMOSIS'
p2806
sI2811
S'densities,'
p2807
sI2812
S'pacemaker/defibrillator.'
p2808
sI2813
S'Small,'
p2809
sI2814
S'look'
p2810
sI2815
S'chin'
p2811
sI2816
S'primordial'
p2812
sI2817
S'employed'
p2813
sI2818
S'notify'
p2814
sI2819
S'referring'
p2815
sI2820
S'physicians'
p2816
sI2821
S'B-lines'
p2817
sI2822
S'RESOLVING'
p2818
sI2823
S'Early'
p2819
sI2824
S'cirrhotic'
p2820
sI2825
S'hypoventilation,'
p2821
sI2826
S'inflammation.'
p2822
sI2827
S'Aeration'
p2823
sI2828
S'Reduced'
p2824
sI2829
S'FINDINGS'
p2825
sI2830
S'COULD'
p2826
sI2831
S'REPRESENT'
p2827
sI2832
S'approach.'
p2828
sI2833
S'apex.There'
p2829
sI2834
S'Probably'
p2830
sI2835
S'XXXX/CT.'
p2831
sI2836
S'lobes,'
p2832
sI2837
S'coiled'
p2833
sI2838
S'substernal'
p2834
sI2839
S'XXXX/ICD'
p2835
sI2840
S'retained'
p2836
sI2841
S'Retained'
p2837
sI2842
S'clear..'
p2838
sI2843
S'angulate.'
p2839
sI2844
S'expansile'
p2840
sI2845
S'multifocal'
p2841
sI2846
S'Primary'
p2842
sI2847
S'Moderate-to-severe'
p2843
sI2848
S'cuffing.'
p2844
sI2849
S'outlining'
p2845
sI2850
S'adequately'
p2846
sI2851
S'overload'
p2847
sI2852
S'inspirational'
p2848
sI2853
S'Curvilinear'
p2849
sI2854
S'severely'
p2850
sI2855
S'scar/subsegmental'
p2851
sI2856
S'XXXX<XXXX>technologist'
p2852
sI2857
S'Specifically'
p2853
sI2858
S'entering'
p2854
sI2859
S'articulation,'
p2855
sI2860
S'Opacities'
p2856
sI2861
S'lumen'
p2857
sI2862
S'gallbladder'
p2858
sI2863
S'broken,'
p2859
sI2864
S'Disc'
p2860
sI2865
S'broken'
p2861
sI2866
S'mid-thoracic'
p2862
sI2867
S'fusion,'
p2863
sI2868
S'remodeling'
p2864
sI2869
S'bone-on-bone'
p2865
sI2870
S'dyspnea'
p2866
sI2871
S'relating'
p2867
sI2872
S'vena'
p2868
sI2873
S'laterally.'
p2869
sI2874
S'extending'
p2870
sI2875
S'4-6'
p2871
sI2876
S'she'
p2872
sI2877
S'trying'
p2873
sI2878
S'arrange'
p2874
sI2879
S'admission'
p2875
sI2880
S'Another'
p2876
sI2881
S'initiated'
p2877
sI2882
S'contrasted'
p2878
sI2883
S'Or,'
p2879
sI2884
S'articular'
p2880
sI2885
S'interim.'
p2881
sI2886
S'coracoid'
p2882
sI2887
S'attached'
p2883
sI2888
S'Shoulder'
p2884
sI2889
S'corticated'
p2885
sI2890
S'persistence'
p2886
sI2891
S'jewelry.'
p2887
sI2892
S'infraclavicular'
p2888
sI2893
S'Middle'
p2889
sI2894
S'T4'
p2890
sI2895
S'findings/pneumothorax'
p2891
sI2896
S'support.'
p2892
sI2897
S'muscles'
p2893
sI2898
S'dystrophy'
p2894
sI2899
S'muscular'
p2895
sI2900
S'gunshot'
p2896
sI2901
S'wound.'
p2897
sI2902
S'rods'
p2898
sI2903
S'possibility'
p2899
sI2904
S'T7'
p2900
sI2905
S'Cutaneous'
p2901
sI2906
S'3.Chronic'
p2902
sI2907
S'margins.'
p2903
sI2908
S'Thoracolumbar'
p2904
sI2909
S'Bochdalek'
p2905
sI2910
S'decreased,'
p2906
sI2911
S'hemidiaphragms/'
p2907
sI2912
S'balloon'
p2908
sI2913
S'38'
p2909
sI2914
S'Rectal'
p2910
sI2915
S'geographic'
p2911
sI2916
S'1A'
p2912
sI2917
S'implants.'
p2913
sI2918
S'coracoclavicular'
p2914
sI2919
S'thoracotomy.'
p2915
sI2920
S'geode'
p2916
sI2921
S'desired,'
p2917
sI2922
S'separation.'
p2918
sI2923
S'Acromioclavicular'
p2919
sI2924
S'Clavicle.'
p2920
sI2925
S'Scapular'
p2921
sI2926
S'widened.'
p2922
sI2927
S'1.Lucency'
p2923
sI2928
S'pads'
p2924
sI2929
S'clipped'
p2925
sI2930
S'suggestions'
p2926
sI2931
S'pneumonia..'
p2927
sI2932
S'arthroplasty'
p2928
sI2933
S'infiltrate..'
p2929
sI2934
S'T9-T10.'
p2930
sI2935
S'processes.'
p2931
sI2936
S'intrathecal'
p2932
sI2937
S'contusion.'
p2933
sI2938
S'interlobar'
p2934
sI2939
S'Overexpanded'
p2935
sI2940
S'disease/infiltrate.'
p2936
sI2941
S'effort'
p2937
sI2942
S'mentally'
p2938
sI2943
S'Portacatheter'
p2939
sI2944
S'superimposes'
p2940
sI2945
S'patients.'
p2941
sI2946
S'centrally.'
p2942
sI2947
S'200'
p2943
sI2948
S'40%'
p2944
sI2949
S'variant'
p2945
sI2950
S'aberrant'
p2946
sI2951
S'Implantable'
p2947
sI2952
S'(Bochdalek).'
p2948
sI2953
S'Abdomen:'
p2949
sI2954
S'chondral'
p2950
sI2955
S'Somewhat'
p2951
sI2956
S'intervertebral'
p2952
sI2957
S'improvement/resolution'
p2953
sI2958
S'showed'
p2954
sI2959
S'making'
p2955
sI2960
S'Associated'
p2956
sI2961
S'retrocardiac,'
p2957
sI2962
S'noncontrasted'
p2958
sI2963
S'enhanced'
p2959
sI2964
S'malignancy?'
p2960
sI2965
S'sarcoidosis'
p2961
sI2966
S'device.'
p2962
sI2967
S'leftward'
p2963
sI2968
S'mass/nodularity'
p2964
sI2969
S'tumor'
p2965
sI2970
S'fluid,'
p2966
sI2971
S'parapneumonic'
p2967
sI2972
S'inhalational'
p2968
sI2973
S'age,'
p2969
sI2974
S'Based'
p2970
sI2975
S'segment,'
p2971
sI2976
S'Artifact'
p2972
sI2977
S'intra-abdominal'
p2973
sI2978
S'visible.'
p2974
sI2979
S'XXXX).'
p2975
sI2980
S'duct'
p2976
sI2981
S'Radiodensity'
p2977
sI2982
S'well-characterized.'
p2978
sI2983
S'drainage'
p2979
sI2984
S'supporting'
p2980
sI2985
S'osteoporosis.'
p2981
sI2986
S'Winged'
p2982
sI2987
S'12/33'
p2983
sI2988
S'unremarkable..'
p2984
sI2989
S'Diffusely'
p2985
sI2990
S'worsened'
p2986
sI2991
S'feasible.'
p2987
sI2992
S'persistent,'
p2988
sI2993
S'previous/chronic'
p2989
sI2994
S'Pneumonia'
p2990
sI2995
S'opaque'
p2991
sI2996
S'(not'
p2992
sI2997
S'x-XXXX)'
p2993
sI2998
S'sided.'
p2994
sI2999
S'Mixed'
p2995
sI3000
S'distributed'
p2996
sI3001
S'history,'
p2997
sI3002
S'medially,'
p2998
sI3003
S'electrodes,'
p2999
sI3004
S'indwelling'
p3000
sI3005
S'confluence.'
p3001
sI3006
S'reduced'
p3002
sI3007
S'reaches'
p3003
sI3008
S'staff'
p3004
sI3009
S'radiologist'
p3005
sI3010
S'XXXX;'
p3006
sI3011
S'determined.'
p3007
sI3012
S'noncalcified,'
p3008
sI3013
S'approach'
p3009
sI3014
S'1.There'
p3010
sI3015
S'destruction'
p3011
sI3016
S'benefit.'
p3012
sI3017
S'retrolisthesis.'
p3013
sI3018
S'telemetry'
p3014
sI3019
S'Suboptimal'
p3015
sI3020
S'inspiration'
p3016
sI3021
S'Dual-lumen'
p3017
sI3022
S'superimposition'
p3018
sI3023
S'last'
p3019
sI3024
S'suspicion'
p3020
sI3025
S'Obliquely'
p3021
sI3026
S'Decrease'
p3022
sI3027
S'transverse,'
p3023
sI3028
S'arising'
p3024
sI3029
S'scant'
p3025
sI3030
S'extubation'
p3026
sI3031
S'enteric'
p3027
sI3032
S'fibrosis/scar.'
p3028
sI3033
S'occult'
p3029
sI3034
S'Approximately'
p3030
sI3035
S'4.8'
p3031
sI3036
S'unclear.'
p3032
sI3037
S'Exact'
p3033
sI3038
S'hypoventilatory'
p3034
sI3039
S'Fat'
p3035
sI3040
S'Diaphragm'
p3036
sI3041
S'emphysema,'
p3037
sI3042
S'lucent.'
p3038
sI3043
S'infiltrative'
p3039
sI3044
S'hypertension'
p3040
sI3045
S'recommended,'
p3041
sI3046
S'Decubitus'
p3042
sI3047
S'informative.'
p3043
sI3048
S'Chronically'
p3044
sI3049
S'before,'
p3045
sI3050
S'identified,'
p3046
sI3051
S'aorto'
p3047
sI3052
S'calcium.'
p3048
sI3053
S'iliac'
p3049
sI3054
S'suggest.'
p3050
sI3055
S'difference'
p3051
sI3056
S'otherwise.'
p3052
sI3057
S'evidenced'
p3053
sI3058
S'Hyperaerated'
p3054
sI3059
S'Density'
p3055
sI3060
S'reflex'
p3056
sI3061
S'vascular,'
p3057
sI3062
S'Adjacent'
p3058
sI3063
S'Wedge-shaped'
p3059
sI3064
S'Less'
p3060
sI3065
S'lymphangitic'
p3061
sI3066
S'spread'
p3062
sI3067
S'carcinoma.'
p3063
sI3068
S'Other'
p3064
sI3069
S'etiologies'
p3065
sI3070
S'mycoplasma'
p3066
sI3071
S'Ordering'
p3067
sI3072
S'high-resolution'
p3068
sI3073
S'opacities/atelectasis.'
p3069
sI3074
S'pull-through'
p3070
sI3075
S'gastric'
p3071
sI3076
S'obese.'
p3072
sI3077
S'exists'
p3073
sI3078
S'then'
p3074
sI3079
S'XXXX-XXXX'
p3075
sI3080
S'respect'
p3076
sI3081
S'pretracheal'
p3077
sI3082
S'inserted'
p3078
sI3083
S'thickening/sclerosis.'
p3079
sI3084
S'COPD/emphysema.'
p3080
sI3085
S'Aspiration'
p3081
sI3086
S'retrolisthesis'
p3082
sI3087
S'Hand'
p3083
sI3088
S'peritracheal'
p3084
sI3089
S'Retrolisthesis'
p3085
sI3090
S'loculated.'
p3086
sI3091
S'tracking'
p3087
sI3092
S'Partially'
p3088
sI3093
S'endotracheal'
p3089
sI3094
S'largely'
p3090
sI3095
S'shrapnel'
p3091
sI3096
S'hemorrhage.'
p3092
sI3097
S'metacarpal.'
p3093
sI3098
S'metacarpal'
p3094
sI3099
S'hemopneumothorax'
p3095
sI3100
S'attributed'
p3096
sI3101
S'suction'
p3097
sI3102
S'midlower'
p3098
sI3103
S'imaged.'
p3099
sI3104
S'Straightening'
p3100
sI3105
S'besides'
p3101
sI3106
S'Allowing'
p3102
sI3107
S'(blunting'
p3103
sI3108
S'thickening/scar.'
p3104
sI3109
S'extraluminal'
p3105
sI3110
S'example,'
p3106
sI3111
S'trabecular'
p3107
sI3112
S'today,'
p3108
sI3113
S'subsequent'
p3109
sI3114
S'significance.'
p3110
sI3115
S'overlay.'
p3111
sI3116
S'indistinctness.'
p3112
sI3117
S'radiodensity'
p3113
sI3118
S'parenchyma.'
p3114
sI3119
S'Hand.'
p3115
sI3120
S'extrapleural'
p3116
sI3121
S'maximal'
p3117
sI3122
S'stripe'
p3118
sI3123
S'Essentially'
p3119
sI3124
S'Lines'
p3120
sI3125
S'Peribronchial'
p3121
sI3126
S'distortion'
p3122
sI3127
S'neoplastic.'
p3123
sI3128
S'hand'
p3124
sI3129
S'resection,'
p3125
sI3130
S'cardiothymic'
p3126
sI3131
S'shaped.'
p3127
sI3132
S'tissue.'
p3128
sI3133
S'flattened,'
p3129
sI3134
S'Moderate-to-large'
p3130
sI3135
S'histoplasmoma'
p3131
sI3136
S'thoracentesis.'
p3132
sI3137
S'Mediastinum,'
p3133
sI3138
S'as,'
p3134
sI3139
S'fragment..'
p3135
sI3140
S'Following'
p3136
sI3141
S'ossifications'
p3137
sI3142
S'accompanied'
p3138
sI3143
S'spaces.'
p3139
sI3144
S'scarring/chronic'
p3140
sI3145
S'passes'
p3141
sI3146
S'centimeters'
p3142
sI3147
S'elsewhere'
p3143
sI3148
S'hematoma,'
p3144
sI3149
S'Department'
p3145
sI3150
S'EKG'
p3146
sI3151
S'upward'
p3147
sI3152
S'L3.'
p3148
sI3153
S'exam..'
p3149
sI3154
S'injuries'
p3150
sI3155
S'Bullet'
p3151
sI3156
S'kidneys,'
p3152
sI3157
S'technically'
p3153
sI3158
S'osteophytes,'
p3154
sI3159
S'5-6'
p3155
sI3160
S'hyperostosis'
p3156
sI3161
S'(DISH).'
p3157
sI3162
S'empyema,'
p3158
sI3163
S'XXXX:'
p3159
sI3164
S'junction,'
p3160
sI3165
S'organomegaly'
p3161
sI3166
S'Ureteral'
p3162
sI3167
S'Gallbladder'
p3163
sI3168
S'Device'
p3164
sI3169
S'persists,'
p3165
sI3170
S'granulomatous,'
p3166
sI3171
S'Mitral'
p3167
sI3172
S'16.2/24.Diffuse'
p3168
sI3173
S'foot'
p3169
sI3174
S'infections.'
p3170
sI3175
S'interrupted,'
p3171
sI3176
S'fracture-dislocations.'
p3172
sI3177
S'transmetatarsal'
p3173
sI3178
S'bronchitic/bronchiolitis'
p3174
sI3179
S'Suggestion'
p3175
sI3180
S'areas.'
p3176
sI3181
S'cerclage'
p3177
sI3182
S'hyperostosis.'
p3178
sI3183
S'Bridging'
p3179
sI3184
S'nephrostomy'
p3180
sI3185
S'hemithorax,'
p3181
sI3186
S'scoliosis,'
p3182
sI3187
S'surface'
p3183
sI3188
S'normal.No'
p3184
sI3189
S'atelectasis.Catheter'
p3185
sI3190
S'is.'
p3186
sI3191
S'closely'
p3187
sI3192
S'flexion'
p3188
sI3193
S'esophagogastric'
p3189
sI3194
S'aorta..'
p3190
sI3195
S'neurostimulator,'
p3191
sI3196
S'liver'
p3192
sI3197
S'remains.'
p3193
sI3198
S'Breast'
p3194
sI3199
S'T9.'
p3195
sI3200
S'suggested.'
p3196
sI3201
S'focally'
p3197
sI3202
S'6.1'
p3198
sI3203
S'remarkable'
p3199
sI3204
S'Residuals'
p3200
sI3205
S'healed,'
p3201
sI3206
S'different'
p3202
sI3207
S'Configuration'
p3203
sI3208
S'stigmata'
p3204
sI3209
S'Skeletal'
p3205
sI3210
S'Confluent'
p3206
sI3211
S'disease/fibrosis.'
p3207
sI3212
S'With'
p3208
sI3213
S'energy'
p3209
sI3214
S'possible,'
p3210
sI3215
S'dissection,'
p3211
sI3216
S'Buckling'
p3212
sI3217
S'piercings.'
p3213
sI3218
S'hemoptysis.'
p3214
sI3219
S'Esophagogastric'
p3215
sI3220
S'crowded'
p3216
sI3221
S'pancreatic'
p3217
sI3222
S'plates.'
p3218
sI3223
S'sinus.'
p3219
sI3224
S'4.6'
p3220
sI3225
S'believed'
p3221
sI3226
S'Congestive'
p3222
sI3227
S'Spondylosis'
p3223
sI3228
S'4.7'
p3224
sI3229
S'sequela.'
p3225
sI3230
S'pancreatitis'
p3226
sI3231
S'Could'
p3227
sI3232
S'noncontrast'
p3228
sI3233
S'epigastrium'
p3229
sI3234
S'degenerated'
p3230
sI3235
S'radiography.'
p3231
sI3236
S'Kyphotic'
p3232
sI3237
S'infection?'
p3233
sI3238
S'non-specific.'
p3234
sI3239
S'callus.'
p3235
sI3240
S'mucous'
p3236
sI3241
S'Perihilar'
p3237
sI3242
S'Generative'
p3238
sI3243
S'small,'
p3239
sI3244
S'for<BR>metastatic'
p3240
sI3245
S'aorticopulmonary'
p3241
sI3246
S'full'
p3242
sI3247
S'considerably'
p3243
sI3248
S'almost'
p3244
sI3249
S'16'
p3245
sI3250
S'details.'
p3246
sI3251
S'L1-LPlease'
p3247
sI3252
S'dictation.'
p3248
sI3253
S'ordered'
p3249
sI3254
S'reduction'
p3250
sI3255
S'LA'
p3251
sI3256
S'margins,'
p3252
sI3257
S'retropulsion'
p3253
sI3258
S'L1-LThere'
p3254
sI3259
S'Pression:'
p3255
sI3260
S'retraction,'
p3256
sI3261
S'raises'
p3257
sI3262
S'Additionally'
p3258
sI3263
S'pulmonic'
p3259
sI3264
S'pneumomediastinum,'
p3260
sI3265
S'cartilage'
p3261
sI3266
S'Progressive'
p3262
sI3267
S'formations'
p3263
sI3268
S'obviously'
p3264
sI3269
S'bihilar'
p3265
sI3270
S'Centered'
p3266
sI3271
S'representative'
p3267
sI3272
S'recurrent'
p3268
sI3273
S'distribution.'
p3269
sI3274
S'exacerbation'
p3270
sI3275
S'multilobar'
p3271
sI3276
S'lymphoid'
p3272
sI3277
S'3.4'
p3273
sI3278
S'Bihilar'
p3274
sI3279
S'kyphosis,'
p3275
sI3280
S'pannus.'
p3276
sI3281
S'factors,'
p3277
sI3282
S'Increased.'
p3278
sI3283
S'epipericardial'
p3279
sI3284
S'Radiopaque'
p3280
sI3285
S'coils.'
p3281
sI3286
S'xray.'
p3282
sI3287
S'Exaggeration'
p3283
sI3288
S'C/Spine'
p3284
sI3289
S'oblong'
p3285
sI3290
S'5.9'
p3286
sI3291
S'Densely'
p3287
sI3292
S'exist,'
p3288
sI3293
S'radiating'
p3289
sI3294
S'replacement'
p3290
sI3295
S'Near-complete'
p3291
sI3296
S'postprocedural'
p3292
sI3297
S'upward.'
p3293
sI3298
S'fracture..'
p3294
sI3299
S'convex'
p3295
sI3300
S'interface'
p3296
sI3301
S'bordered'
p3297
sI3302
S'pleura'
p3298
sI3303
S'Interface'
p3299
sI3304
S'nasopharynx'
p3300
sI3305
S'capping.'
p3301
sI3306
S'pleural.'
p3302
sI3307
S'limits>].'
p3303
sI3308
S'[Pulmonary'
p3304
sI3309
S'paralysis.'
p3305
sI3310
S'raise'
p3306
sI3311
S'fluoroscopic'
p3307
sI3312
S'confirmation.'
p3308
sI3313
S'indicates'
p3309
sI3314
S'T/Spine'
p3310
sI3315
S'excavatum.'
p3311
sI3316
S'XXXX-CT'
p3312
sI3317
S'origin.'
p3313
sI3318
S'addition'
p3314
sI3319
S'High'
p3315
sI3320
S'Since'
p3316
sI3321
S'cachexia'
p3317
sI3322
S'2nd'
p3318
sI3323
S'opportunistic'
p3319
sI3324
S'failure,'
p3320
sI3325
S'contrast.'
p3321
sI3326
S'non'
p3322
sI3327
S'Resolved'
p3323
sI3328
S'orientation'
p3324
sI3329
S'limits.The'
p3325
sI3330
S'Marrow'
p3326
sI3331
S'Normal.'
p3327
sI3332
S'stabilization'
p3328
sI3333
S'addended.'
p3329
sI3334
S'report'
p3330
sI3335
S'confirmation'
p3331
sI3336
S'P'
sI3337
S'Review'
p3332
sI3338
S'disruption.'
p3333
sI3339
S'levocurvature'
p3334
sI3340
S'recess.'
p3335
sI3341
S'Ankle.'
p3336
sI3342
S'screw.'
p3337
sI3343
S'Once'
p3338
sI3344
S'midshaft'
p3339
sI3345
S'Posterior'
p3340
sI3346
S'peripherally.'
p3341
sI3347
S'Mortise'
p3342
sI3348
S'cavity,'
p3343
sI3349
S'malleoli.'
p3344
sI3350
S'reactivation'
p3345
sI3351
S'within,'
p3346
sI3352
S'Oval'
p3347
sI3353
S'Laryngeal'
p3348
sI3354
S'Resolving'
p3349
sI3355
S'laryngeal'
p3350
sI3356
S'Multilobar'
p3351
sI3357
S'valvuloplasty'
p3352
sI3358
S'advised.'
p3353
sI3359
S'31'
p3354
sI3360
S'osteochondromatosis'
p3355
sI3361
S'synovial'
p3356
sI3362
S'predominance.'
p3357
sI3363
S'dyspnea.'
p3358
sI3364
S'interim'
p3359
sI3365
S'subjacent'
p3360
sI3366
S'fluoroscopy'
p3361
sI3367
S'Most'
p3362
sI3368
S'junctions.'
p3363
sI3369
S'continues'
p3364
sI3370
S'anteriorly'
p3365
sI3371
S'infarct.'
p3366
sI3372
S'enchondroma'
p3367
sI3373
S'post-op'
p3368
sI3374
S'medially.'
p3369
sI3375
S'bowel,'
p3370
sI3376
S'chest/abdomen'
p3371
sI3377
S'cm,'
p3372
sI3378
S'6.8'
p3373
sI3379
S'redemonstrated'
p3374
sI3380
S'duct.'
p3375
sI3381
S'stable..'
p3376
sI3382
S'bile'
p3377
sI3383
S'histoplasmosis.'
p3378
sI3384
S'bulge'
p3379
sI3385
S'fissures'
p3380
sI3386
S'spondylitic'
p3381
sI3387
S'direct'
p3382
sI3388
S'pacemaker/defibrillator'
p3383
sI3389
S'elongation'
p3384
sI3390
S'Chest,'
p3385
sI3391
S'spasm'
p3386
sI3392
S'muscle'
p3387
sI3393
S'lordosis'
p3388
sI3394
S'reversal'
p3389
sI3395
S'consolidation..'
p3390
sI3396
S'Hypoventilated'
p3391
sI3397
S'bone.'
p3392
sI3398
S'density,'
p3393
sI3399
S'splinting.'
p3394
sI3400
S'entire'
p3395
sI3401
S'Subcarinal'
p3396
sI3402
S'traverses'
p3397
sI3403
S'Additionally,'
p3398
sI3404
S'pneumatoceles.'
p3399
sI3405
S'stranding'
p3400
sI3406
S'collapsed'
p3401
sI3407
S'superiorly.'
p3402
sI3408
S'retracted'
p3403
sI3409
S'(XXXX),'
p3404
sI3410
S'consolidated.'
p3405
sI3411
S'aneurysmal'
p3406
sI3412
S'CTA'
p3407
sI3413
S'surgery'
p3408
sI3414
S'systems.'
p3409
sI3415
S'differentiate'
p3410
sI3416
S'widespread'
p3411
sI3417
S'definition'
p3412
sI3418
S'Well'
p3413
sI3419
S'11'
p3414
sI3420
S'syndesmophyte.'
p3415
sI3421
S'reasonably'
p3416
sI3422
S'shape'
p3417
sI3423
S'repair'
p3418
sI3424
S'Discrete'
p3419
sI3425
S'nodule/lymph'
p3420
sI3426
S'primordial.'
p3421
sI3427
S'communicated'
p3422
sI3428
S'High-resolution'
p3423
sI3429
S'Masslike'
p3424
sI3430
S'postobstructive'
p3425
sI3431
S'pseudofissure.'
p3426
sI3432
S'skinfold.'
p3427
sI3433
S'appearing,'
p3428
sI3434
S'granulomatous.'
p3429
sI3435
S'resultant'
p3430
sI3436
S'axilla'
p3431
sI3437
S'noted..'
p3432
sI3438
S'correlation,'
p3433
sI3439
S'histoplasmoma.'
p3434
sI3440
S'element'
p3435
sI3441
S'shoulder,'
p3436
sI3442
S'subluxation/dislocation'
p3437
sI3443
S'hyperaerated'
p3438
sI3444
S'Tubular'
p3439
sI3445
S'lytic'
p3440
sI3446
S'stents.'
p3441
sI3447
S'appropriate.'
p3442
sI3448
S'arteriographic'
p3443
sI3449
S'superimposing'
p3444
sI3450
S'significance,'
p3445
sI3451
S'unknown'
p3446
sI3452
S'nasogastric'
p3447
sI3453
S'Indeterminate'
p3448
sI3454
S'rotation,'
p3449
sI3455
S'lipoma.'
p3450
sI3456
S'retrosternally'
p3451
sI3457
S'comparison,'
p3452
sI3458
S'blood'
p3453
sI3459
S'positional'
p3454
sI3460
S'phenomenon.'
p3455
sI3461
S'only,'
p3456
sI3462
S'We'
p3457
sI3463
S'Sternum.'
p3458
sI3464
S'clavicles.'
p3459
sI3465
S'Nonspecific,'
p3460
sI3466
S'capping'
p3461
sI3467
S'Atelectasis'
p3462
sI3468
S'capping,'
p3463
sI3469
S'T11.'
p3464
sI3470
S'anterolisthesis'
p3465
sI3471
S'correlated'
p3466
sI3472
S'underpenetrated'
p3467
sI3473
S'swimmers'
p3468
sI3474
S'structure.'
p3469
sI3475
S'area.'
p3470
sI3476
S'4XXXX'
p3471
sI3477
S'Monitoring'
p3472
sI3478
S'Broken'
p3473
sI3479
S'artifacts.'
p3474
sI3480
S'sinus,'
p3475
sI3481
S'side,'
p3476
sI3482
S'informed'
p3477
sI3483
S'malalignment.'
p3478
sI3484
S'frontal,'
p3479
sI3485
S'treatment.'
p3480
sI3486
S'incomplete'
p3481
sI3487
S'accentuates'
p3482
sI3488
S'XXXX/1Mild'
p3483
sI3489
S'pm'
p3484
sI3490
S'142'
p3485
sI3491
S'service'
p3486
sI3492
S"XXXX'"
p3487
sI3493
S'doctor'
p3488
sI3494
S'colon'
p3489
sI3495
S'2.5'
p3490
sI3496
S'undergone'
p3491
sI3497
S'overlap.'
p3492
sI3498
S'flattened.'
p3493
sI3499
S'oligemia'
p3494
sI3500
S'transection.'
p3495
sI3501
S'stool..'
p3496
sI3502
S'Alignment'
p3497
sI3503
S'tubular'
p3498
sI3504
S'type'
p3499
sI3505
S'nonrib-bearing'
p3500
sI3506
S'postinfectious/postinflammatory.'
p3501
sI3507
S'XXXX-'
p3502
sI3508
S'femur.'
p3503
sI3509
S'one-third'
p3504
sI3510
S'units.'
p3505
sI3511
S'sizes.'
p3506
sI3512
S'varying'
p3507
sI3513
S'interpretation'
p3508
sI3514
S'depressions'
p3509
sI3515
S'cell'
p3510
sI3516
S'diameter,'
p3511
sI3517
S'my'
p3512
sI3518
S'B-lines.'
p3513
sI3519
S'oval,'
p3514
sI3520
S'Dual-XXXX'
p3515
sI3521
S'7.0'
p3516
sI3522
S'Emphysema,'
p3517
sI3523
S'costodiaphragmatic'
p3518
sI3524
S'pedicle/upper'
p3519
sI3525
S'procedure,'
p3520
sI3526
S'Scoliosis.'
p3521
sI3527
S'sinus'
p3522
sI3528
S'sinuses.'
p3523
sI3529
S'definitive'
p3524
sI3530
S'Displaced'
p3525
sI3531
S'become'
p3526
sI3532
S'Diagnostic'
p3527
sI3533
S'Femur.'
p3528
sI3534
S'upon'
p3529
sI3535
S'subcapital'
p3530
sI3536
S'worrisome.'
p3531
sI3537
S'found'
p3532
sI3538
S'popliteal'
p3533
sI3539
S'osteoporosis'
p3534
sI3540
S'found.'
p3535
sI3541
S'progressive'
p3536
sI3542
S'nodularity.'
p3537
sI3543
S'Femur'
p3538
sI3544
S'[&lt;The'
p3539
sI3545
S'currently'
p3540
sI3546
S'pneumothorax.&gt;]'
p3541
sI3547
S'pelvic'
p3542
sI3548
S'impacted'
p3543
sI3549
S'2.6'
p3544
sI3550
S'site'
p3545
sI3551
S'Included'
p3546
sI3552
S'exclusion'
p3547
sI3553
S'brain'
p3548
sI3554
S'carcinoma'
p3549
sI3555
S'Scoliotic'
p3550
ssS'max_epochs'
p3551
I100000
sS'worddict'
p3552
ccollections
OrderedDict
p3553
((lp3554
(lp3555
g16
aI2
aa(lp3556
g17
aI3
aa(lp3557
g18
aI4
aa(lp3558
g19
aI5
aa(lp3559
g20
aI6
aa(lp3560
g21
aI7
aa(lp3561
g22
aI8
aa(lp3562
g23
aI9
aa(lp3563
g24
aI10
aa(lp3564
g25
aI11
aa(lp3565
g26
aI12
aa(lp3566
g27
aI13
aa(lp3567
g28
aI14
aa(lp3568
g29
aI15
aa(lp3569
g30
aI16
aa(lp3570
g31
aI17
aa(lp3571
g32
aI18
aa(lp3572
g33
aI19
aa(lp3573
g34
aI20
aa(lp3574
g35
aI21
aa(lp3575
g36
aI22
aa(lp3576
g37
aI23
aa(lp3577
g38
aI24
aa(lp3578
g39
aI25
aa(lp3579
g40
aI26
aa(lp3580
g41
aI27
aa(lp3581
g42
aI28
aa(lp3582
g43
aI29
aa(lp3583
g44
aI30
aa(lp3584
g45
aI31
aa(lp3585
g46
aI32
aa(lp3586
g47
aI33
aa(lp3587
g48
aI34
aa(lp3588
g49
aI35
aa(lp3589
g50
aI36
aa(lp3590
g51
aI37
aa(lp3591
g52
aI38
aa(lp3592
g53
aI39
aa(lp3593
g54
aI40
aa(lp3594
g55
aI41
aa(lp3595
g56
aI42
aa(lp3596
g57
aI43
aa(lp3597
g58
aI44
aa(lp3598
g59
aI45
aa(lp3599
g60
aI46
aa(lp3600
g61
aI47
aa(lp3601
g62
aI48
aa(lp3602
g63
aI49
aa(lp3603
g64
aI50
aa(lp3604
g65
aI51
aa(lp3605
g66
aI52
aa(lp3606
g67
aI53
aa(lp3607
S'a'
aI54
aa(lp3608
g68
aI55
aa(lp3609
g69
aI56
aa(lp3610
g70
aI57
aa(lp3611
g71
aI58
aa(lp3612
g72
aI59
aa(lp3613
g73
aI60
aa(lp3614
g74
aI61
aa(lp3615
g75
aI62
aa(lp3616
g76
aI63
aa(lp3617
g77
aI64
aa(lp3618
g78
aI65
aa(lp3619
g79
aI66
aa(lp3620
g80
aI67
aa(lp3621
g81
aI68
aa(lp3622
g82
aI69
aa(lp3623
g83
aI70
aa(lp3624
g84
aI71
aa(lp3625
g85
aI72
aa(lp3626
g86
aI73
aa(lp3627
g87
aI74
aa(lp3628
g88
aI75
aa(lp3629
g89
aI76
aa(lp3630
g90
aI77
aa(lp3631
g91
aI78
aa(lp3632
g92
aI79
aa(lp3633
g93
aI80
aa(lp3634
g94
aI81
aa(lp3635
g95
aI82
aa(lp3636
g96
aI83
aa(lp3637
g97
aI84
aa(lp3638
g98
aI85
aa(lp3639
g99
aI86
aa(lp3640
g100
aI87
aa(lp3641
g101
aI88
aa(lp3642
g102
aI89
aa(lp3643
g103
aI90
aa(lp3644
g104
aI91
aa(lp3645
g105
aI92
aa(lp3646
g106
aI93
aa(lp3647
g107
aI94
aa(lp3648
g108
aI95
aa(lp3649
g109
aI96
aa(lp3650
g110
aI97
aa(lp3651
g111
aI98
aa(lp3652
g112
aI99
aa(lp3653
g113
aI100
aa(lp3654
g114
aI101
aa(lp3655
g115
aI102
aa(lp3656
g116
aI103
aa(lp3657
g117
aI104
aa(lp3658
g118
aI105
aa(lp3659
g119
aI106
aa(lp3660
g120
aI107
aa(lp3661
g121
aI108
aa(lp3662
g122
aI109
aa(lp3663
g123
aI110
aa(lp3664
g124
aI111
aa(lp3665
g125
aI112
aa(lp3666
g126
aI113
aa(lp3667
g127
aI114
aa(lp3668
g128
aI115
aa(lp3669
g129
aI116
aa(lp3670
g130
aI117
aa(lp3671
g131
aI118
aa(lp3672
g132
aI119
aa(lp3673
g133
aI120
aa(lp3674
g134
aI121
aa(lp3675
g135
aI122
aa(lp3676
g136
aI123
aa(lp3677
g137
aI124
aa(lp3678
g138
aI125
aa(lp3679
g139
aI126
aa(lp3680
g140
aI127
aa(lp3681
g141
aI128
aa(lp3682
g142
aI129
aa(lp3683
g143
aI130
aa(lp3684
g144
aI131
aa(lp3685
g145
aI132
aa(lp3686
g146
aI133
aa(lp3687
g147
aI134
aa(lp3688
g148
aI135
aa(lp3689
g149
aI136
aa(lp3690
g150
aI137
aa(lp3691
g151
aI138
aa(lp3692
g152
aI139
aa(lp3693
g153
aI140
aa(lp3694
g154
aI141
aa(lp3695
g155
aI142
aa(lp3696
g156
aI143
aa(lp3697
g157
aI144
aa(lp3698
g158
aI145
aa(lp3699
g159
aI146
aa(lp3700
g160
aI147
aa(lp3701
g161
aI148
aa(lp3702
g162
aI149
aa(lp3703
g163
aI150
aa(lp3704
g164
aI151
aa(lp3705
g165
aI152
aa(lp3706
g166
aI153
aa(lp3707
g167
aI154
aa(lp3708
g168
aI155
aa(lp3709
g169
aI156
aa(lp3710
g170
aI157
aa(lp3711
g171
aI158
aa(lp3712
g172
aI159
aa(lp3713
g173
aI160
aa(lp3714
g174
aI161
aa(lp3715
g175
aI162
aa(lp3716
g176
aI163
aa(lp3717
g177
aI164
aa(lp3718
g178
aI165
aa(lp3719
g179
aI166
aa(lp3720
g180
aI167
aa(lp3721
g181
aI168
aa(lp3722
g182
aI169
aa(lp3723
g183
aI170
aa(lp3724
g184
aI171
aa(lp3725
g185
aI172
aa(lp3726
g186
aI173
aa(lp3727
g187
aI174
aa(lp3728
g188
aI175
aa(lp3729
g189
aI176
aa(lp3730
g190
aI177
aa(lp3731
g191
aI178
aa(lp3732
g192
aI179
aa(lp3733
g193
aI180
aa(lp3734
g194
aI181
aa(lp3735
g195
aI182
aa(lp3736
g196
aI183
aa(lp3737
g197
aI184
aa(lp3738
g198
aI185
aa(lp3739
g199
aI186
aa(lp3740
g200
aI187
aa(lp3741
g201
aI188
aa(lp3742
g202
aI189
aa(lp3743
g203
aI190
aa(lp3744
g204
aI191
aa(lp3745
g205
aI192
aa(lp3746
g206
aI193
aa(lp3747
g207
aI194
aa(lp3748
g208
aI195
aa(lp3749
g209
aI196
aa(lp3750
g210
aI197
aa(lp3751
g211
aI198
aa(lp3752
g212
aI199
aa(lp3753
g213
aI200
aa(lp3754
g214
aI201
aa(lp3755
g215
aI202
aa(lp3756
g216
aI203
aa(lp3757
g217
aI204
aa(lp3758
g218
aI205
aa(lp3759
g219
aI206
aa(lp3760
g220
aI207
aa(lp3761
g221
aI208
aa(lp3762
g222
aI209
aa(lp3763
g223
aI210
aa(lp3764
g224
aI211
aa(lp3765
g225
aI212
aa(lp3766
g226
aI213
aa(lp3767
g227
aI214
aa(lp3768
g228
aI215
aa(lp3769
g229
aI216
aa(lp3770
g230
aI217
aa(lp3771
g231
aI218
aa(lp3772
g232
aI219
aa(lp3773
g233
aI220
aa(lp3774
g234
aI221
aa(lp3775
g235
aI222
aa(lp3776
g236
aI223
aa(lp3777
g237
aI224
aa(lp3778
g238
aI225
aa(lp3779
g239
aI226
aa(lp3780
g240
aI227
aa(lp3781
g241
aI228
aa(lp3782
g242
aI229
aa(lp3783
S'A'
aI230
aa(lp3784
g243
aI231
aa(lp3785
g244
aI232
aa(lp3786
g245
aI233
aa(lp3787
g246
aI234
aa(lp3788
g247
aI235
aa(lp3789
g248
aI236
aa(lp3790
g249
aI237
aa(lp3791
g250
aI238
aa(lp3792
g251
aI239
aa(lp3793
g252
aI240
aa(lp3794
g253
aI241
aa(lp3795
g254
aI242
aa(lp3796
g255
aI243
aa(lp3797
g256
aI244
aa(lp3798
g257
aI245
aa(lp3799
g258
aI246
aa(lp3800
g259
aI247
aa(lp3801
g260
aI248
aa(lp3802
g261
aI249
aa(lp3803
g262
aI250
aa(lp3804
g263
aI251
aa(lp3805
g264
aI252
aa(lp3806
g265
aI253
aa(lp3807
g266
aI254
aa(lp3808
g267
aI255
aa(lp3809
g268
aI256
aa(lp3810
g269
aI257
aa(lp3811
g270
aI258
aa(lp3812
g271
aI259
aa(lp3813
g272
aI260
aa(lp3814
g273
aI261
aa(lp3815
g274
aI262
aa(lp3816
g275
aI263
aa(lp3817
g276
aI264
aa(lp3818
g277
aI265
aa(lp3819
g278
aI266
aa(lp3820
g279
aI267
aa(lp3821
g280
aI268
aa(lp3822
g281
aI269
aa(lp3823
g282
aI270
aa(lp3824
g283
aI271
aa(lp3825
g284
aI272
aa(lp3826
g285
aI273
aa(lp3827
g286
aI274
aa(lp3828
g287
aI275
aa(lp3829
g288
aI276
aa(lp3830
g289
aI277
aa(lp3831
g290
aI278
aa(lp3832
g291
aI279
aa(lp3833
g292
aI280
aa(lp3834
g293
aI281
aa(lp3835
g294
aI282
aa(lp3836
g295
aI283
aa(lp3837
g296
aI284
aa(lp3838
g297
aI285
aa(lp3839
g298
aI286
aa(lp3840
g299
aI287
aa(lp3841
g300
aI288
aa(lp3842
g301
aI289
aa(lp3843
g302
aI290
aa(lp3844
g303
aI291
aa(lp3845
g304
aI292
aa(lp3846
g305
aI293
aa(lp3847
g306
aI294
aa(lp3848
g307
aI295
aa(lp3849
g308
aI296
aa(lp3850
g309
aI297
aa(lp3851
g310
aI298
aa(lp3852
g311
aI299
aa(lp3853
g312
aI300
aa(lp3854
g313
aI301
aa(lp3855
g314
aI302
aa(lp3856
g315
aI303
aa(lp3857
g316
aI304
aa(lp3858
g317
aI305
aa(lp3859
g318
aI306
aa(lp3860
g319
aI307
aa(lp3861
g320
aI308
aa(lp3862
g321
aI309
aa(lp3863
g322
aI310
aa(lp3864
g323
aI311
aa(lp3865
g324
aI312
aa(lp3866
g325
aI313
aa(lp3867
g326
aI314
aa(lp3868
g327
aI315
aa(lp3869
g328
aI316
aa(lp3870
g329
aI317
aa(lp3871
g330
aI318
aa(lp3872
g331
aI319
aa(lp3873
g332
aI320
aa(lp3874
g333
aI321
aa(lp3875
S'2'
aI322
aa(lp3876
g334
aI323
aa(lp3877
g335
aI324
aa(lp3878
g336
aI325
aa(lp3879
g337
aI326
aa(lp3880
g338
aI327
aa(lp3881
g339
aI328
aa(lp3882
g340
aI329
aa(lp3883
g341
aI330
aa(lp3884
g342
aI331
aa(lp3885
g343
aI332
aa(lp3886
g344
aI333
aa(lp3887
g345
aI334
aa(lp3888
g346
aI335
aa(lp3889
g347
aI336
aa(lp3890
g348
aI337
aa(lp3891
g349
aI338
aa(lp3892
g350
aI339
aa(lp3893
g351
aI340
aa(lp3894
g352
aI341
aa(lp3895
g353
aI342
aa(lp3896
g354
aI343
aa(lp3897
g355
aI344
aa(lp3898
g356
aI345
aa(lp3899
g357
aI346
aa(lp3900
g358
aI347
aa(lp3901
g359
aI348
aa(lp3902
g360
aI349
aa(lp3903
g361
aI350
aa(lp3904
g362
aI351
aa(lp3905
g363
aI352
aa(lp3906
g364
aI353
aa(lp3907
g365
aI354
aa(lp3908
g366
aI355
aa(lp3909
g367
aI356
aa(lp3910
g368
aI357
aa(lp3911
g369
aI358
aa(lp3912
g370
aI359
aa(lp3913
g371
aI360
aa(lp3914
g372
aI361
aa(lp3915
g373
aI362
aa(lp3916
g374
aI363
aa(lp3917
g375
aI364
aa(lp3918
g376
aI365
aa(lp3919
g377
aI366
aa(lp3920
g378
aI367
aa(lp3921
g379
aI368
aa(lp3922
g380
aI369
aa(lp3923
g381
aI370
aa(lp3924
g382
aI371
aa(lp3925
g383
aI372
aa(lp3926
g384
aI373
aa(lp3927
g385
aI374
aa(lp3928
g386
aI375
aa(lp3929
g387
aI376
aa(lp3930
g388
aI377
aa(lp3931
g389
aI378
aa(lp3932
g390
aI379
aa(lp3933
g391
aI380
aa(lp3934
g392
aI381
aa(lp3935
g393
aI382
aa(lp3936
g394
aI383
aa(lp3937
g395
aI384
aa(lp3938
g396
aI385
aa(lp3939
g397
aI386
aa(lp3940
g398
aI387
aa(lp3941
g399
aI388
aa(lp3942
g400
aI389
aa(lp3943
g401
aI390
aa(lp3944
g402
aI391
aa(lp3945
g403
aI392
aa(lp3946
g404
aI393
aa(lp3947
g405
aI394
aa(lp3948
g406
aI395
aa(lp3949
g407
aI396
aa(lp3950
g408
aI397
aa(lp3951
g409
aI398
aa(lp3952
g410
aI399
aa(lp3953
g411
aI400
aa(lp3954
g412
aI401
aa(lp3955
g413
aI402
aa(lp3956
g414
aI403
aa(lp3957
g415
aI404
aa(lp3958
g416
aI405
aa(lp3959
g417
aI406
aa(lp3960
g418
aI407
aa(lp3961
g419
aI408
aa(lp3962
g420
aI409
aa(lp3963
g421
aI410
aa(lp3964
g422
aI411
aa(lp3965
g423
aI412
aa(lp3966
g424
aI413
aa(lp3967
g425
aI414
aa(lp3968
g426
aI415
aa(lp3969
g427
aI416
aa(lp3970
g428
aI417
aa(lp3971
g429
aI418
aa(lp3972
g430
aI419
aa(lp3973
g431
aI420
aa(lp3974
g432
aI421
aa(lp3975
g433
aI422
aa(lp3976
g434
aI423
aa(lp3977
g435
aI424
aa(lp3978
g436
aI425
aa(lp3979
g437
aI426
aa(lp3980
g438
aI427
aa(lp3981
g439
aI428
aa(lp3982
g440
aI429
aa(lp3983
g441
aI430
aa(lp3984
g442
aI431
aa(lp3985
g443
aI432
aa(lp3986
g444
aI433
aa(lp3987
g445
aI434
aa(lp3988
g446
aI435
aa(lp3989
g447
aI436
aa(lp3990
g448
aI437
aa(lp3991
g449
aI438
aa(lp3992
g450
aI439
aa(lp3993
g451
aI440
aa(lp3994
g452
aI441
aa(lp3995
g453
aI442
aa(lp3996
g454
aI443
aa(lp3997
g455
aI444
aa(lp3998
g456
aI445
aa(lp3999
g457
aI446
aa(lp4000
g458
aI447
aa(lp4001
g459
aI448
aa(lp4002
g460
aI449
aa(lp4003
g461
aI450
aa(lp4004
g462
aI451
aa(lp4005
g463
aI452
aa(lp4006
g464
aI453
aa(lp4007
g465
aI454
aa(lp4008
g466
aI455
aa(lp4009
g467
aI456
aa(lp4010
g468
aI457
aa(lp4011
g469
aI458
aa(lp4012
g470
aI459
aa(lp4013
g471
aI460
aa(lp4014
g472
aI461
aa(lp4015
g473
aI462
aa(lp4016
g474
aI463
aa(lp4017
g475
aI464
aa(lp4018
g476
aI465
aa(lp4019
g477
aI466
aa(lp4020
g478
aI467
aa(lp4021
g479
aI468
aa(lp4022
g480
aI469
aa(lp4023
g481
aI470
aa(lp4024
g482
aI471
aa(lp4025
g483
aI472
aa(lp4026
g484
aI473
aa(lp4027
S'.'
aI474
aa(lp4028
g485
aI475
aa(lp4029
g486
aI476
aa(lp4030
g487
aI477
aa(lp4031
g488
aI478
aa(lp4032
g489
aI479
aa(lp4033
g490
aI480
aa(lp4034
g491
aI481
aa(lp4035
g492
aI482
aa(lp4036
g493
aI483
aa(lp4037
g494
aI484
aa(lp4038
g495
aI485
aa(lp4039
S'5'
aI486
aa(lp4040
g496
aI487
aa(lp4041
g497
aI488
aa(lp4042
g498
aI489
aa(lp4043
g499
aI490
aa(lp4044
g500
aI491
aa(lp4045
g501
aI492
aa(lp4046
g502
aI493
aa(lp4047
g503
aI494
aa(lp4048
g504
aI495
aa(lp4049
g505
aI496
aa(lp4050
g506
aI497
aa(lp4051
g507
aI498
aa(lp4052
g508
aI499
aa(lp4053
g509
aI500
aa(lp4054
g510
aI501
aa(lp4055
g511
aI502
aa(lp4056
g512
aI503
aa(lp4057
g513
aI504
aa(lp4058
g514
aI505
aa(lp4059
g515
aI506
aa(lp4060
g516
aI507
aa(lp4061
g517
aI508
aa(lp4062
g518
aI509
aa(lp4063
g519
aI510
aa(lp4064
g520
aI511
aa(lp4065
g521
aI512
aa(lp4066
g522
aI513
aa(lp4067
g523
aI514
aa(lp4068
g524
aI515
aa(lp4069
g525
aI516
aa(lp4070
g526
aI517
aa(lp4071
g527
aI518
aa(lp4072
g528
aI519
aa(lp4073
g529
aI520
aa(lp4074
g530
aI521
aa(lp4075
g531
aI522
aa(lp4076
g532
aI523
aa(lp4077
g533
aI524
aa(lp4078
g534
aI525
aa(lp4079
g535
aI526
aa(lp4080
g536
aI527
aa(lp4081
g537
aI528
aa(lp4082
g538
aI529
aa(lp4083
g539
aI530
aa(lp4084
g540
aI531
aa(lp4085
g541
aI532
aa(lp4086
g542
aI533
aa(lp4087
g543
aI534
aa(lp4088
g544
aI535
aa(lp4089
g545
aI536
aa(lp4090
g546
aI537
aa(lp4091
g547
aI538
aa(lp4092
g548
aI539
aa(lp4093
g549
aI540
aa(lp4094
g550
aI541
aa(lp4095
g551
aI542
aa(lp4096
g552
aI543
aa(lp4097
g553
aI544
aa(lp4098
g554
aI545
aa(lp4099
g555
aI546
aa(lp4100
g556
aI547
aa(lp4101
g557
aI548
aa(lp4102
g558
aI549
aa(lp4103
g559
aI550
aa(lp4104
g560
aI551
aa(lp4105
g561
aI552
aa(lp4106
g562
aI553
aa(lp4107
g563
aI554
aa(lp4108
g564
aI555
aa(lp4109
g565
aI556
aa(lp4110
g566
aI557
aa(lp4111
g567
aI558
aa(lp4112
g568
aI559
aa(lp4113
g569
aI560
aa(lp4114
g570
aI561
aa(lp4115
g571
aI562
aa(lp4116
g572
aI563
aa(lp4117
g573
aI564
aa(lp4118
g574
aI565
aa(lp4119
g575
aI566
aa(lp4120
g576
aI567
aa(lp4121
g577
aI568
aa(lp4122
g578
aI569
aa(lp4123
g579
aI570
aa(lp4124
g580
aI571
aa(lp4125
g581
aI572
aa(lp4126
g582
aI573
aa(lp4127
S'x'
aI574
aa(lp4128
g583
aI575
aa(lp4129
g584
aI576
aa(lp4130
g585
aI577
aa(lp4131
g586
aI578
aa(lp4132
g587
aI579
aa(lp4133
g588
aI580
aa(lp4134
g589
aI581
aa(lp4135
g590
aI582
aa(lp4136
g591
aI583
aa(lp4137
g592
aI584
aa(lp4138
g593
aI585
aa(lp4139
g594
aI586
aa(lp4140
g595
aI587
aa(lp4141
g596
aI588
aa(lp4142
g597
aI589
aa(lp4143
g598
aI590
aa(lp4144
g599
aI591
aa(lp4145
g600
aI592
aa(lp4146
g601
aI593
aa(lp4147
g602
aI594
aa(lp4148
g603
aI595
aa(lp4149
g604
aI596
aa(lp4150
g605
aI597
aa(lp4151
g606
aI598
aa(lp4152
g607
aI599
aa(lp4153
g608
aI600
aa(lp4154
g609
aI601
aa(lp4155
g610
aI602
aa(lp4156
g611
aI603
aa(lp4157
g612
aI604
aa(lp4158
g613
aI605
aa(lp4159
g614
aI606
aa(lp4160
g615
aI607
aa(lp4161
g616
aI608
aa(lp4162
g617
aI609
aa(lp4163
g618
aI610
aa(lp4164
g619
aI611
aa(lp4165
g620
aI612
aa(lp4166
g621
aI613
aa(lp4167
g622
aI614
aa(lp4168
g623
aI615
aa(lp4169
g624
aI616
aa(lp4170
g625
aI617
aa(lp4171
g626
aI618
aa(lp4172
g627
aI619
aa(lp4173
g628
aI620
aa(lp4174
g629
aI621
aa(lp4175
g630
aI622
aa(lp4176
g631
aI623
aa(lp4177
g632
aI624
aa(lp4178
g633
aI625
aa(lp4179
g634
aI626
aa(lp4180
g635
aI627
aa(lp4181
g636
aI628
aa(lp4182
g637
aI629
aa(lp4183
g638
aI630
aa(lp4184
g639
aI631
aa(lp4185
g640
aI632
aa(lp4186
g641
aI633
aa(lp4187
g642
aI634
aa(lp4188
g643
aI635
aa(lp4189
g644
aI636
aa(lp4190
g645
aI637
aa(lp4191
g646
aI638
aa(lp4192
g647
aI639
aa(lp4193
g648
aI640
aa(lp4194
g649
aI641
aa(lp4195
g650
aI642
aa(lp4196
g651
aI643
aa(lp4197
g652
aI644
aa(lp4198
g653
aI645
aa(lp4199
g654
aI646
aa(lp4200
g655
aI647
aa(lp4201
g656
aI648
aa(lp4202
g657
aI649
aa(lp4203
g658
aI650
aa(lp4204
g659
aI651
aa(lp4205
g660
aI652
aa(lp4206
g661
aI653
aa(lp4207
g662
aI654
aa(lp4208
g663
aI655
aa(lp4209
g664
aI656
aa(lp4210
g665
aI657
aa(lp4211
g666
aI658
aa(lp4212
g667
aI659
aa(lp4213
g668
aI660
aa(lp4214
g669
aI661
aa(lp4215
g670
aI662
aa(lp4216
g671
aI663
aa(lp4217
g672
aI664
aa(lp4218
g673
aI665
aa(lp4219
g674
aI666
aa(lp4220
g675
aI667
aa(lp4221
g676
aI668
aa(lp4222
g677
aI669
aa(lp4223
g678
aI670
aa(lp4224
g679
aI671
aa(lp4225
g680
aI672
aa(lp4226
g681
aI673
aa(lp4227
g682
aI674
aa(lp4228
g683
aI675
aa(lp4229
g684
aI676
aa(lp4230
g685
aI677
aa(lp4231
g686
aI678
aa(lp4232
g687
aI679
aa(lp4233
g688
aI680
aa(lp4234
g689
aI681
aa(lp4235
g690
aI682
aa(lp4236
g691
aI683
aa(lp4237
g692
aI684
aa(lp4238
g693
aI685
aa(lp4239
g694
aI686
aa(lp4240
g695
aI687
aa(lp4241
g696
aI688
aa(lp4242
g697
aI689
aa(lp4243
g698
aI690
aa(lp4244
g699
aI691
aa(lp4245
g700
aI692
aa(lp4246
g701
aI693
aa(lp4247
g702
aI694
aa(lp4248
g703
aI695
aa(lp4249
g704
aI696
aa(lp4250
S'6'
aI697
aa(lp4251
g705
aI698
aa(lp4252
g706
aI699
aa(lp4253
g707
aI700
aa(lp4254
g708
aI701
aa(lp4255
g709
aI702
aa(lp4256
g710
aI703
aa(lp4257
g711
aI704
aa(lp4258
g712
aI705
aa(lp4259
g713
aI706
aa(lp4260
g714
aI707
aa(lp4261
g715
aI708
aa(lp4262
g716
aI709
aa(lp4263
g717
aI710
aa(lp4264
g718
aI711
aa(lp4265
g719
aI712
aa(lp4266
g720
aI713
aa(lp4267
g721
aI714
aa(lp4268
g722
aI715
aa(lp4269
g723
aI716
aa(lp4270
g724
aI717
aa(lp4271
g725
aI718
aa(lp4272
g726
aI719
aa(lp4273
g727
aI720
aa(lp4274
g728
aI721
aa(lp4275
g729
aI722
aa(lp4276
g730
aI723
aa(lp4277
g731
aI724
aa(lp4278
g732
aI725
aa(lp4279
g733
aI726
aa(lp4280
g734
aI727
aa(lp4281
g735
aI728
aa(lp4282
g736
aI729
aa(lp4283
g737
aI730
aa(lp4284
g738
aI731
aa(lp4285
g739
aI732
aa(lp4286
g740
aI733
aa(lp4287
g741
aI734
aa(lp4288
g742
aI735
aa(lp4289
g743
aI736
aa(lp4290
g744
aI737
aa(lp4291
g745
aI738
aa(lp4292
g746
aI739
aa(lp4293
g747
aI740
aa(lp4294
g748
aI741
aa(lp4295
g749
aI742
aa(lp4296
g750
aI743
aa(lp4297
g751
aI744
aa(lp4298
g752
aI745
aa(lp4299
g753
aI746
aa(lp4300
g754
aI747
aa(lp4301
S'3'
aI748
aa(lp4302
g755
aI749
aa(lp4303
g756
aI750
aa(lp4304
g757
aI751
aa(lp4305
g758
aI752
aa(lp4306
g759
aI753
aa(lp4307
g760
aI754
aa(lp4308
g761
aI755
aa(lp4309
g762
aI756
aa(lp4310
g763
aI757
aa(lp4311
g764
aI758
aa(lp4312
g765
aI759
aa(lp4313
g766
aI760
aa(lp4314
g767
aI761
aa(lp4315
g768
aI762
aa(lp4316
g769
aI763
aa(lp4317
g770
aI764
aa(lp4318
g771
aI765
aa(lp4319
S'7'
aI766
aa(lp4320
g772
aI767
aa(lp4321
g773
aI768
aa(lp4322
S'1'
aI769
aa(lp4323
g774
aI770
aa(lp4324
g775
aI771
aa(lp4325
g776
aI772
aa(lp4326
g777
aI773
aa(lp4327
g778
aI774
aa(lp4328
g779
aI775
aa(lp4329
g780
aI776
aa(lp4330
g781
aI777
aa(lp4331
g782
aI778
aa(lp4332
g783
aI779
aa(lp4333
g784
aI780
aa(lp4334
g785
aI781
aa(lp4335
g786
aI782
aa(lp4336
g787
aI783
aa(lp4337
g788
aI784
aa(lp4338
g789
aI785
aa(lp4339
g790
aI786
aa(lp4340
g791
aI787
aa(lp4341
g792
aI788
aa(lp4342
g793
aI789
aa(lp4343
g794
aI790
aa(lp4344
g795
aI791
aa(lp4345
g796
aI792
aa(lp4346
g797
aI793
aa(lp4347
g798
aI794
aa(lp4348
g799
aI795
aa(lp4349
g800
aI796
aa(lp4350
g801
aI797
aa(lp4351
g802
aI798
aa(lp4352
g803
aI799
aa(lp4353
g804
aI800
aa(lp4354
g805
aI801
aa(lp4355
g806
aI802
aa(lp4356
g807
aI803
aa(lp4357
g808
aI804
aa(lp4358
g809
aI805
aa(lp4359
g810
aI806
aa(lp4360
g811
aI807
aa(lp4361
g812
aI808
aa(lp4362
g813
aI809
aa(lp4363
g814
aI810
aa(lp4364
g815
aI811
aa(lp4365
S'4'
aI812
aa(lp4366
g816
aI813
aa(lp4367
g817
aI814
aa(lp4368
g818
aI815
aa(lp4369
g819
aI816
aa(lp4370
g820
aI817
aa(lp4371
g821
aI818
aa(lp4372
g822
aI819
aa(lp4373
g823
aI820
aa(lp4374
g824
aI821
aa(lp4375
g825
aI822
aa(lp4376
g826
aI823
aa(lp4377
g827
aI824
aa(lp4378
g828
aI825
aa(lp4379
g829
aI826
aa(lp4380
g830
aI827
aa(lp4381
g831
aI828
aa(lp4382
g832
aI829
aa(lp4383
g833
aI830
aa(lp4384
g834
aI831
aa(lp4385
g835
aI832
aa(lp4386
g836
aI833
aa(lp4387
g837
aI834
aa(lp4388
g838
aI835
aa(lp4389
g839
aI836
aa(lp4390
g840
aI837
aa(lp4391
g841
aI838
aa(lp4392
g842
aI839
aa(lp4393
g843
aI840
aa(lp4394
g844
aI841
aa(lp4395
g845
aI842
aa(lp4396
g846
aI843
aa(lp4397
g847
aI844
aa(lp4398
g848
aI845
aa(lp4399
g849
aI846
aa(lp4400
g850
aI847
aa(lp4401
g851
aI848
aa(lp4402
g852
aI849
aa(lp4403
g853
aI850
aa(lp4404
g854
aI851
aa(lp4405
g855
aI852
aa(lp4406
g856
aI853
aa(lp4407
g857
aI854
aa(lp4408
g858
aI855
aa(lp4409
g859
aI856
aa(lp4410
g860
aI857
aa(lp4411
g861
aI858
aa(lp4412
g862
aI859
aa(lp4413
g863
aI860
aa(lp4414
g864
aI861
aa(lp4415
g865
aI862
aa(lp4416
g866
aI863
aa(lp4417
g867
aI864
aa(lp4418
g868
aI865
aa(lp4419
g869
aI866
aa(lp4420
g870
aI867
aa(lp4421
g871
aI868
aa(lp4422
g872
aI869
aa(lp4423
g873
aI870
aa(lp4424
g874
aI871
aa(lp4425
g875
aI872
aa(lp4426
g876
aI873
aa(lp4427
g877
aI874
aa(lp4428
g878
aI875
aa(lp4429
g879
aI876
aa(lp4430
g880
aI877
aa(lp4431
g881
aI878
aa(lp4432
g882
aI879
aa(lp4433
g883
aI880
aa(lp4434
g884
aI881
aa(lp4435
g885
aI882
aa(lp4436
g886
aI883
aa(lp4437
g887
aI884
aa(lp4438
g888
aI885
aa(lp4439
g889
aI886
aa(lp4440
g890
aI887
aa(lp4441
g891
aI888
aa(lp4442
g892
aI889
aa(lp4443
g893
aI890
aa(lp4444
g894
aI891
aa(lp4445
g895
aI892
aa(lp4446
g896
aI893
aa(lp4447
g897
aI894
aa(lp4448
g898
aI895
aa(lp4449
g899
aI896
aa(lp4450
g900
aI897
aa(lp4451
g901
aI898
aa(lp4452
g902
aI899
aa(lp4453
g903
aI900
aa(lp4454
g904
aI901
aa(lp4455
g905
aI902
aa(lp4456
g906
aI903
aa(lp4457
g907
aI904
aa(lp4458
g908
aI905
aa(lp4459
g909
aI906
aa(lp4460
g910
aI907
aa(lp4461
g911
aI908
aa(lp4462
g912
aI909
aa(lp4463
g913
aI910
aa(lp4464
g914
aI911
aa(lp4465
g915
aI912
aa(lp4466
g916
aI913
aa(lp4467
g917
aI914
aa(lp4468
g918
aI915
aa(lp4469
g919
aI916
aa(lp4470
g920
aI917
aa(lp4471
g921
aI918
aa(lp4472
g922
aI919
aa(lp4473
g923
aI920
aa(lp4474
g924
aI921
aa(lp4475
g925
aI922
aa(lp4476
g926
aI923
aa(lp4477
g927
aI924
aa(lp4478
g928
aI925
aa(lp4479
g929
aI926
aa(lp4480
g930
aI927
aa(lp4481
g931
aI928
aa(lp4482
g932
aI929
aa(lp4483
g933
aI930
aa(lp4484
g934
aI931
aa(lp4485
g935
aI932
aa(lp4486
g936
aI933
aa(lp4487
g937
aI934
aa(lp4488
g938
aI935
aa(lp4489
g939
aI936
aa(lp4490
g940
aI937
aa(lp4491
g941
aI938
aa(lp4492
g942
aI939
aa(lp4493
g943
aI940
aa(lp4494
g944
aI941
aa(lp4495
g945
aI942
aa(lp4496
g946
aI943
aa(lp4497
g947
aI944
aa(lp4498
g948
aI945
aa(lp4499
g949
aI946
aa(lp4500
g950
aI947
aa(lp4501
g951
aI948
aa(lp4502
g952
aI949
aa(lp4503
g953
aI950
aa(lp4504
g954
aI951
aa(lp4505
g955
aI952
aa(lp4506
g956
aI953
aa(lp4507
g957
aI954
aa(lp4508
g958
aI955
aa(lp4509
g959
aI956
aa(lp4510
g960
aI957
aa(lp4511
g961
aI958
aa(lp4512
g962
aI959
aa(lp4513
g963
aI960
aa(lp4514
g964
aI961
aa(lp4515
g965
aI962
aa(lp4516
g966
aI963
aa(lp4517
g967
aI964
aa(lp4518
g968
aI965
aa(lp4519
g969
aI966
aa(lp4520
g970
aI967
aa(lp4521
g971
aI968
aa(lp4522
g972
aI969
aa(lp4523
g973
aI970
aa(lp4524
g974
aI971
aa(lp4525
g975
aI972
aa(lp4526
g976
aI973
aa(lp4527
g977
aI974
aa(lp4528
g978
aI975
aa(lp4529
g979
aI976
aa(lp4530
g980
aI977
aa(lp4531
g981
aI978
aa(lp4532
g982
aI979
aa(lp4533
g983
aI980
aa(lp4534
g984
aI981
aa(lp4535
g985
aI982
aa(lp4536
g986
aI983
aa(lp4537
g987
aI984
aa(lp4538
g988
aI985
aa(lp4539
g989
aI986
aa(lp4540
g990
aI987
aa(lp4541
g991
aI988
aa(lp4542
g992
aI989
aa(lp4543
g993
aI990
aa(lp4544
g994
aI991
aa(lp4545
g995
aI992
aa(lp4546
g996
aI993
aa(lp4547
g997
aI994
aa(lp4548
g998
aI995
aa(lp4549
g999
aI996
aa(lp4550
g1000
aI997
aa(lp4551
g1001
aI998
aa(lp4552
g1002
aI999
aa(lp4553
g1003
aI1000
aa(lp4554
g1004
aI1001
aa(lp4555
g1005
aI1002
aa(lp4556
g1006
aI1003
aa(lp4557
g1007
aI1004
aa(lp4558
g1008
aI1005
aa(lp4559
g1009
aI1006
aa(lp4560
g1010
aI1007
aa(lp4561
g1011
aI1008
aa(lp4562
g1012
aI1009
aa(lp4563
g1013
aI1010
aa(lp4564
g1014
aI1011
aa(lp4565
g1015
aI1012
aa(lp4566
g1016
aI1013
aa(lp4567
g1017
aI1014
aa(lp4568
g1018
aI1015
aa(lp4569
g1019
aI1016
aa(lp4570
g1020
aI1017
aa(lp4571
g1021
aI1018
aa(lp4572
g1022
aI1019
aa(lp4573
g1023
aI1020
aa(lp4574
g1024
aI1021
aa(lp4575
g1025
aI1022
aa(lp4576
g1026
aI1023
aa(lp4577
g1027
aI1024
aa(lp4578
g1028
aI1025
aa(lp4579
g1029
aI1026
aa(lp4580
g1030
aI1027
aa(lp4581
g1031
aI1028
aa(lp4582
g1032
aI1029
aa(lp4583
g1033
aI1030
aa(lp4584
g1034
aI1031
aa(lp4585
g1035
aI1032
aa(lp4586
g1036
aI1033
aa(lp4587
g1037
aI1034
aa(lp4588
g1038
aI1035
aa(lp4589
g1039
aI1036
aa(lp4590
g1040
aI1037
aa(lp4591
g1041
aI1038
aa(lp4592
g1042
aI1039
aa(lp4593
g1043
aI1040
aa(lp4594
g1044
aI1041
aa(lp4595
g1045
aI1042
aa(lp4596
g1046
aI1043
aa(lp4597
g1047
aI1044
aa(lp4598
g1048
aI1045
aa(lp4599
S'8'
aI1046
aa(lp4600
g1049
aI1047
aa(lp4601
g1050
aI1048
aa(lp4602
g1051
aI1049
aa(lp4603
g1052
aI1050
aa(lp4604
g1053
aI1051
aa(lp4605
g1054
aI1052
aa(lp4606
g1055
aI1053
aa(lp4607
g1056
aI1054
aa(lp4608
g1057
aI1055
aa(lp4609
g1058
aI1056
aa(lp4610
g1059
aI1057
aa(lp4611
g1060
aI1058
aa(lp4612
g1061
aI1059
aa(lp4613
g1062
aI1060
aa(lp4614
g1063
aI1061
aa(lp4615
g1064
aI1062
aa(lp4616
g1065
aI1063
aa(lp4617
g1066
aI1064
aa(lp4618
g1067
aI1065
aa(lp4619
g1068
aI1066
aa(lp4620
g1069
aI1067
aa(lp4621
g1070
aI1068
aa(lp4622
g1071
aI1069
aa(lp4623
g1072
aI1070
aa(lp4624
g1073
aI1071
aa(lp4625
g1074
aI1072
aa(lp4626
g1075
aI1073
aa(lp4627
g1076
aI1074
aa(lp4628
g1077
aI1075
aa(lp4629
g1078
aI1076
aa(lp4630
g1079
aI1077
aa(lp4631
g1080
aI1078
aa(lp4632
g1081
aI1079
aa(lp4633
g1082
aI1080
aa(lp4634
g1083
aI1081
aa(lp4635
g1084
aI1082
aa(lp4636
g1085
aI1083
aa(lp4637
g1086
aI1084
aa(lp4638
g1087
aI1085
aa(lp4639
g1088
aI1086
aa(lp4640
g1089
aI1087
aa(lp4641
g1090
aI1088
aa(lp4642
g1091
aI1089
aa(lp4643
g1092
aI1090
aa(lp4644
g1093
aI1091
aa(lp4645
g1094
aI1092
aa(lp4646
g1095
aI1093
aa(lp4647
g1096
aI1094
aa(lp4648
g1097
aI1095
aa(lp4649
g1098
aI1096
aa(lp4650
g1099
aI1097
aa(lp4651
g1100
aI1098
aa(lp4652
g1101
aI1099
aa(lp4653
g1102
aI1100
aa(lp4654
g1103
aI1101
aa(lp4655
g1104
aI1102
aa(lp4656
g1105
aI1103
aa(lp4657
g1106
aI1104
aa(lp4658
g1107
aI1105
aa(lp4659
g1108
aI1106
aa(lp4660
g1109
aI1107
aa(lp4661
g1110
aI1108
aa(lp4662
g1111
aI1109
aa(lp4663
g1112
aI1110
aa(lp4664
g1113
aI1111
aa(lp4665
g1114
aI1112
aa(lp4666
g1115
aI1113
aa(lp4667
g1116
aI1114
aa(lp4668
g1117
aI1115
aa(lp4669
g1118
aI1116
aa(lp4670
g1119
aI1117
aa(lp4671
g1120
aI1118
aa(lp4672
g1121
aI1119
aa(lp4673
g1122
aI1120
aa(lp4674
g1123
aI1121
aa(lp4675
g1124
aI1122
aa(lp4676
g1125
aI1123
aa(lp4677
g1126
aI1124
aa(lp4678
g1127
aI1125
aa(lp4679
g1128
aI1126
aa(lp4680
g1129
aI1127
aa(lp4681
g1130
aI1128
aa(lp4682
g1131
aI1129
aa(lp4683
g1132
aI1130
aa(lp4684
g1133
aI1131
aa(lp4685
g1134
aI1132
aa(lp4686
g1135
aI1133
aa(lp4687
g1136
aI1134
aa(lp4688
g1137
aI1135
aa(lp4689
g1138
aI1136
aa(lp4690
g1139
aI1137
aa(lp4691
g1140
aI1138
aa(lp4692
g1141
aI1139
aa(lp4693
g1142
aI1140
aa(lp4694
g1143
aI1141
aa(lp4695
g1144
aI1142
aa(lp4696
g1145
aI1143
aa(lp4697
g1146
aI1144
aa(lp4698
g1147
aI1145
aa(lp4699
g1148
aI1146
aa(lp4700
g1149
aI1147
aa(lp4701
g1150
aI1148
aa(lp4702
g1151
aI1149
aa(lp4703
g1152
aI1150
aa(lp4704
g1153
aI1151
aa(lp4705
g1154
aI1152
aa(lp4706
g1155
aI1153
aa(lp4707
g1156
aI1154
aa(lp4708
g1157
aI1155
aa(lp4709
g1158
aI1156
aa(lp4710
g1159
aI1157
aa(lp4711
g1160
aI1158
aa(lp4712
g1161
aI1159
aa(lp4713
g1162
aI1160
aa(lp4714
g1163
aI1161
aa(lp4715
g1164
aI1162
aa(lp4716
g1165
aI1163
aa(lp4717
g1166
aI1164
aa(lp4718
g1167
aI1165
aa(lp4719
g1168
aI1166
aa(lp4720
g1169
aI1167
aa(lp4721
g1170
aI1168
aa(lp4722
g1171
aI1169
aa(lp4723
g1172
aI1170
aa(lp4724
g1173
aI1171
aa(lp4725
g1174
aI1172
aa(lp4726
g1175
aI1173
aa(lp4727
g1176
aI1174
aa(lp4728
g1177
aI1175
aa(lp4729
g1178
aI1176
aa(lp4730
g1179
aI1177
aa(lp4731
g1180
aI1178
aa(lp4732
g1181
aI1179
aa(lp4733
g1182
aI1180
aa(lp4734
g1183
aI1181
aa(lp4735
g1184
aI1182
aa(lp4736
g1185
aI1183
aa(lp4737
g1186
aI1184
aa(lp4738
g1187
aI1185
aa(lp4739
g1188
aI1186
aa(lp4740
g1189
aI1187
aa(lp4741
g1190
aI1188
aa(lp4742
g1191
aI1189
aa(lp4743
g1192
aI1190
aa(lp4744
g1193
aI1191
aa(lp4745
g1194
aI1192
aa(lp4746
g1195
aI1193
aa(lp4747
g1196
aI1194
aa(lp4748
g1197
aI1195
aa(lp4749
g1198
aI1196
aa(lp4750
g1199
aI1197
aa(lp4751
g1200
aI1198
aa(lp4752
g1201
aI1199
aa(lp4753
g1202
aI1200
aa(lp4754
g1203
aI1201
aa(lp4755
g1204
aI1202
aa(lp4756
g1205
aI1203
aa(lp4757
g1206
aI1204
aa(lp4758
g1207
aI1205
aa(lp4759
g1208
aI1206
aa(lp4760
g1209
aI1207
aa(lp4761
g1210
aI1208
aa(lp4762
g1211
aI1209
aa(lp4763
g1212
aI1210
aa(lp4764
g1213
aI1211
aa(lp4765
g1214
aI1212
aa(lp4766
g1215
aI1213
aa(lp4767
g1216
aI1214
aa(lp4768
g1217
aI1215
aa(lp4769
g1218
aI1216
aa(lp4770
g1219
aI1217
aa(lp4771
g1220
aI1218
aa(lp4772
g1221
aI1219
aa(lp4773
g1222
aI1220
aa(lp4774
g1223
aI1221
aa(lp4775
g1224
aI1222
aa(lp4776
g1225
aI1223
aa(lp4777
g1226
aI1224
aa(lp4778
g1227
aI1225
aa(lp4779
g1228
aI1226
aa(lp4780
g1229
aI1227
aa(lp4781
g1230
aI1228
aa(lp4782
g1231
aI1229
aa(lp4783
g1232
aI1230
aa(lp4784
g1233
aI1231
aa(lp4785
g1234
aI1232
aa(lp4786
g1235
aI1233
aa(lp4787
g1236
aI1234
aa(lp4788
g1237
aI1235
aa(lp4789
g1238
aI1236
aa(lp4790
g1239
aI1237
aa(lp4791
g1240
aI1238
aa(lp4792
g1241
aI1239
aa(lp4793
g1242
aI1240
aa(lp4794
g1243
aI1241
aa(lp4795
g1244
aI1242
aa(lp4796
g1245
aI1243
aa(lp4797
g1246
aI1244
aa(lp4798
g1247
aI1245
aa(lp4799
g1248
aI1246
aa(lp4800
g1249
aI1247
aa(lp4801
g1250
aI1248
aa(lp4802
g1251
aI1249
aa(lp4803
g1252
aI1250
aa(lp4804
g1253
aI1251
aa(lp4805
g1254
aI1252
aa(lp4806
g1255
aI1253
aa(lp4807
g1256
aI1254
aa(lp4808
g1257
aI1255
aa(lp4809
g1258
aI1256
aa(lp4810
g1259
aI1257
aa(lp4811
g1260
aI1258
aa(lp4812
g1261
aI1259
aa(lp4813
g1262
aI1260
aa(lp4814
g1263
aI1261
aa(lp4815
g1264
aI1262
aa(lp4816
g1265
aI1263
aa(lp4817
S'/'
aI1264
aa(lp4818
g1266
aI1265
aa(lp4819
g1267
aI1266
aa(lp4820
g1268
aI1267
aa(lp4821
g1269
aI1268
aa(lp4822
g1270
aI1269
aa(lp4823
g1271
aI1270
aa(lp4824
g1272
aI1271
aa(lp4825
g1273
aI1272
aa(lp4826
g1274
aI1273
aa(lp4827
g1275
aI1274
aa(lp4828
g1276
aI1275
aa(lp4829
g1277
aI1276
aa(lp4830
g1278
aI1277
aa(lp4831
g1279
aI1278
aa(lp4832
g1280
aI1279
aa(lp4833
g1281
aI1280
aa(lp4834
g1282
aI1281
aa(lp4835
g1283
aI1282
aa(lp4836
S'9'
aI1283
aa(lp4837
g1284
aI1284
aa(lp4838
g1285
aI1285
aa(lp4839
g1286
aI1286
aa(lp4840
g1287
aI1287
aa(lp4841
g1288
aI1288
aa(lp4842
g1289
aI1289
aa(lp4843
g1290
aI1290
aa(lp4844
g1291
aI1291
aa(lp4845
g1292
aI1292
aa(lp4846
g1293
aI1293
aa(lp4847
g1294
aI1294
aa(lp4848
g1295
aI1295
aa(lp4849
g1296
aI1296
aa(lp4850
g1297
aI1297
aa(lp4851
g1298
aI1298
aa(lp4852
g1299
aI1299
aa(lp4853
g1300
aI1300
aa(lp4854
g1301
aI1301
aa(lp4855
g1302
aI1302
aa(lp4856
g1303
aI1303
aa(lp4857
g1304
aI1304
aa(lp4858
g1305
aI1305
aa(lp4859
g1306
aI1306
aa(lp4860
g1307
aI1307
aa(lp4861
g1308
aI1308
aa(lp4862
g1309
aI1309
aa(lp4863
g1310
aI1310
aa(lp4864
g1311
aI1311
aa(lp4865
g1312
aI1312
aa(lp4866
g1313
aI1313
aa(lp4867
g1314
aI1314
aa(lp4868
g1315
aI1315
aa(lp4869
g1316
aI1316
aa(lp4870
g1317
aI1317
aa(lp4871
g1318
aI1318
aa(lp4872
g1319
aI1319
aa(lp4873
g1320
aI1320
aa(lp4874
g1321
aI1321
aa(lp4875
g1322
aI1322
aa(lp4876
g1323
aI1323
aa(lp4877
g1324
aI1324
aa(lp4878
g1325
aI1325
aa(lp4879
g1326
aI1326
aa(lp4880
g1327
aI1327
aa(lp4881
g1328
aI1328
aa(lp4882
g1329
aI1329
aa(lp4883
g1330
aI1330
aa(lp4884
g1331
aI1331
aa(lp4885
g1332
aI1332
aa(lp4886
g1333
aI1333
aa(lp4887
g1334
aI1334
aa(lp4888
g1335
aI1335
aa(lp4889
g1336
aI1336
aa(lp4890
g1337
aI1337
aa(lp4891
g1338
aI1338
aa(lp4892
g1339
aI1339
aa(lp4893
g1340
aI1340
aa(lp4894
g1341
aI1341
aa(lp4895
g1342
aI1342
aa(lp4896
g1343
aI1343
aa(lp4897
g1344
aI1344
aa(lp4898
g1345
aI1345
aa(lp4899
g1346
aI1346
aa(lp4900
g1347
aI1347
aa(lp4901
g1348
aI1348
aa(lp4902
g1349
aI1349
aa(lp4903
g1350
aI1350
aa(lp4904
g1351
aI1351
aa(lp4905
g1352
aI1352
aa(lp4906
g1353
aI1353
aa(lp4907
g1354
aI1354
aa(lp4908
g1355
aI1355
aa(lp4909
g1356
aI1356
aa(lp4910
g1357
aI1357
aa(lp4911
g1358
aI1358
aa(lp4912
g1359
aI1359
aa(lp4913
g1360
aI1360
aa(lp4914
g1361
aI1361
aa(lp4915
g1362
aI1362
aa(lp4916
g1363
aI1363
aa(lp4917
g1364
aI1364
aa(lp4918
g1365
aI1365
aa(lp4919
g1366
aI1366
aa(lp4920
g1367
aI1367
aa(lp4921
g1368
aI1368
aa(lp4922
g1369
aI1369
aa(lp4923
g1370
aI1370
aa(lp4924
g1371
aI1371
aa(lp4925
g1372
aI1372
aa(lp4926
g1373
aI1373
aa(lp4927
g1374
aI1374
aa(lp4928
g1375
aI1375
aa(lp4929
g1376
aI1376
aa(lp4930
g1377
aI1377
aa(lp4931
g1378
aI1378
aa(lp4932
g1379
aI1379
aa(lp4933
g1380
aI1380
aa(lp4934
g1381
aI1381
aa(lp4935
g1382
aI1382
aa(lp4936
g1383
aI1383
aa(lp4937
g1384
aI1384
aa(lp4938
g1385
aI1385
aa(lp4939
g1386
aI1386
aa(lp4940
g1387
aI1387
aa(lp4941
g1388
aI1388
aa(lp4942
g1389
aI1389
aa(lp4943
g1390
aI1390
aa(lp4944
g1391
aI1391
aa(lp4945
g1392
aI1392
aa(lp4946
g1393
aI1393
aa(lp4947
g1394
aI1394
aa(lp4948
g1395
aI1395
aa(lp4949
g1396
aI1396
aa(lp4950
g1397
aI1397
aa(lp4951
g1398
aI1398
aa(lp4952
g1399
aI1399
aa(lp4953
g1400
aI1400
aa(lp4954
g1401
aI1401
aa(lp4955
g1402
aI1402
aa(lp4956
g1403
aI1403
aa(lp4957
g1404
aI1404
aa(lp4958
g1405
aI1405
aa(lp4959
g1406
aI1406
aa(lp4960
g1407
aI1407
aa(lp4961
g1408
aI1408
aa(lp4962
g1409
aI1409
aa(lp4963
g1410
aI1410
aa(lp4964
g1411
aI1411
aa(lp4965
g1412
aI1412
aa(lp4966
g1413
aI1413
aa(lp4967
g1414
aI1414
aa(lp4968
g1415
aI1415
aa(lp4969
g1416
aI1416
aa(lp4970
g1417
aI1417
aa(lp4971
g1418
aI1418
aa(lp4972
g1419
aI1419
aa(lp4973
g1420
aI1420
aa(lp4974
g1421
aI1421
aa(lp4975
g1422
aI1422
aa(lp4976
g1423
aI1423
aa(lp4977
g1424
aI1424
aa(lp4978
g1425
aI1425
aa(lp4979
g1426
aI1426
aa(lp4980
g1427
aI1427
aa(lp4981
g1428
aI1428
aa(lp4982
g1429
aI1429
aa(lp4983
g1430
aI1430
aa(lp4984
g1431
aI1431
aa(lp4985
g1432
aI1432
aa(lp4986
g1433
aI1433
aa(lp4987
g1434
aI1434
aa(lp4988
g1435
aI1435
aa(lp4989
g1436
aI1436
aa(lp4990
g1437
aI1437
aa(lp4991
g1438
aI1438
aa(lp4992
g1439
aI1439
aa(lp4993
g1440
aI1440
aa(lp4994
g1441
aI1441
aa(lp4995
g1442
aI1442
aa(lp4996
g1443
aI1443
aa(lp4997
g1444
aI1444
aa(lp4998
g1445
aI1445
aa(lp4999
g1446
aI1446
aa(lp5000
g1447
aI1447
aa(lp5001
g1448
aI1448
aa(lp5002
g1449
aI1449
aa(lp5003
g1450
aI1450
aa(lp5004
g1451
aI1451
aa(lp5005
g1452
aI1452
aa(lp5006
g1453
aI1453
aa(lp5007
g1454
aI1454
aa(lp5008
g1455
aI1455
aa(lp5009
g1456
aI1456
aa(lp5010
g1457
aI1457
aa(lp5011
g1458
aI1458
aa(lp5012
g1459
aI1459
aa(lp5013
g1460
aI1460
aa(lp5014
g1461
aI1461
aa(lp5015
g1462
aI1462
aa(lp5016
g1463
aI1463
aa(lp5017
g1464
aI1464
aa(lp5018
g1465
aI1465
aa(lp5019
g1466
aI1466
aa(lp5020
g1467
aI1467
aa(lp5021
g1468
aI1468
aa(lp5022
g1469
aI1469
aa(lp5023
g1470
aI1470
aa(lp5024
g1471
aI1471
aa(lp5025
g1472
aI1472
aa(lp5026
g1473
aI1473
aa(lp5027
S','
aI1474
aa(lp5028
g1474
aI1475
aa(lp5029
g1475
aI1476
aa(lp5030
g1476
aI1477
aa(lp5031
g1477
aI1478
aa(lp5032
g1478
aI1479
aa(lp5033
g1479
aI1480
aa(lp5034
g1480
aI1481
aa(lp5035
g1481
aI1482
aa(lp5036
g1482
aI1483
aa(lp5037
g1483
aI1484
aa(lp5038
g1484
aI1485
aa(lp5039
g1485
aI1486
aa(lp5040
g1486
aI1487
aa(lp5041
g1487
aI1488
aa(lp5042
g1488
aI1489
aa(lp5043
g1489
aI1490
aa(lp5044
g1490
aI1491
aa(lp5045
g1491
aI1492
aa(lp5046
g1492
aI1493
aa(lp5047
g1493
aI1494
aa(lp5048
g1494
aI1495
aa(lp5049
g1495
aI1496
aa(lp5050
g1496
aI1497
aa(lp5051
g1497
aI1498
aa(lp5052
g1498
aI1499
aa(lp5053
g1499
aI1500
aa(lp5054
g1500
aI1501
aa(lp5055
g1501
aI1502
aa(lp5056
g1502
aI1503
aa(lp5057
g1503
aI1504
aa(lp5058
g1504
aI1505
aa(lp5059
g1505
aI1506
aa(lp5060
g1506
aI1507
aa(lp5061
g1507
aI1508
aa(lp5062
g1508
aI1509
aa(lp5063
g1509
aI1510
aa(lp5064
g1510
aI1511
aa(lp5065
g1511
aI1512
aa(lp5066
g1512
aI1513
aa(lp5067
g1513
aI1514
aa(lp5068
g1514
aI1515
aa(lp5069
g1515
aI1516
aa(lp5070
g1516
aI1517
aa(lp5071
g1517
aI1518
aa(lp5072
g1518
aI1519
aa(lp5073
g1519
aI1520
aa(lp5074
g1520
aI1521
aa(lp5075
g1521
aI1522
aa(lp5076
g1522
aI1523
aa(lp5077
g1523
aI1524
aa(lp5078
g1524
aI1525
aa(lp5079
g1525
aI1526
aa(lp5080
g1526
aI1527
aa(lp5081
g1527
aI1528
aa(lp5082
g1528
aI1529
aa(lp5083
g1529
aI1530
aa(lp5084
g1530
aI1531
aa(lp5085
g1531
aI1532
aa(lp5086
g1532
aI1533
aa(lp5087
g1533
aI1534
aa(lp5088
g1534
aI1535
aa(lp5089
g1535
aI1536
aa(lp5090
g1536
aI1537
aa(lp5091
g1537
aI1538
aa(lp5092
g1538
aI1539
aa(lp5093
g1539
aI1540
aa(lp5094
g1540
aI1541
aa(lp5095
g1541
aI1542
aa(lp5096
g1542
aI1543
aa(lp5097
g1543
aI1544
aa(lp5098
g1544
aI1545
aa(lp5099
g1545
aI1546
aa(lp5100
g1546
aI1547
aa(lp5101
g1547
aI1548
aa(lp5102
g1548
aI1549
aa(lp5103
g1549
aI1550
aa(lp5104
g1550
aI1551
aa(lp5105
g1551
aI1552
aa(lp5106
g1552
aI1553
aa(lp5107
g1553
aI1554
aa(lp5108
g1554
aI1555
aa(lp5109
g1555
aI1556
aa(lp5110
g1556
aI1557
aa(lp5111
g1557
aI1558
aa(lp5112
g1558
aI1559
aa(lp5113
g1559
aI1560
aa(lp5114
g1560
aI1561
aa(lp5115
g1561
aI1562
aa(lp5116
g1562
aI1563
aa(lp5117
g1563
aI1564
aa(lp5118
g1564
aI1565
aa(lp5119
g1565
aI1566
aa(lp5120
g1566
aI1567
aa(lp5121
g1567
aI1568
aa(lp5122
g1568
aI1569
aa(lp5123
g1569
aI1570
aa(lp5124
g1570
aI1571
aa(lp5125
g1571
aI1572
aa(lp5126
g1572
aI1573
aa(lp5127
g1573
aI1574
aa(lp5128
g1574
aI1575
aa(lp5129
g1575
aI1576
aa(lp5130
g1576
aI1577
aa(lp5131
g1577
aI1578
aa(lp5132
g1578
aI1579
aa(lp5133
g1579
aI1580
aa(lp5134
g1580
aI1581
aa(lp5135
g1581
aI1582
aa(lp5136
g1582
aI1583
aa(lp5137
g1583
aI1584
aa(lp5138
g1584
aI1585
aa(lp5139
g1585
aI1586
aa(lp5140
g1586
aI1587
aa(lp5141
g1587
aI1588
aa(lp5142
g1588
aI1589
aa(lp5143
g1589
aI1590
aa(lp5144
g1590
aI1591
aa(lp5145
g1591
aI1592
aa(lp5146
g1592
aI1593
aa(lp5147
g1593
aI1594
aa(lp5148
g1594
aI1595
aa(lp5149
g1595
aI1596
aa(lp5150
g1596
aI1597
aa(lp5151
g1597
aI1598
aa(lp5152
g1598
aI1599
aa(lp5153
g1599
aI1600
aa(lp5154
g1600
aI1601
aa(lp5155
g1601
aI1602
aa(lp5156
g1602
aI1603
aa(lp5157
g1603
aI1604
aa(lp5158
g1604
aI1605
aa(lp5159
g1605
aI1606
aa(lp5160
g1606
aI1607
aa(lp5161
g1607
aI1608
aa(lp5162
g1608
aI1609
aa(lp5163
g1609
aI1610
aa(lp5164
g1610
aI1611
aa(lp5165
g1611
aI1612
aa(lp5166
g1612
aI1613
aa(lp5167
g1613
aI1614
aa(lp5168
g1614
aI1615
aa(lp5169
g1615
aI1616
aa(lp5170
g1616
aI1617
aa(lp5171
S'I'
aI1618
aa(lp5172
g1617
aI1619
aa(lp5173
g1618
aI1620
aa(lp5174
g1619
aI1621
aa(lp5175
g1620
aI1622
aa(lp5176
g1621
aI1623
aa(lp5177
g1622
aI1624
aa(lp5178
g1623
aI1625
aa(lp5179
g1624
aI1626
aa(lp5180
g1625
aI1627
aa(lp5181
g1626
aI1628
aa(lp5182
g1627
aI1629
aa(lp5183
g1628
aI1630
aa(lp5184
g1629
aI1631
aa(lp5185
g1630
aI1632
aa(lp5186
g1631
aI1633
aa(lp5187
g1632
aI1634
aa(lp5188
g1633
aI1635
aa(lp5189
g1634
aI1636
aa(lp5190
g1635
aI1637
aa(lp5191
g1636
aI1638
aa(lp5192
g1637
aI1639
aa(lp5193
g1638
aI1640
aa(lp5194
g1639
aI1641
aa(lp5195
g1640
aI1642
aa(lp5196
g1641
aI1643
aa(lp5197
g1642
aI1644
aa(lp5198
g1643
aI1645
aa(lp5199
g1644
aI1646
aa(lp5200
g1645
aI1647
aa(lp5201
g1646
aI1648
aa(lp5202
g1647
aI1649
aa(lp5203
g1648
aI1650
aa(lp5204
g1649
aI1651
aa(lp5205
g1650
aI1652
aa(lp5206
g1651
aI1653
aa(lp5207
g1652
aI1654
aa(lp5208
g1653
aI1655
aa(lp5209
g1654
aI1656
aa(lp5210
g1655
aI1657
aa(lp5211
g1656
aI1658
aa(lp5212
g1657
aI1659
aa(lp5213
g1658
aI1660
aa(lp5214
g1659
aI1661
aa(lp5215
g1660
aI1662
aa(lp5216
g1661
aI1663
aa(lp5217
g1662
aI1664
aa(lp5218
g1663
aI1665
aa(lp5219
g1664
aI1666
aa(lp5220
g1665
aI1667
aa(lp5221
g1666
aI1668
aa(lp5222
g1667
aI1669
aa(lp5223
g1668
aI1670
aa(lp5224
g1669
aI1671
aa(lp5225
g1670
aI1672
aa(lp5226
g1671
aI1673
aa(lp5227
g1672
aI1674
aa(lp5228
g1673
aI1675
aa(lp5229
g1674
aI1676
aa(lp5230
g1675
aI1677
aa(lp5231
g1676
aI1678
aa(lp5232
g1677
aI1679
aa(lp5233
g1678
aI1680
aa(lp5234
g1679
aI1681
aa(lp5235
g1680
aI1682
aa(lp5236
g1681
aI1683
aa(lp5237
g1682
aI1684
aa(lp5238
g1683
aI1685
aa(lp5239
g1684
aI1686
aa(lp5240
g1685
aI1687
aa(lp5241
g1686
aI1688
aa(lp5242
g1687
aI1689
aa(lp5243
g1688
aI1690
aa(lp5244
g1689
aI1691
aa(lp5245
g1690
aI1692
aa(lp5246
g1691
aI1693
aa(lp5247
g1692
aI1694
aa(lp5248
g1693
aI1695
aa(lp5249
g1694
aI1696
aa(lp5250
g1695
aI1697
aa(lp5251
g1696
aI1698
aa(lp5252
g1697
aI1699
aa(lp5253
g1698
aI1700
aa(lp5254
g1699
aI1701
aa(lp5255
g1700
aI1702
aa(lp5256
g1701
aI1703
aa(lp5257
g1702
aI1704
aa(lp5258
g1703
aI1705
aa(lp5259
g1704
aI1706
aa(lp5260
g1705
aI1707
aa(lp5261
g1706
aI1708
aa(lp5262
g1707
aI1709
aa(lp5263
g1708
aI1710
aa(lp5264
g1709
aI1711
aa(lp5265
g1710
aI1712
aa(lp5266
g1711
aI1713
aa(lp5267
g1712
aI1714
aa(lp5268
g1713
aI1715
aa(lp5269
g1714
aI1716
aa(lp5270
g1715
aI1717
aa(lp5271
g1716
aI1718
aa(lp5272
g1717
aI1719
aa(lp5273
g1718
aI1720
aa(lp5274
g1719
aI1721
aa(lp5275
g1720
aI1722
aa(lp5276
g1721
aI1723
aa(lp5277
g1722
aI1724
aa(lp5278
g1723
aI1725
aa(lp5279
g1724
aI1726
aa(lp5280
g1725
aI1727
aa(lp5281
g1726
aI1728
aa(lp5282
g1727
aI1729
aa(lp5283
g1728
aI1730
aa(lp5284
g1729
aI1731
aa(lp5285
g1730
aI1732
aa(lp5286
g1731
aI1733
aa(lp5287
g1732
aI1734
aa(lp5288
g1733
aI1735
aa(lp5289
g1734
aI1736
aa(lp5290
g1735
aI1737
aa(lp5291
g1736
aI1738
aa(lp5292
g1737
aI1739
aa(lp5293
g1738
aI1740
aa(lp5294
g1739
aI1741
aa(lp5295
g1740
aI1742
aa(lp5296
g1741
aI1743
aa(lp5297
g1742
aI1744
aa(lp5298
g1743
aI1745
aa(lp5299
g1744
aI1746
aa(lp5300
g1745
aI1747
aa(lp5301
g1746
aI1748
aa(lp5302
g1747
aI1749
aa(lp5303
g1748
aI1750
aa(lp5304
g1749
aI1751
aa(lp5305
g1750
aI1752
aa(lp5306
g1751
aI1753
aa(lp5307
g1752
aI1754
aa(lp5308
g1753
aI1755
aa(lp5309
g1754
aI1756
aa(lp5310
g1755
aI1757
aa(lp5311
g1756
aI1758
aa(lp5312
g1757
aI1759
aa(lp5313
g1758
aI1760
aa(lp5314
g1759
aI1761
aa(lp5315
g1760
aI1762
aa(lp5316
g1761
aI1763
aa(lp5317
g1762
aI1764
aa(lp5318
g1763
aI1765
aa(lp5319
g1764
aI1766
aa(lp5320
g1765
aI1767
aa(lp5321
g1766
aI1768
aa(lp5322
g1767
aI1769
aa(lp5323
g1768
aI1770
aa(lp5324
g1769
aI1771
aa(lp5325
g1770
aI1772
aa(lp5326
g1771
aI1773
aa(lp5327
g1772
aI1774
aa(lp5328
g1773
aI1775
aa(lp5329
g1774
aI1776
aa(lp5330
g1775
aI1777
aa(lp5331
g1776
aI1778
aa(lp5332
g1777
aI1779
aa(lp5333
g1778
aI1780
aa(lp5334
g1779
aI1781
aa(lp5335
g1780
aI1782
aa(lp5336
g1781
aI1783
aa(lp5337
g1782
aI1784
aa(lp5338
g1783
aI1785
aa(lp5339
g1784
aI1786
aa(lp5340
g1785
aI1787
aa(lp5341
g1786
aI1788
aa(lp5342
g1787
aI1789
aa(lp5343
g1788
aI1790
aa(lp5344
g1789
aI1791
aa(lp5345
g1790
aI1792
aa(lp5346
g1791
aI1793
aa(lp5347
g1792
aI1794
aa(lp5348
g1793
aI1795
aa(lp5349
g1794
aI1796
aa(lp5350
g1795
aI1797
aa(lp5351
g1796
aI1798
aa(lp5352
g1797
aI1799
aa(lp5353
g1798
aI1800
aa(lp5354
g1799
aI1801
aa(lp5355
g1800
aI1802
aa(lp5356
g1801
aI1803
aa(lp5357
g1802
aI1804
aa(lp5358
g1803
aI1805
aa(lp5359
g1804
aI1806
aa(lp5360
g1805
aI1807
aa(lp5361
g1806
aI1808
aa(lp5362
g1807
aI1809
aa(lp5363
g1808
aI1810
aa(lp5364
g1809
aI1811
aa(lp5365
g1810
aI1812
aa(lp5366
g1811
aI1813
aa(lp5367
g1812
aI1814
aa(lp5368
g1813
aI1815
aa(lp5369
g1814
aI1816
aa(lp5370
g1815
aI1817
aa(lp5371
g1816
aI1818
aa(lp5372
g1817
aI1819
aa(lp5373
g1818
aI1820
aa(lp5374
g1819
aI1821
aa(lp5375
g1820
aI1822
aa(lp5376
g1821
aI1823
aa(lp5377
g1822
aI1824
aa(lp5378
g1823
aI1825
aa(lp5379
g1824
aI1826
aa(lp5380
g1825
aI1827
aa(lp5381
g1826
aI1828
aa(lp5382
g1827
aI1829
aa(lp5383
g1828
aI1830
aa(lp5384
g1829
aI1831
aa(lp5385
g1830
aI1832
aa(lp5386
g1831
aI1833
aa(lp5387
g1832
aI1834
aa(lp5388
g1833
aI1835
aa(lp5389
g1834
aI1836
aa(lp5390
g1835
aI1837
aa(lp5391
g1836
aI1838
aa(lp5392
g1837
aI1839
aa(lp5393
g1838
aI1840
aa(lp5394
g1839
aI1841
aa(lp5395
g1840
aI1842
aa(lp5396
g1841
aI1843
aa(lp5397
g1842
aI1844
aa(lp5398
g1843
aI1845
aa(lp5399
g1844
aI1846
aa(lp5400
g1845
aI1847
aa(lp5401
g1846
aI1848
aa(lp5402
g1847
aI1849
aa(lp5403
g1848
aI1850
aa(lp5404
g1849
aI1851
aa(lp5405
g1850
aI1852
aa(lp5406
g1851
aI1853
aa(lp5407
g1852
aI1854
aa(lp5408
g1853
aI1855
aa(lp5409
g1854
aI1856
aa(lp5410
g1855
aI1857
aa(lp5411
g1856
aI1858
aa(lp5412
g1857
aI1859
aa(lp5413
g1858
aI1860
aa(lp5414
g1859
aI1861
aa(lp5415
g1860
aI1862
aa(lp5416
g1861
aI1863
aa(lp5417
g1862
aI1864
aa(lp5418
g1863
aI1865
aa(lp5419
g1864
aI1866
aa(lp5420
g1865
aI1867
aa(lp5421
g1866
aI1868
aa(lp5422
g1867
aI1869
aa(lp5423
g1868
aI1870
aa(lp5424
g1869
aI1871
aa(lp5425
g1870
aI1872
aa(lp5426
g1871
aI1873
aa(lp5427
g1872
aI1874
aa(lp5428
g1873
aI1875
aa(lp5429
g1874
aI1876
aa(lp5430
g1875
aI1877
aa(lp5431
g1876
aI1878
aa(lp5432
g1877
aI1879
aa(lp5433
g1878
aI1880
aa(lp5434
g1879
aI1881
aa(lp5435
g1880
aI1882
aa(lp5436
g1881
aI1883
aa(lp5437
g1882
aI1884
aa(lp5438
g1883
aI1885
aa(lp5439
g1884
aI1886
aa(lp5440
g1885
aI1887
aa(lp5441
g1886
aI1888
aa(lp5442
g1887
aI1889
aa(lp5443
g1888
aI1890
aa(lp5444
g1889
aI1891
aa(lp5445
g1890
aI1892
aa(lp5446
g1891
aI1893
aa(lp5447
g1892
aI1894
aa(lp5448
g1893
aI1895
aa(lp5449
g1894
aI1896
aa(lp5450
g1895
aI1897
aa(lp5451
g1896
aI1898
aa(lp5452
g1897
aI1899
aa(lp5453
g1898
aI1900
aa(lp5454
g1899
aI1901
aa(lp5455
g1900
aI1902
aa(lp5456
g1901
aI1903
aa(lp5457
g1902
aI1904
aa(lp5458
g1903
aI1905
aa(lp5459
g1904
aI1906
aa(lp5460
g1905
aI1907
aa(lp5461
g1906
aI1908
aa(lp5462
g1907
aI1909
aa(lp5463
g1908
aI1910
aa(lp5464
g1909
aI1911
aa(lp5465
g1910
aI1912
aa(lp5466
g1911
aI1913
aa(lp5467
g1912
aI1914
aa(lp5468
g1913
aI1915
aa(lp5469
g1914
aI1916
aa(lp5470
g1915
aI1917
aa(lp5471
g1916
aI1918
aa(lp5472
g1917
aI1919
aa(lp5473
g1918
aI1920
aa(lp5474
g1919
aI1921
aa(lp5475
g1920
aI1922
aa(lp5476
g1921
aI1923
aa(lp5477
g1922
aI1924
aa(lp5478
g1923
aI1925
aa(lp5479
g1924
aI1926
aa(lp5480
g1925
aI1927
aa(lp5481
g1926
aI1928
aa(lp5482
g1927
aI1929
aa(lp5483
g1928
aI1930
aa(lp5484
g1929
aI1931
aa(lp5485
g1930
aI1932
aa(lp5486
g1931
aI1933
aa(lp5487
g1932
aI1934
aa(lp5488
g1933
aI1935
aa(lp5489
g1934
aI1936
aa(lp5490
g1935
aI1937
aa(lp5491
g1936
aI1938
aa(lp5492
g1937
aI1939
aa(lp5493
g1938
aI1940
aa(lp5494
g1939
aI1941
aa(lp5495
g1940
aI1942
aa(lp5496
g1941
aI1943
aa(lp5497
g1942
aI1944
aa(lp5498
g1943
aI1945
aa(lp5499
g1944
aI1946
aa(lp5500
g1945
aI1947
aa(lp5501
g1946
aI1948
aa(lp5502
g1947
aI1949
aa(lp5503
g1948
aI1950
aa(lp5504
g1949
aI1951
aa(lp5505
g1950
aI1952
aa(lp5506
g1951
aI1953
aa(lp5507
g1952
aI1954
aa(lp5508
g1953
aI1955
aa(lp5509
g1954
aI1956
aa(lp5510
g1955
aI1957
aa(lp5511
g1956
aI1958
aa(lp5512
g1957
aI1959
aa(lp5513
g1958
aI1960
aa(lp5514
g1959
aI1961
aa(lp5515
g1960
aI1962
aa(lp5516
g1961
aI1963
aa(lp5517
g1962
aI1964
aa(lp5518
g1963
aI1965
aa(lp5519
g1964
aI1966
aa(lp5520
g1965
aI1967
aa(lp5521
g1966
aI1968
aa(lp5522
g1967
aI1969
aa(lp5523
g1968
aI1970
aa(lp5524
g1969
aI1971
aa(lp5525
g1970
aI1972
aa(lp5526
g1971
aI1973
aa(lp5527
g1972
aI1974
aa(lp5528
g1973
aI1975
aa(lp5529
g1974
aI1976
aa(lp5530
g1975
aI1977
aa(lp5531
g1976
aI1978
aa(lp5532
g1977
aI1979
aa(lp5533
g1978
aI1980
aa(lp5534
g1979
aI1981
aa(lp5535
g1980
aI1982
aa(lp5536
g1981
aI1983
aa(lp5537
g1982
aI1984
aa(lp5538
g1983
aI1985
aa(lp5539
g1984
aI1986
aa(lp5540
g1985
aI1987
aa(lp5541
g1986
aI1988
aa(lp5542
g1987
aI1989
aa(lp5543
g1988
aI1990
aa(lp5544
g1989
aI1991
aa(lp5545
g1990
aI1992
aa(lp5546
g1991
aI1993
aa(lp5547
g1992
aI1994
aa(lp5548
g1993
aI1995
aa(lp5549
g1994
aI1996
aa(lp5550
g1995
aI1997
aa(lp5551
g1996
aI1998
aa(lp5552
g1997
aI1999
aa(lp5553
g1998
aI2000
aa(lp5554
g1999
aI2001
aa(lp5555
g2000
aI2002
aa(lp5556
g2001
aI2003
aa(lp5557
g2002
aI2004
aa(lp5558
g2003
aI2005
aa(lp5559
g2004
aI2006
aa(lp5560
g2005
aI2007
aa(lp5561
g2006
aI2008
aa(lp5562
g2007
aI2009
aa(lp5563
g2008
aI2010
aa(lp5564
g2009
aI2011
aa(lp5565
g2010
aI2012
aa(lp5566
g2011
aI2013
aa(lp5567
g2012
aI2014
aa(lp5568
g2013
aI2015
aa(lp5569
g2014
aI2016
aa(lp5570
g2015
aI2017
aa(lp5571
g2016
aI2018
aa(lp5572
g2017
aI2019
aa(lp5573
g2018
aI2020
aa(lp5574
g2019
aI2021
aa(lp5575
g2020
aI2022
aa(lp5576
g2021
aI2023
aa(lp5577
g2022
aI2024
aa(lp5578
g2023
aI2025
aa(lp5579
g2024
aI2026
aa(lp5580
g2025
aI2027
aa(lp5581
g2026
aI2028
aa(lp5582
g2027
aI2029
aa(lp5583
g2028
aI2030
aa(lp5584
g2029
aI2031
aa(lp5585
g2030
aI2032
aa(lp5586
g2031
aI2033
aa(lp5587
g2032
aI2034
aa(lp5588
g2033
aI2035
aa(lp5589
g2034
aI2036
aa(lp5590
g2035
aI2037
aa(lp5591
g2036
aI2038
aa(lp5592
g2037
aI2039
aa(lp5593
g2038
aI2040
aa(lp5594
g2039
aI2041
aa(lp5595
g2040
aI2042
aa(lp5596
g2041
aI2043
aa(lp5597
g2042
aI2044
aa(lp5598
g2043
aI2045
aa(lp5599
g2044
aI2046
aa(lp5600
g2045
aI2047
aa(lp5601
g2046
aI2048
aa(lp5602
g2047
aI2049
aa(lp5603
g2048
aI2050
aa(lp5604
g2049
aI2051
aa(lp5605
g2050
aI2052
aa(lp5606
g2051
aI2053
aa(lp5607
g2052
aI2054
aa(lp5608
g2053
aI2055
aa(lp5609
g2054
aI2056
aa(lp5610
g2055
aI2057
aa(lp5611
g2056
aI2058
aa(lp5612
g2057
aI2059
aa(lp5613
g2058
aI2060
aa(lp5614
g2059
aI2061
aa(lp5615
g2060
aI2062
aa(lp5616
g2061
aI2063
aa(lp5617
g2062
aI2064
aa(lp5618
g2063
aI2065
aa(lp5619
g2064
aI2066
aa(lp5620
g2065
aI2067
aa(lp5621
g2066
aI2068
aa(lp5622
g2067
aI2069
aa(lp5623
g2068
aI2070
aa(lp5624
g2069
aI2071
aa(lp5625
g2070
aI2072
aa(lp5626
g2071
aI2073
aa(lp5627
g2072
aI2074
aa(lp5628
g2073
aI2075
aa(lp5629
g2074
aI2076
aa(lp5630
g2075
aI2077
aa(lp5631
g2076
aI2078
aa(lp5632
g2077
aI2079
aa(lp5633
g2078
aI2080
aa(lp5634
g2079
aI2081
aa(lp5635
g2080
aI2082
aa(lp5636
g2081
aI2083
aa(lp5637
g2082
aI2084
aa(lp5638
g2083
aI2085
aa(lp5639
g2084
aI2086
aa(lp5640
g2085
aI2087
aa(lp5641
g2086
aI2088
aa(lp5642
g2087
aI2089
aa(lp5643
g2088
aI2090
aa(lp5644
g2089
aI2091
aa(lp5645
g2090
aI2092
aa(lp5646
g2091
aI2093
aa(lp5647
g2092
aI2094
aa(lp5648
g2093
aI2095
aa(lp5649
g2094
aI2096
aa(lp5650
g2095
aI2097
aa(lp5651
g2096
aI2098
aa(lp5652
g2097
aI2099
aa(lp5653
g2098
aI2100
aa(lp5654
g2099
aI2101
aa(lp5655
g2100
aI2102
aa(lp5656
g2101
aI2103
aa(lp5657
g2102
aI2104
aa(lp5658
g2103
aI2105
aa(lp5659
g2104
aI2106
aa(lp5660
g2105
aI2107
aa(lp5661
g2106
aI2108
aa(lp5662
g2107
aI2109
aa(lp5663
g2108
aI2110
aa(lp5664
g2109
aI2111
aa(lp5665
g2110
aI2112
aa(lp5666
g2111
aI2113
aa(lp5667
g2112
aI2114
aa(lp5668
g2113
aI2115
aa(lp5669
g2114
aI2116
aa(lp5670
g2115
aI2117
aa(lp5671
g2116
aI2118
aa(lp5672
g2117
aI2119
aa(lp5673
g2118
aI2120
aa(lp5674
g2119
aI2121
aa(lp5675
g2120
aI2122
aa(lp5676
g2121
aI2123
aa(lp5677
g2122
aI2124
aa(lp5678
g2123
aI2125
aa(lp5679
g2124
aI2126
aa(lp5680
g2125
aI2127
aa(lp5681
g2126
aI2128
aa(lp5682
g2127
aI2129
aa(lp5683
g2128
aI2130
aa(lp5684
g2129
aI2131
aa(lp5685
g2130
aI2132
aa(lp5686
g2131
aI2133
aa(lp5687
g2132
aI2134
aa(lp5688
g2133
aI2135
aa(lp5689
g2134
aI2136
aa(lp5690
g2135
aI2137
aa(lp5691
g2136
aI2138
aa(lp5692
g2137
aI2139
aa(lp5693
g2138
aI2140
aa(lp5694
g2139
aI2141
aa(lp5695
g2140
aI2142
aa(lp5696
g2141
aI2143
aa(lp5697
g2142
aI2144
aa(lp5698
g2143
aI2145
aa(lp5699
g2144
aI2146
aa(lp5700
g2145
aI2147
aa(lp5701
g2146
aI2148
aa(lp5702
g2147
aI2149
aa(lp5703
g2148
aI2150
aa(lp5704
g2149
aI2151
aa(lp5705
g2150
aI2152
aa(lp5706
g2151
aI2153
aa(lp5707
g2152
aI2154
aa(lp5708
g2153
aI2155
aa(lp5709
g2154
aI2156
aa(lp5710
g2155
aI2157
aa(lp5711
g2156
aI2158
aa(lp5712
g2157
aI2159
aa(lp5713
g2158
aI2160
aa(lp5714
g2159
aI2161
aa(lp5715
g2160
aI2162
aa(lp5716
g2161
aI2163
aa(lp5717
g2162
aI2164
aa(lp5718
g2163
aI2165
aa(lp5719
g2164
aI2166
aa(lp5720
g2165
aI2167
aa(lp5721
g2166
aI2168
aa(lp5722
g2167
aI2169
aa(lp5723
g2168
aI2170
aa(lp5724
g2169
aI2171
aa(lp5725
g2170
aI2172
aa(lp5726
g2171
aI2173
aa(lp5727
g2172
aI2174
aa(lp5728
g2173
aI2175
aa(lp5729
g2174
aI2176
aa(lp5730
g2175
aI2177
aa(lp5731
g2176
aI2178
aa(lp5732
g2177
aI2179
aa(lp5733
g2178
aI2180
aa(lp5734
g2179
aI2181
aa(lp5735
g2180
aI2182
aa(lp5736
g2181
aI2183
aa(lp5737
g2182
aI2184
aa(lp5738
g2183
aI2185
aa(lp5739
g2184
aI2186
aa(lp5740
g2185
aI2187
aa(lp5741
g2186
aI2188
aa(lp5742
g2187
aI2189
aa(lp5743
g2188
aI2190
aa(lp5744
g2189
aI2191
aa(lp5745
g2190
aI2192
aa(lp5746
g2191
aI2193
aa(lp5747
g2192
aI2194
aa(lp5748
g2193
aI2195
aa(lp5749
g2194
aI2196
aa(lp5750
g2195
aI2197
aa(lp5751
g2196
aI2198
aa(lp5752
g2197
aI2199
aa(lp5753
g2198
aI2200
aa(lp5754
g2199
aI2201
aa(lp5755
g2200
aI2202
aa(lp5756
g2201
aI2203
aa(lp5757
g2202
aI2204
aa(lp5758
g2203
aI2205
aa(lp5759
g2204
aI2206
aa(lp5760
g2205
aI2207
aa(lp5761
g2206
aI2208
aa(lp5762
g2207
aI2209
aa(lp5763
g2208
aI2210
aa(lp5764
g2209
aI2211
aa(lp5765
g2210
aI2212
aa(lp5766
g2211
aI2213
aa(lp5767
g2212
aI2214
aa(lp5768
g2213
aI2215
aa(lp5769
g2214
aI2216
aa(lp5770
g2215
aI2217
aa(lp5771
g2216
aI2218
aa(lp5772
g2217
aI2219
aa(lp5773
g2218
aI2220
aa(lp5774
g2219
aI2221
aa(lp5775
g2220
aI2222
aa(lp5776
g2221
aI2223
aa(lp5777
g2222
aI2224
aa(lp5778
g2223
aI2225
aa(lp5779
g2224
aI2226
aa(lp5780
g2225
aI2227
aa(lp5781
g2226
aI2228
aa(lp5782
g2227
aI2229
aa(lp5783
g2228
aI2230
aa(lp5784
g2229
aI2231
aa(lp5785
g2230
aI2232
aa(lp5786
g2231
aI2233
aa(lp5787
g2232
aI2234
aa(lp5788
g2233
aI2235
aa(lp5789
g2234
aI2236
aa(lp5790
g2235
aI2237
aa(lp5791
g2236
aI2238
aa(lp5792
g2237
aI2239
aa(lp5793
g2238
aI2240
aa(lp5794
g2239
aI2241
aa(lp5795
g2240
aI2242
aa(lp5796
g2241
aI2243
aa(lp5797
g2242
aI2244
aa(lp5798
g2243
aI2245
aa(lp5799
g2244
aI2246
aa(lp5800
g2245
aI2247
aa(lp5801
g2246
aI2248
aa(lp5802
g2247
aI2249
aa(lp5803
g2248
aI2250
aa(lp5804
g2249
aI2251
aa(lp5805
g2250
aI2252
aa(lp5806
g2251
aI2253
aa(lp5807
g2252
aI2254
aa(lp5808
g2253
aI2255
aa(lp5809
g2254
aI2256
aa(lp5810
g2255
aI2257
aa(lp5811
g2256
aI2258
aa(lp5812
g2257
aI2259
aa(lp5813
g2258
aI2260
aa(lp5814
g2259
aI2261
aa(lp5815
g2260
aI2262
aa(lp5816
g2261
aI2263
aa(lp5817
g2262
aI2264
aa(lp5818
g2263
aI2265
aa(lp5819
g2264
aI2266
aa(lp5820
g2265
aI2267
aa(lp5821
g2266
aI2268
aa(lp5822
g2267
aI2269
aa(lp5823
g2268
aI2270
aa(lp5824
g2269
aI2271
aa(lp5825
g2270
aI2272
aa(lp5826
g2271
aI2273
aa(lp5827
g2272
aI2274
aa(lp5828
g2273
aI2275
aa(lp5829
g2274
aI2276
aa(lp5830
g2275
aI2277
aa(lp5831
g2276
aI2278
aa(lp5832
g2277
aI2279
aa(lp5833
g2278
aI2280
aa(lp5834
g2279
aI2281
aa(lp5835
g2280
aI2282
aa(lp5836
g2281
aI2283
aa(lp5837
g2282
aI2284
aa(lp5838
g2283
aI2285
aa(lp5839
g2284
aI2286
aa(lp5840
g2285
aI2287
aa(lp5841
g2286
aI2288
aa(lp5842
g2287
aI2289
aa(lp5843
g2288
aI2290
aa(lp5844
g2289
aI2291
aa(lp5845
g2290
aI2292
aa(lp5846
g2291
aI2293
aa(lp5847
g2292
aI2294
aa(lp5848
g2293
aI2295
aa(lp5849
g2294
aI2296
aa(lp5850
g2295
aI2297
aa(lp5851
g2296
aI2298
aa(lp5852
g2297
aI2299
aa(lp5853
g2298
aI2300
aa(lp5854
g2299
aI2301
aa(lp5855
g2300
aI2302
aa(lp5856
g2301
aI2303
aa(lp5857
g2302
aI2304
aa(lp5858
g2303
aI2305
aa(lp5859
g2304
aI2306
aa(lp5860
g2305
aI2307
aa(lp5861
g2306
aI2308
aa(lp5862
g2307
aI2309
aa(lp5863
g2308
aI2310
aa(lp5864
g2309
aI2311
aa(lp5865
g2310
aI2312
aa(lp5866
g2311
aI2313
aa(lp5867
g2312
aI2314
aa(lp5868
g2313
aI2315
aa(lp5869
g2314
aI2316
aa(lp5870
g2315
aI2317
aa(lp5871
g2316
aI2318
aa(lp5872
g2317
aI2319
aa(lp5873
g2318
aI2320
aa(lp5874
g2319
aI2321
aa(lp5875
g2320
aI2322
aa(lp5876
g2321
aI2323
aa(lp5877
g2322
aI2324
aa(lp5878
g2323
aI2325
aa(lp5879
g2324
aI2326
aa(lp5880
g2325
aI2327
aa(lp5881
g2326
aI2328
aa(lp5882
g2327
aI2329
aa(lp5883
g2328
aI2330
aa(lp5884
g2329
aI2331
aa(lp5885
g2330
aI2332
aa(lp5886
g2331
aI2333
aa(lp5887
g2332
aI2334
aa(lp5888
g2333
aI2335
aa(lp5889
g2334
aI2336
aa(lp5890
g2335
aI2337
aa(lp5891
g2336
aI2338
aa(lp5892
g2337
aI2339
aa(lp5893
g2338
aI2340
aa(lp5894
g2339
aI2341
aa(lp5895
g2340
aI2342
aa(lp5896
g2341
aI2343
aa(lp5897
g2342
aI2344
aa(lp5898
g2343
aI2345
aa(lp5899
g2344
aI2346
aa(lp5900
g2345
aI2347
aa(lp5901
g2346
aI2348
aa(lp5902
g2347
aI2349
aa(lp5903
g2348
aI2350
aa(lp5904
g2349
aI2351
aa(lp5905
g2350
aI2352
aa(lp5906
g2351
aI2353
aa(lp5907
g2352
aI2354
aa(lp5908
g2353
aI2355
aa(lp5909
g2354
aI2356
aa(lp5910
g2355
aI2357
aa(lp5911
g2356
aI2358
aa(lp5912
g2357
aI2359
aa(lp5913
g2358
aI2360
aa(lp5914
g2359
aI2361
aa(lp5915
g2360
aI2362
aa(lp5916
g2361
aI2363
aa(lp5917
g2362
aI2364
aa(lp5918
g2363
aI2365
aa(lp5919
g2364
aI2366
aa(lp5920
g2365
aI2367
aa(lp5921
g2366
aI2368
aa(lp5922
g2367
aI2369
aa(lp5923
g2368
aI2370
aa(lp5924
g2369
aI2371
aa(lp5925
g2370
aI2372
aa(lp5926
g2371
aI2373
aa(lp5927
g2372
aI2374
aa(lp5928
g2373
aI2375
aa(lp5929
g2374
aI2376
aa(lp5930
g2375
aI2377
aa(lp5931
g2376
aI2378
aa(lp5932
g2377
aI2379
aa(lp5933
g2378
aI2380
aa(lp5934
g2379
aI2381
aa(lp5935
g2380
aI2382
aa(lp5936
g2381
aI2383
aa(lp5937
g2382
aI2384
aa(lp5938
g2383
aI2385
aa(lp5939
g2384
aI2386
aa(lp5940
g2385
aI2387
aa(lp5941
g2386
aI2388
aa(lp5942
g2387
aI2389
aa(lp5943
g2388
aI2390
aa(lp5944
g2389
aI2391
aa(lp5945
g2390
aI2392
aa(lp5946
g2391
aI2393
aa(lp5947
g2392
aI2394
aa(lp5948
g2393
aI2395
aa(lp5949
g2394
aI2396
aa(lp5950
g2395
aI2397
aa(lp5951
g2396
aI2398
aa(lp5952
g2397
aI2399
aa(lp5953
g2398
aI2400
aa(lp5954
g2399
aI2401
aa(lp5955
g2400
aI2402
aa(lp5956
g2401
aI2403
aa(lp5957
g2402
aI2404
aa(lp5958
g2403
aI2405
aa(lp5959
g2404
aI2406
aa(lp5960
g2405
aI2407
aa(lp5961
g2406
aI2408
aa(lp5962
g2407
aI2409
aa(lp5963
g2408
aI2410
aa(lp5964
g2409
aI2411
aa(lp5965
g2410
aI2412
aa(lp5966
g2411
aI2413
aa(lp5967
g2412
aI2414
aa(lp5968
g2413
aI2415
aa(lp5969
g2414
aI2416
aa(lp5970
g2415
aI2417
aa(lp5971
g2416
aI2418
aa(lp5972
g2417
aI2419
aa(lp5973
g2418
aI2420
aa(lp5974
g2419
aI2421
aa(lp5975
g2420
aI2422
aa(lp5976
g2421
aI2423
aa(lp5977
g2422
aI2424
aa(lp5978
g2423
aI2425
aa(lp5979
g2424
aI2426
aa(lp5980
g2425
aI2427
aa(lp5981
g2426
aI2428
aa(lp5982
g2427
aI2429
aa(lp5983
g2428
aI2430
aa(lp5984
g2429
aI2431
aa(lp5985
g2430
aI2432
aa(lp5986
g2431
aI2433
aa(lp5987
g2432
aI2434
aa(lp5988
g2433
aI2435
aa(lp5989
g2434
aI2436
aa(lp5990
g2435
aI2437
aa(lp5991
g2436
aI2438
aa(lp5992
g2437
aI2439
aa(lp5993
g2438
aI2440
aa(lp5994
g2439
aI2441
aa(lp5995
g2440
aI2442
aa(lp5996
g2441
aI2443
aa(lp5997
g2442
aI2444
aa(lp5998
g2443
aI2445
aa(lp5999
g2444
aI2446
aa(lp6000
g2445
aI2447
aa(lp6001
g2446
aI2448
aa(lp6002
g2447
aI2449
aa(lp6003
g2448
aI2450
aa(lp6004
g2449
aI2451
aa(lp6005
g2450
aI2452
aa(lp6006
g2451
aI2453
aa(lp6007
g2452
aI2454
aa(lp6008
g2453
aI2455
aa(lp6009
g2454
aI2456
aa(lp6010
g2455
aI2457
aa(lp6011
g2456
aI2458
aa(lp6012
g2457
aI2459
aa(lp6013
g2458
aI2460
aa(lp6014
g2459
aI2461
aa(lp6015
g2460
aI2462
aa(lp6016
g2461
aI2463
aa(lp6017
g2462
aI2464
aa(lp6018
g2463
aI2465
aa(lp6019
g2464
aI2466
aa(lp6020
g2465
aI2467
aa(lp6021
g2466
aI2468
aa(lp6022
g2467
aI2469
aa(lp6023
g2468
aI2470
aa(lp6024
g2469
aI2471
aa(lp6025
g2470
aI2472
aa(lp6026
g2471
aI2473
aa(lp6027
g2472
aI2474
aa(lp6028
g2473
aI2475
aa(lp6029
g2474
aI2476
aa(lp6030
g2475
aI2477
aa(lp6031
g2476
aI2478
aa(lp6032
g2477
aI2479
aa(lp6033
g2478
aI2480
aa(lp6034
g2479
aI2481
aa(lp6035
g2480
aI2482
aa(lp6036
g2481
aI2483
aa(lp6037
g2482
aI2484
aa(lp6038
g2483
aI2485
aa(lp6039
g2484
aI2486
aa(lp6040
g2485
aI2487
aa(lp6041
g2486
aI2488
aa(lp6042
g2487
aI2489
aa(lp6043
g2488
aI2490
aa(lp6044
g2489
aI2491
aa(lp6045
g2490
aI2492
aa(lp6046
g2491
aI2493
aa(lp6047
g2492
aI2494
aa(lp6048
g2493
aI2495
aa(lp6049
g2494
aI2496
aa(lp6050
g2495
aI2497
aa(lp6051
g2496
aI2498
aa(lp6052
g2497
aI2499
aa(lp6053
g2498
aI2500
aa(lp6054
g2499
aI2501
aa(lp6055
g2500
aI2502
aa(lp6056
g2501
aI2503
aa(lp6057
g2502
aI2504
aa(lp6058
g2503
aI2505
aa(lp6059
g2504
aI2506
aa(lp6060
g2505
aI2507
aa(lp6061
g2506
aI2508
aa(lp6062
g2507
aI2509
aa(lp6063
g2508
aI2510
aa(lp6064
g2509
aI2511
aa(lp6065
g2510
aI2512
aa(lp6066
S'-'
aI2513
aa(lp6067
g2511
aI2514
aa(lp6068
g2512
aI2515
aa(lp6069
g2513
aI2516
aa(lp6070
g2514
aI2517
aa(lp6071
g2515
aI2518
aa(lp6072
g2516
aI2519
aa(lp6073
g2517
aI2520
aa(lp6074
g2518
aI2521
aa(lp6075
g2519
aI2522
aa(lp6076
g2520
aI2523
aa(lp6077
g2521
aI2524
aa(lp6078
g2522
aI2525
aa(lp6079
g2523
aI2526
aa(lp6080
g2524
aI2527
aa(lp6081
g2525
aI2528
aa(lp6082
g2526
aI2529
aa(lp6083
g2527
aI2530
aa(lp6084
g2528
aI2531
aa(lp6085
g2529
aI2532
aa(lp6086
g2530
aI2533
aa(lp6087
g2531
aI2534
aa(lp6088
g2532
aI2535
aa(lp6089
g2533
aI2536
aa(lp6090
g2534
aI2537
aa(lp6091
g2535
aI2538
aa(lp6092
g2536
aI2539
aa(lp6093
g2537
aI2540
aa(lp6094
g2538
aI2541
aa(lp6095
g2539
aI2542
aa(lp6096
g2540
aI2543
aa(lp6097
g2541
aI2544
aa(lp6098
g2542
aI2545
aa(lp6099
g2543
aI2546
aa(lp6100
g2544
aI2547
aa(lp6101
g2545
aI2548
aa(lp6102
g2546
aI2549
aa(lp6103
g2547
aI2550
aa(lp6104
g2548
aI2551
aa(lp6105
g2549
aI2552
aa(lp6106
g2550
aI2553
aa(lp6107
g2551
aI2554
aa(lp6108
g2552
aI2555
aa(lp6109
g2553
aI2556
aa(lp6110
g2554
aI2557
aa(lp6111
g2555
aI2558
aa(lp6112
g2556
aI2559
aa(lp6113
g2557
aI2560
aa(lp6114
g2558
aI2561
aa(lp6115
g2559
aI2562
aa(lp6116
g2560
aI2563
aa(lp6117
g2561
aI2564
aa(lp6118
g2562
aI2565
aa(lp6119
g2563
aI2566
aa(lp6120
g2564
aI2567
aa(lp6121
g2565
aI2568
aa(lp6122
g2566
aI2569
aa(lp6123
g2567
aI2570
aa(lp6124
g2568
aI2571
aa(lp6125
g2569
aI2572
aa(lp6126
g2570
aI2573
aa(lp6127
g2571
aI2574
aa(lp6128
g2572
aI2575
aa(lp6129
g2573
aI2576
aa(lp6130
g2574
aI2577
aa(lp6131
g2575
aI2578
aa(lp6132
g2576
aI2579
aa(lp6133
g2577
aI2580
aa(lp6134
g2578
aI2581
aa(lp6135
g2579
aI2582
aa(lp6136
g2580
aI2583
aa(lp6137
g2581
aI2584
aa(lp6138
g2582
aI2585
aa(lp6139
g2583
aI2586
aa(lp6140
g2584
aI2587
aa(lp6141
g2585
aI2588
aa(lp6142
g2586
aI2589
aa(lp6143
g2587
aI2590
aa(lp6144
g2588
aI2591
aa(lp6145
g2589
aI2592
aa(lp6146
g2590
aI2593
aa(lp6147
g2591
aI2594
aa(lp6148
g2592
aI2595
aa(lp6149
g2593
aI2596
aa(lp6150
g2594
aI2597
aa(lp6151
g2595
aI2598
aa(lp6152
g2596
aI2599
aa(lp6153
g2597
aI2600
aa(lp6154
g2598
aI2601
aa(lp6155
g2599
aI2602
aa(lp6156
g2600
aI2603
aa(lp6157
g2601
aI2604
aa(lp6158
g2602
aI2605
aa(lp6159
g2603
aI2606
aa(lp6160
g2604
aI2607
aa(lp6161
g2605
aI2608
aa(lp6162
g2606
aI2609
aa(lp6163
g2607
aI2610
aa(lp6164
g2608
aI2611
aa(lp6165
g2609
aI2612
aa(lp6166
g2610
aI2613
aa(lp6167
g2611
aI2614
aa(lp6168
g2612
aI2615
aa(lp6169
g2613
aI2616
aa(lp6170
g2614
aI2617
aa(lp6171
g2615
aI2618
aa(lp6172
g2616
aI2619
aa(lp6173
g2617
aI2620
aa(lp6174
g2618
aI2621
aa(lp6175
g2619
aI2622
aa(lp6176
g2620
aI2623
aa(lp6177
g2621
aI2624
aa(lp6178
g2622
aI2625
aa(lp6179
g2623
aI2626
aa(lp6180
g2624
aI2627
aa(lp6181
g2625
aI2628
aa(lp6182
g2626
aI2629
aa(lp6183
g2627
aI2630
aa(lp6184
g2628
aI2631
aa(lp6185
g2629
aI2632
aa(lp6186
g2630
aI2633
aa(lp6187
g2631
aI2634
aa(lp6188
g2632
aI2635
aa(lp6189
g2633
aI2636
aa(lp6190
g2634
aI2637
aa(lp6191
g2635
aI2638
aa(lp6192
g2636
aI2639
aa(lp6193
g2637
aI2640
aa(lp6194
g2638
aI2641
aa(lp6195
g2639
aI2642
aa(lp6196
g2640
aI2643
aa(lp6197
g2641
aI2644
aa(lp6198
g2642
aI2645
aa(lp6199
g2643
aI2646
aa(lp6200
g2644
aI2647
aa(lp6201
g2645
aI2648
aa(lp6202
g2646
aI2649
aa(lp6203
g2647
aI2650
aa(lp6204
g2648
aI2651
aa(lp6205
g2649
aI2652
aa(lp6206
g2650
aI2653
aa(lp6207
g2651
aI2654
aa(lp6208
g2652
aI2655
aa(lp6209
g2653
aI2656
aa(lp6210
g2654
aI2657
aa(lp6211
g2655
aI2658
aa(lp6212
g2656
aI2659
aa(lp6213
g2657
aI2660
aa(lp6214
g2658
aI2661
aa(lp6215
g2659
aI2662
aa(lp6216
g2660
aI2663
aa(lp6217
g2661
aI2664
aa(lp6218
g2662
aI2665
aa(lp6219
g2663
aI2666
aa(lp6220
g2664
aI2667
aa(lp6221
g2665
aI2668
aa(lp6222
g2666
aI2669
aa(lp6223
g2667
aI2670
aa(lp6224
g2668
aI2671
aa(lp6225
g2669
aI2672
aa(lp6226
g2670
aI2673
aa(lp6227
g2671
aI2674
aa(lp6228
g2672
aI2675
aa(lp6229
g2673
aI2676
aa(lp6230
g2674
aI2677
aa(lp6231
g2675
aI2678
aa(lp6232
g2676
aI2679
aa(lp6233
g2677
aI2680
aa(lp6234
g2678
aI2681
aa(lp6235
g2679
aI2682
aa(lp6236
g2680
aI2683
aa(lp6237
g2681
aI2684
aa(lp6238
g2682
aI2685
aa(lp6239
g2683
aI2686
aa(lp6240
g2684
aI2687
aa(lp6241
g2685
aI2688
aa(lp6242
g2686
aI2689
aa(lp6243
g2687
aI2690
aa(lp6244
g2688
aI2691
aa(lp6245
g2689
aI2692
aa(lp6246
g2690
aI2693
aa(lp6247
g2691
aI2694
aa(lp6248
g2692
aI2695
aa(lp6249
g2693
aI2696
aa(lp6250
g2694
aI2697
aa(lp6251
g2695
aI2698
aa(lp6252
g2696
aI2699
aa(lp6253
g2697
aI2700
aa(lp6254
g2698
aI2701
aa(lp6255
g2699
aI2702
aa(lp6256
g2700
aI2703
aa(lp6257
g2701
aI2704
aa(lp6258
g2702
aI2705
aa(lp6259
g2703
aI2706
aa(lp6260
g2704
aI2707
aa(lp6261
g2705
aI2708
aa(lp6262
g2706
aI2709
aa(lp6263
g2707
aI2710
aa(lp6264
g2708
aI2711
aa(lp6265
g2709
aI2712
aa(lp6266
g2710
aI2713
aa(lp6267
g2711
aI2714
aa(lp6268
g2712
aI2715
aa(lp6269
g2713
aI2716
aa(lp6270
g2714
aI2717
aa(lp6271
g2715
aI2718
aa(lp6272
g2716
aI2719
aa(lp6273
g2717
aI2720
aa(lp6274
g2718
aI2721
aa(lp6275
g2719
aI2722
aa(lp6276
g2720
aI2723
aa(lp6277
g2721
aI2724
aa(lp6278
g2722
aI2725
aa(lp6279
g2723
aI2726
aa(lp6280
g2724
aI2727
aa(lp6281
g2725
aI2728
aa(lp6282
g2726
aI2729
aa(lp6283
g2727
aI2730
aa(lp6284
g2728
aI2731
aa(lp6285
g2729
aI2732
aa(lp6286
g2730
aI2733
aa(lp6287
g2731
aI2734
aa(lp6288
g2732
aI2735
aa(lp6289
g2733
aI2736
aa(lp6290
g2734
aI2737
aa(lp6291
g2735
aI2738
aa(lp6292
g2736
aI2739
aa(lp6293
g2737
aI2740
aa(lp6294
g2738
aI2741
aa(lp6295
g2739
aI2742
aa(lp6296
g2740
aI2743
aa(lp6297
g2741
aI2744
aa(lp6298
g2742
aI2745
aa(lp6299
g2743
aI2746
aa(lp6300
g2744
aI2747
aa(lp6301
g2745
aI2748
aa(lp6302
g2746
aI2749
aa(lp6303
g2747
aI2750
aa(lp6304
g2748
aI2751
aa(lp6305
g2749
aI2752
aa(lp6306
g2750
aI2753
aa(lp6307
g2751
aI2754
aa(lp6308
S'B'
aI2755
aa(lp6309
g2752
aI2756
aa(lp6310
g2753
aI2757
aa(lp6311
g2754
aI2758
aa(lp6312
g2755
aI2759
aa(lp6313
g2756
aI2760
aa(lp6314
g2757
aI2761
aa(lp6315
g2758
aI2762
aa(lp6316
g2759
aI2763
aa(lp6317
g2760
aI2764
aa(lp6318
g2761
aI2765
aa(lp6319
g2762
aI2766
aa(lp6320
g2763
aI2767
aa(lp6321
g2764
aI2768
aa(lp6322
g2765
aI2769
aa(lp6323
g2766
aI2770
aa(lp6324
g2767
aI2771
aa(lp6325
g2768
aI2772
aa(lp6326
g2769
aI2773
aa(lp6327
g2770
aI2774
aa(lp6328
g2771
aI2775
aa(lp6329
g2772
aI2776
aa(lp6330
g2773
aI2777
aa(lp6331
g2774
aI2778
aa(lp6332
g2775
aI2779
aa(lp6333
g2776
aI2780
aa(lp6334
g2777
aI2781
aa(lp6335
g2778
aI2782
aa(lp6336
g2779
aI2783
aa(lp6337
g2780
aI2784
aa(lp6338
g2781
aI2785
aa(lp6339
g2782
aI2786
aa(lp6340
g2783
aI2787
aa(lp6341
g2784
aI2788
aa(lp6342
g2785
aI2789
aa(lp6343
g2786
aI2790
aa(lp6344
g2787
aI2791
aa(lp6345
g2788
aI2792
aa(lp6346
g2789
aI2793
aa(lp6347
g2790
aI2794
aa(lp6348
g2791
aI2795
aa(lp6349
g2792
aI2796
aa(lp6350
g2793
aI2797
aa(lp6351
g2794
aI2798
aa(lp6352
g2795
aI2799
aa(lp6353
g2796
aI2800
aa(lp6354
g2797
aI2801
aa(lp6355
g2798
aI2802
aa(lp6356
g2799
aI2803
aa(lp6357
g2800
aI2804
aa(lp6358
g2801
aI2805
aa(lp6359
g2802
aI2806
aa(lp6360
g2803
aI2807
aa(lp6361
g2804
aI2808
aa(lp6362
g2805
aI2809
aa(lp6363
g2806
aI2810
aa(lp6364
g2807
aI2811
aa(lp6365
g2808
aI2812
aa(lp6366
g2809
aI2813
aa(lp6367
g2810
aI2814
aa(lp6368
g2811
aI2815
aa(lp6369
g2812
aI2816
aa(lp6370
g2813
aI2817
aa(lp6371
g2814
aI2818
aa(lp6372
g2815
aI2819
aa(lp6373
g2816
aI2820
aa(lp6374
g2817
aI2821
aa(lp6375
g2818
aI2822
aa(lp6376
g2819
aI2823
aa(lp6377
g2820
aI2824
aa(lp6378
g2821
aI2825
aa(lp6379
g2822
aI2826
aa(lp6380
g2823
aI2827
aa(lp6381
g2824
aI2828
aa(lp6382
g2825
aI2829
aa(lp6383
g2826
aI2830
aa(lp6384
g2827
aI2831
aa(lp6385
g2828
aI2832
aa(lp6386
g2829
aI2833
aa(lp6387
g2830
aI2834
aa(lp6388
g2831
aI2835
aa(lp6389
g2832
aI2836
aa(lp6390
g2833
aI2837
aa(lp6391
g2834
aI2838
aa(lp6392
g2835
aI2839
aa(lp6393
g2836
aI2840
aa(lp6394
g2837
aI2841
aa(lp6395
g2838
aI2842
aa(lp6396
g2839
aI2843
aa(lp6397
g2840
aI2844
aa(lp6398
g2841
aI2845
aa(lp6399
g2842
aI2846
aa(lp6400
g2843
aI2847
aa(lp6401
g2844
aI2848
aa(lp6402
g2845
aI2849
aa(lp6403
g2846
aI2850
aa(lp6404
g2847
aI2851
aa(lp6405
g2848
aI2852
aa(lp6406
g2849
aI2853
aa(lp6407
g2850
aI2854
aa(lp6408
g2851
aI2855
aa(lp6409
g2852
aI2856
aa(lp6410
g2853
aI2857
aa(lp6411
g2854
aI2858
aa(lp6412
g2855
aI2859
aa(lp6413
g2856
aI2860
aa(lp6414
g2857
aI2861
aa(lp6415
g2858
aI2862
aa(lp6416
g2859
aI2863
aa(lp6417
g2860
aI2864
aa(lp6418
g2861
aI2865
aa(lp6419
g2862
aI2866
aa(lp6420
g2863
aI2867
aa(lp6421
g2864
aI2868
aa(lp6422
g2865
aI2869
aa(lp6423
g2866
aI2870
aa(lp6424
g2867
aI2871
aa(lp6425
g2868
aI2872
aa(lp6426
g2869
aI2873
aa(lp6427
g2870
aI2874
aa(lp6428
g2871
aI2875
aa(lp6429
g2872
aI2876
aa(lp6430
g2873
aI2877
aa(lp6431
g2874
aI2878
aa(lp6432
g2875
aI2879
aa(lp6433
g2876
aI2880
aa(lp6434
g2877
aI2881
aa(lp6435
g2878
aI2882
aa(lp6436
g2879
aI2883
aa(lp6437
g2880
aI2884
aa(lp6438
g2881
aI2885
aa(lp6439
g2882
aI2886
aa(lp6440
g2883
aI2887
aa(lp6441
g2884
aI2888
aa(lp6442
g2885
aI2889
aa(lp6443
g2886
aI2890
aa(lp6444
g2887
aI2891
aa(lp6445
g2888
aI2892
aa(lp6446
g2889
aI2893
aa(lp6447
g2890
aI2894
aa(lp6448
g2891
aI2895
aa(lp6449
g2892
aI2896
aa(lp6450
g2893
aI2897
aa(lp6451
g2894
aI2898
aa(lp6452
g2895
aI2899
aa(lp6453
g2896
aI2900
aa(lp6454
g2897
aI2901
aa(lp6455
g2898
aI2902
aa(lp6456
g2899
aI2903
aa(lp6457
g2900
aI2904
aa(lp6458
g2901
aI2905
aa(lp6459
g2902
aI2906
aa(lp6460
g2903
aI2907
aa(lp6461
g2904
aI2908
aa(lp6462
g2905
aI2909
aa(lp6463
g2906
aI2910
aa(lp6464
g2907
aI2911
aa(lp6465
g2908
aI2912
aa(lp6466
g2909
aI2913
aa(lp6467
g2910
aI2914
aa(lp6468
g2911
aI2915
aa(lp6469
g2912
aI2916
aa(lp6470
g2913
aI2917
aa(lp6471
g2914
aI2918
aa(lp6472
g2915
aI2919
aa(lp6473
g2916
aI2920
aa(lp6474
g2917
aI2921
aa(lp6475
g2918
aI2922
aa(lp6476
g2919
aI2923
aa(lp6477
g2920
aI2924
aa(lp6478
g2921
aI2925
aa(lp6479
g2922
aI2926
aa(lp6480
g2923
aI2927
aa(lp6481
g2924
aI2928
aa(lp6482
g2925
aI2929
aa(lp6483
g2926
aI2930
aa(lp6484
g2927
aI2931
aa(lp6485
g2928
aI2932
aa(lp6486
g2929
aI2933
aa(lp6487
g2930
aI2934
aa(lp6488
g2931
aI2935
aa(lp6489
g2932
aI2936
aa(lp6490
g2933
aI2937
aa(lp6491
g2934
aI2938
aa(lp6492
g2935
aI2939
aa(lp6493
g2936
aI2940
aa(lp6494
g2937
aI2941
aa(lp6495
g2938
aI2942
aa(lp6496
g2939
aI2943
aa(lp6497
g2940
aI2944
aa(lp6498
g2941
aI2945
aa(lp6499
g2942
aI2946
aa(lp6500
g2943
aI2947
aa(lp6501
g2944
aI2948
aa(lp6502
g2945
aI2949
aa(lp6503
g2946
aI2950
aa(lp6504
g2947
aI2951
aa(lp6505
g2948
aI2952
aa(lp6506
g2949
aI2953
aa(lp6507
g2950
aI2954
aa(lp6508
g2951
aI2955
aa(lp6509
g2952
aI2956
aa(lp6510
g2953
aI2957
aa(lp6511
g2954
aI2958
aa(lp6512
g2955
aI2959
aa(lp6513
g2956
aI2960
aa(lp6514
g2957
aI2961
aa(lp6515
g2958
aI2962
aa(lp6516
g2959
aI2963
aa(lp6517
g2960
aI2964
aa(lp6518
g2961
aI2965
aa(lp6519
g2962
aI2966
aa(lp6520
g2963
aI2967
aa(lp6521
g2964
aI2968
aa(lp6522
g2965
aI2969
aa(lp6523
g2966
aI2970
aa(lp6524
g2967
aI2971
aa(lp6525
g2968
aI2972
aa(lp6526
g2969
aI2973
aa(lp6527
g2970
aI2974
aa(lp6528
g2971
aI2975
aa(lp6529
g2972
aI2976
aa(lp6530
g2973
aI2977
aa(lp6531
g2974
aI2978
aa(lp6532
g2975
aI2979
aa(lp6533
g2976
aI2980
aa(lp6534
g2977
aI2981
aa(lp6535
g2978
aI2982
aa(lp6536
g2979
aI2983
aa(lp6537
g2980
aI2984
aa(lp6538
g2981
aI2985
aa(lp6539
g2982
aI2986
aa(lp6540
g2983
aI2987
aa(lp6541
g2984
aI2988
aa(lp6542
g2985
aI2989
aa(lp6543
g2986
aI2990
aa(lp6544
g2987
aI2991
aa(lp6545
g2988
aI2992
aa(lp6546
g2989
aI2993
aa(lp6547
g2990
aI2994
aa(lp6548
g2991
aI2995
aa(lp6549
g2992
aI2996
aa(lp6550
g2993
aI2997
aa(lp6551
g2994
aI2998
aa(lp6552
g2995
aI2999
aa(lp6553
g2996
aI3000
aa(lp6554
g2997
aI3001
aa(lp6555
g2998
aI3002
aa(lp6556
g2999
aI3003
aa(lp6557
g3000
aI3004
aa(lp6558
g3001
aI3005
aa(lp6559
g3002
aI3006
aa(lp6560
g3003
aI3007
aa(lp6561
g3004
aI3008
aa(lp6562
g3005
aI3009
aa(lp6563
g3006
aI3010
aa(lp6564
g3007
aI3011
aa(lp6565
g3008
aI3012
aa(lp6566
g3009
aI3013
aa(lp6567
g3010
aI3014
aa(lp6568
g3011
aI3015
aa(lp6569
g3012
aI3016
aa(lp6570
g3013
aI3017
aa(lp6571
g3014
aI3018
aa(lp6572
g3015
aI3019
aa(lp6573
g3016
aI3020
aa(lp6574
g3017
aI3021
aa(lp6575
g3018
aI3022
aa(lp6576
g3019
aI3023
aa(lp6577
g3020
aI3024
aa(lp6578
g3021
aI3025
aa(lp6579
g3022
aI3026
aa(lp6580
g3023
aI3027
aa(lp6581
g3024
aI3028
aa(lp6582
g3025
aI3029
aa(lp6583
g3026
aI3030
aa(lp6584
g3027
aI3031
aa(lp6585
g3028
aI3032
aa(lp6586
g3029
aI3033
aa(lp6587
g3030
aI3034
aa(lp6588
g3031
aI3035
aa(lp6589
g3032
aI3036
aa(lp6590
g3033
aI3037
aa(lp6591
g3034
aI3038
aa(lp6592
g3035
aI3039
aa(lp6593
g3036
aI3040
aa(lp6594
g3037
aI3041
aa(lp6595
g3038
aI3042
aa(lp6596
g3039
aI3043
aa(lp6597
g3040
aI3044
aa(lp6598
g3041
aI3045
aa(lp6599
g3042
aI3046
aa(lp6600
g3043
aI3047
aa(lp6601
g3044
aI3048
aa(lp6602
g3045
aI3049
aa(lp6603
g3046
aI3050
aa(lp6604
g3047
aI3051
aa(lp6605
g3048
aI3052
aa(lp6606
g3049
aI3053
aa(lp6607
g3050
aI3054
aa(lp6608
g3051
aI3055
aa(lp6609
g3052
aI3056
aa(lp6610
g3053
aI3057
aa(lp6611
g3054
aI3058
aa(lp6612
g3055
aI3059
aa(lp6613
g3056
aI3060
aa(lp6614
g3057
aI3061
aa(lp6615
g3058
aI3062
aa(lp6616
g3059
aI3063
aa(lp6617
g3060
aI3064
aa(lp6618
g3061
aI3065
aa(lp6619
g3062
aI3066
aa(lp6620
g3063
aI3067
aa(lp6621
g3064
aI3068
aa(lp6622
g3065
aI3069
aa(lp6623
g3066
aI3070
aa(lp6624
g3067
aI3071
aa(lp6625
g3068
aI3072
aa(lp6626
g3069
aI3073
aa(lp6627
g3070
aI3074
aa(lp6628
g3071
aI3075
aa(lp6629
g3072
aI3076
aa(lp6630
g3073
aI3077
aa(lp6631
g3074
aI3078
aa(lp6632
g3075
aI3079
aa(lp6633
g3076
aI3080
aa(lp6634
g3077
aI3081
aa(lp6635
g3078
aI3082
aa(lp6636
g3079
aI3083
aa(lp6637
g3080
aI3084
aa(lp6638
g3081
aI3085
aa(lp6639
g3082
aI3086
aa(lp6640
g3083
aI3087
aa(lp6641
g3084
aI3088
aa(lp6642
g3085
aI3089
aa(lp6643
g3086
aI3090
aa(lp6644
g3087
aI3091
aa(lp6645
g3088
aI3092
aa(lp6646
g3089
aI3093
aa(lp6647
g3090
aI3094
aa(lp6648
g3091
aI3095
aa(lp6649
g3092
aI3096
aa(lp6650
g3093
aI3097
aa(lp6651
g3094
aI3098
aa(lp6652
g3095
aI3099
aa(lp6653
g3096
aI3100
aa(lp6654
g3097
aI3101
aa(lp6655
g3098
aI3102
aa(lp6656
g3099
aI3103
aa(lp6657
g3100
aI3104
aa(lp6658
g3101
aI3105
aa(lp6659
g3102
aI3106
aa(lp6660
g3103
aI3107
aa(lp6661
g3104
aI3108
aa(lp6662
g3105
aI3109
aa(lp6663
g3106
aI3110
aa(lp6664
g3107
aI3111
aa(lp6665
g3108
aI3112
aa(lp6666
g3109
aI3113
aa(lp6667
g3110
aI3114
aa(lp6668
g3111
aI3115
aa(lp6669
g3112
aI3116
aa(lp6670
g3113
aI3117
aa(lp6671
g3114
aI3118
aa(lp6672
g3115
aI3119
aa(lp6673
g3116
aI3120
aa(lp6674
g3117
aI3121
aa(lp6675
g3118
aI3122
aa(lp6676
g3119
aI3123
aa(lp6677
g3120
aI3124
aa(lp6678
g3121
aI3125
aa(lp6679
g3122
aI3126
aa(lp6680
g3123
aI3127
aa(lp6681
g3124
aI3128
aa(lp6682
g3125
aI3129
aa(lp6683
g3126
aI3130
aa(lp6684
g3127
aI3131
aa(lp6685
g3128
aI3132
aa(lp6686
g3129
aI3133
aa(lp6687
g3130
aI3134
aa(lp6688
g3131
aI3135
aa(lp6689
g3132
aI3136
aa(lp6690
g3133
aI3137
aa(lp6691
g3134
aI3138
aa(lp6692
g3135
aI3139
aa(lp6693
g3136
aI3140
aa(lp6694
g3137
aI3141
aa(lp6695
g3138
aI3142
aa(lp6696
g3139
aI3143
aa(lp6697
g3140
aI3144
aa(lp6698
g3141
aI3145
aa(lp6699
g3142
aI3146
aa(lp6700
g3143
aI3147
aa(lp6701
g3144
aI3148
aa(lp6702
g3145
aI3149
aa(lp6703
g3146
aI3150
aa(lp6704
g3147
aI3151
aa(lp6705
g3148
aI3152
aa(lp6706
g3149
aI3153
aa(lp6707
g3150
aI3154
aa(lp6708
g3151
aI3155
aa(lp6709
g3152
aI3156
aa(lp6710
g3153
aI3157
aa(lp6711
g3154
aI3158
aa(lp6712
g3155
aI3159
aa(lp6713
g3156
aI3160
aa(lp6714
g3157
aI3161
aa(lp6715
g3158
aI3162
aa(lp6716
g3159
aI3163
aa(lp6717
g3160
aI3164
aa(lp6718
g3161
aI3165
aa(lp6719
g3162
aI3166
aa(lp6720
g3163
aI3167
aa(lp6721
g3164
aI3168
aa(lp6722
g3165
aI3169
aa(lp6723
g3166
aI3170
aa(lp6724
g3167
aI3171
aa(lp6725
g3168
aI3172
aa(lp6726
g3169
aI3173
aa(lp6727
g3170
aI3174
aa(lp6728
g3171
aI3175
aa(lp6729
g3172
aI3176
aa(lp6730
g3173
aI3177
aa(lp6731
g3174
aI3178
aa(lp6732
g3175
aI3179
aa(lp6733
g3176
aI3180
aa(lp6734
g3177
aI3181
aa(lp6735
g3178
aI3182
aa(lp6736
g3179
aI3183
aa(lp6737
g3180
aI3184
aa(lp6738
g3181
aI3185
aa(lp6739
g3182
aI3186
aa(lp6740
g3183
aI3187
aa(lp6741
g3184
aI3188
aa(lp6742
g3185
aI3189
aa(lp6743
g3186
aI3190
aa(lp6744
g3187
aI3191
aa(lp6745
g3188
aI3192
aa(lp6746
g3189
aI3193
aa(lp6747
g3190
aI3194
aa(lp6748
g3191
aI3195
aa(lp6749
g3192
aI3196
aa(lp6750
g3193
aI3197
aa(lp6751
g3194
aI3198
aa(lp6752
g3195
aI3199
aa(lp6753
g3196
aI3200
aa(lp6754
g3197
aI3201
aa(lp6755
g3198
aI3202
aa(lp6756
g3199
aI3203
aa(lp6757
g3200
aI3204
aa(lp6758
g3201
aI3205
aa(lp6759
g3202
aI3206
aa(lp6760
g3203
aI3207
aa(lp6761
g3204
aI3208
aa(lp6762
g3205
aI3209
aa(lp6763
g3206
aI3210
aa(lp6764
g3207
aI3211
aa(lp6765
g3208
aI3212
aa(lp6766
g3209
aI3213
aa(lp6767
g3210
aI3214
aa(lp6768
g3211
aI3215
aa(lp6769
g3212
aI3216
aa(lp6770
g3213
aI3217
aa(lp6771
g3214
aI3218
aa(lp6772
g3215
aI3219
aa(lp6773
g3216
aI3220
aa(lp6774
g3217
aI3221
aa(lp6775
g3218
aI3222
aa(lp6776
g3219
aI3223
aa(lp6777
g3220
aI3224
aa(lp6778
g3221
aI3225
aa(lp6779
g3222
aI3226
aa(lp6780
g3223
aI3227
aa(lp6781
g3224
aI3228
aa(lp6782
g3225
aI3229
aa(lp6783
g3226
aI3230
aa(lp6784
g3227
aI3231
aa(lp6785
g3228
aI3232
aa(lp6786
g3229
aI3233
aa(lp6787
g3230
aI3234
aa(lp6788
g3231
aI3235
aa(lp6789
g3232
aI3236
aa(lp6790
g3233
aI3237
aa(lp6791
g3234
aI3238
aa(lp6792
g3235
aI3239
aa(lp6793
g3236
aI3240
aa(lp6794
g3237
aI3241
aa(lp6795
g3238
aI3242
aa(lp6796
g3239
aI3243
aa(lp6797
g3240
aI3244
aa(lp6798
g3241
aI3245
aa(lp6799
g3242
aI3246
aa(lp6800
g3243
aI3247
aa(lp6801
g3244
aI3248
aa(lp6802
g3245
aI3249
aa(lp6803
g3246
aI3250
aa(lp6804
g3247
aI3251
aa(lp6805
g3248
aI3252
aa(lp6806
g3249
aI3253
aa(lp6807
g3250
aI3254
aa(lp6808
g3251
aI3255
aa(lp6809
g3252
aI3256
aa(lp6810
g3253
aI3257
aa(lp6811
g3254
aI3258
aa(lp6812
g3255
aI3259
aa(lp6813
g3256
aI3260
aa(lp6814
g3257
aI3261
aa(lp6815
g3258
aI3262
aa(lp6816
g3259
aI3263
aa(lp6817
g3260
aI3264
aa(lp6818
g3261
aI3265
aa(lp6819
g3262
aI3266
aa(lp6820
g3263
aI3267
aa(lp6821
g3264
aI3268
aa(lp6822
g3265
aI3269
aa(lp6823
g3266
aI3270
aa(lp6824
g3267
aI3271
aa(lp6825
g3268
aI3272
aa(lp6826
g3269
aI3273
aa(lp6827
g3270
aI3274
aa(lp6828
g3271
aI3275
aa(lp6829
g3272
aI3276
aa(lp6830
g3273
aI3277
aa(lp6831
g3274
aI3278
aa(lp6832
g3275
aI3279
aa(lp6833
g3276
aI3280
aa(lp6834
g3277
aI3281
aa(lp6835
g3278
aI3282
aa(lp6836
g3279
aI3283
aa(lp6837
g3280
aI3284
aa(lp6838
g3281
aI3285
aa(lp6839
g3282
aI3286
aa(lp6840
g3283
aI3287
aa(lp6841
g3284
aI3288
aa(lp6842
g3285
aI3289
aa(lp6843
g3286
aI3290
aa(lp6844
g3287
aI3291
aa(lp6845
g3288
aI3292
aa(lp6846
g3289
aI3293
aa(lp6847
g3290
aI3294
aa(lp6848
g3291
aI3295
aa(lp6849
g3292
aI3296
aa(lp6850
g3293
aI3297
aa(lp6851
g3294
aI3298
aa(lp6852
g3295
aI3299
aa(lp6853
g3296
aI3300
aa(lp6854
g3297
aI3301
aa(lp6855
g3298
aI3302
aa(lp6856
g3299
aI3303
aa(lp6857
g3300
aI3304
aa(lp6858
g3301
aI3305
aa(lp6859
g3302
aI3306
aa(lp6860
g3303
aI3307
aa(lp6861
g3304
aI3308
aa(lp6862
g3305
aI3309
aa(lp6863
g3306
aI3310
aa(lp6864
g3307
aI3311
aa(lp6865
g3308
aI3312
aa(lp6866
g3309
aI3313
aa(lp6867
g3310
aI3314
aa(lp6868
g3311
aI3315
aa(lp6869
g3312
aI3316
aa(lp6870
g3313
aI3317
aa(lp6871
g3314
aI3318
aa(lp6872
g3315
aI3319
aa(lp6873
g3316
aI3320
aa(lp6874
g3317
aI3321
aa(lp6875
g3318
aI3322
aa(lp6876
g3319
aI3323
aa(lp6877
g3320
aI3324
aa(lp6878
g3321
aI3325
aa(lp6879
g3322
aI3326
aa(lp6880
g3323
aI3327
aa(lp6881
g3324
aI3328
aa(lp6882
g3325
aI3329
aa(lp6883
g3326
aI3330
aa(lp6884
g3327
aI3331
aa(lp6885
g3328
aI3332
aa(lp6886
g3329
aI3333
aa(lp6887
g3330
aI3334
aa(lp6888
g3331
aI3335
aa(lp6889
S'P'
aI3336
aa(lp6890
g3332
aI3337
aa(lp6891
g3333
aI3338
aa(lp6892
g3334
aI3339
aa(lp6893
g3335
aI3340
aa(lp6894
g3336
aI3341
aa(lp6895
g3337
aI3342
aa(lp6896
g3338
aI3343
aa(lp6897
g3339
aI3344
aa(lp6898
g3340
aI3345
aa(lp6899
g3341
aI3346
aa(lp6900
g3342
aI3347
aa(lp6901
g3343
aI3348
aa(lp6902
g3344
aI3349
aa(lp6903
g3345
aI3350
aa(lp6904
g3346
aI3351
aa(lp6905
g3347
aI3352
aa(lp6906
g3348
aI3353
aa(lp6907
g3349
aI3354
aa(lp6908
g3350
aI3355
aa(lp6909
g3351
aI3356
aa(lp6910
g3352
aI3357
aa(lp6911
g3353
aI3358
aa(lp6912
g3354
aI3359
aa(lp6913
g3355
aI3360
aa(lp6914
g3356
aI3361
aa(lp6915
g3357
aI3362
aa(lp6916
g3358
aI3363
aa(lp6917
g3359
aI3364
aa(lp6918
g3360
aI3365
aa(lp6919
g3361
aI3366
aa(lp6920
g3362
aI3367
aa(lp6921
g3363
aI3368
aa(lp6922
g3364
aI3369
aa(lp6923
g3365
aI3370
aa(lp6924
g3366
aI3371
aa(lp6925
g3367
aI3372
aa(lp6926
g3368
aI3373
aa(lp6927
g3369
aI3374
aa(lp6928
g3370
aI3375
aa(lp6929
g3371
aI3376
aa(lp6930
g3372
aI3377
aa(lp6931
g3373
aI3378
aa(lp6932
g3374
aI3379
aa(lp6933
g3375
aI3380
aa(lp6934
g3376
aI3381
aa(lp6935
g3377
aI3382
aa(lp6936
g3378
aI3383
aa(lp6937
g3379
aI3384
aa(lp6938
g3380
aI3385
aa(lp6939
g3381
aI3386
aa(lp6940
g3382
aI3387
aa(lp6941
g3383
aI3388
aa(lp6942
g3384
aI3389
aa(lp6943
g3385
aI3390
aa(lp6944
g3386
aI3391
aa(lp6945
g3387
aI3392
aa(lp6946
g3388
aI3393
aa(lp6947
g3389
aI3394
aa(lp6948
g3390
aI3395
aa(lp6949
g3391
aI3396
aa(lp6950
g3392
aI3397
aa(lp6951
g3393
aI3398
aa(lp6952
g3394
aI3399
aa(lp6953
g3395
aI3400
aa(lp6954
g3396
aI3401
aa(lp6955
g3397
aI3402
aa(lp6956
g3398
aI3403
aa(lp6957
g3399
aI3404
aa(lp6958
g3400
aI3405
aa(lp6959
g3401
aI3406
aa(lp6960
g3402
aI3407
aa(lp6961
g3403
aI3408
aa(lp6962
g3404
aI3409
aa(lp6963
g3405
aI3410
aa(lp6964
g3406
aI3411
aa(lp6965
g3407
aI3412
aa(lp6966
g3408
aI3413
aa(lp6967
g3409
aI3414
aa(lp6968
g3410
aI3415
aa(lp6969
g3411
aI3416
aa(lp6970
g3412
aI3417
aa(lp6971
g3413
aI3418
aa(lp6972
g3414
aI3419
aa(lp6973
g3415
aI3420
aa(lp6974
g3416
aI3421
aa(lp6975
g3417
aI3422
aa(lp6976
g3418
aI3423
aa(lp6977
g3419
aI3424
aa(lp6978
g3420
aI3425
aa(lp6979
g3421
aI3426
aa(lp6980
g3422
aI3427
aa(lp6981
g3423
aI3428
aa(lp6982
g3424
aI3429
aa(lp6983
g3425
aI3430
aa(lp6984
g3426
aI3431
aa(lp6985
g3427
aI3432
aa(lp6986
g3428
aI3433
aa(lp6987
g3429
aI3434
aa(lp6988
g3430
aI3435
aa(lp6989
g3431
aI3436
aa(lp6990
g3432
aI3437
aa(lp6991
g3433
aI3438
aa(lp6992
g3434
aI3439
aa(lp6993
g3435
aI3440
aa(lp6994
g3436
aI3441
aa(lp6995
g3437
aI3442
aa(lp6996
g3438
aI3443
aa(lp6997
g3439
aI3444
aa(lp6998
g3440
aI3445
aa(lp6999
g3441
aI3446
aa(lp7000
g3442
aI3447
aa(lp7001
g3443
aI3448
aa(lp7002
g3444
aI3449
aa(lp7003
g3445
aI3450
aa(lp7004
g3446
aI3451
aa(lp7005
g3447
aI3452
aa(lp7006
g3448
aI3453
aa(lp7007
g3449
aI3454
aa(lp7008
g3450
aI3455
aa(lp7009
g3451
aI3456
aa(lp7010
g3452
aI3457
aa(lp7011
g3453
aI3458
aa(lp7012
g3454
aI3459
aa(lp7013
g3455
aI3460
aa(lp7014
g3456
aI3461
aa(lp7015
g3457
aI3462
aa(lp7016
g3458
aI3463
aa(lp7017
g3459
aI3464
aa(lp7018
g3460
aI3465
aa(lp7019
g3461
aI3466
aa(lp7020
g3462
aI3467
aa(lp7021
g3463
aI3468
aa(lp7022
g3464
aI3469
aa(lp7023
g3465
aI3470
aa(lp7024
g3466
aI3471
aa(lp7025
g3467
aI3472
aa(lp7026
g3468
aI3473
aa(lp7027
g3469
aI3474
aa(lp7028
g3470
aI3475
aa(lp7029
g3471
aI3476
aa(lp7030
g3472
aI3477
aa(lp7031
g3473
aI3478
aa(lp7032
g3474
aI3479
aa(lp7033
g3475
aI3480
aa(lp7034
g3476
aI3481
aa(lp7035
g3477
aI3482
aa(lp7036
g3478
aI3483
aa(lp7037
g3479
aI3484
aa(lp7038
g3480
aI3485
aa(lp7039
g3481
aI3486
aa(lp7040
g3482
aI3487
aa(lp7041
g3483
aI3488
aa(lp7042
g3484
aI3489
aa(lp7043
g3485
aI3490
aa(lp7044
g3486
aI3491
aa(lp7045
g3487
aI3492
aa(lp7046
g3488
aI3493
aa(lp7047
g3489
aI3494
aa(lp7048
g3490
aI3495
aa(lp7049
g3491
aI3496
aa(lp7050
g3492
aI3497
aa(lp7051
g3493
aI3498
aa(lp7052
g3494
aI3499
aa(lp7053
g3495
aI3500
aa(lp7054
g3496
aI3501
aa(lp7055
g3497
aI3502
aa(lp7056
g3498
aI3503
aa(lp7057
g3499
aI3504
aa(lp7058
g3500
aI3505
aa(lp7059
g3501
aI3506
aa(lp7060
g3502
aI3507
aa(lp7061
g3503
aI3508
aa(lp7062
g3504
aI3509
aa(lp7063
g3505
aI3510
aa(lp7064
g3506
aI3511
aa(lp7065
g3507
aI3512
aa(lp7066
g3508
aI3513
aa(lp7067
g3509
aI3514
aa(lp7068
g3510
aI3515
aa(lp7069
g3511
aI3516
aa(lp7070
g3512
aI3517
aa(lp7071
g3513
aI3518
aa(lp7072
g3514
aI3519
aa(lp7073
g3515
aI3520
aa(lp7074
g3516
aI3521
aa(lp7075
g3517
aI3522
aa(lp7076
g3518
aI3523
aa(lp7077
g3519
aI3524
aa(lp7078
g3520
aI3525
aa(lp7079
g3521
aI3526
aa(lp7080
g3522
aI3527
aa(lp7081
g3523
aI3528
aa(lp7082
g3524
aI3529
aa(lp7083
g3525
aI3530
aa(lp7084
g3526
aI3531
aa(lp7085
g3527
aI3532
aa(lp7086
g3528
aI3533
aa(lp7087
g3529
aI3534
aa(lp7088
g3530
aI3535
aa(lp7089
g3531
aI3536
aa(lp7090
g3532
aI3537
aa(lp7091
g3533
aI3538
aa(lp7092
g3534
aI3539
aa(lp7093
g3535
aI3540
aa(lp7094
g3536
aI3541
aa(lp7095
g3537
aI3542
aa(lp7096
g3538
aI3543
aa(lp7097
g3539
aI3544
aa(lp7098
g3540
aI3545
aa(lp7099
g3541
aI3546
aa(lp7100
g3542
aI3547
aa(lp7101
g3543
aI3548
aa(lp7102
g3544
aI3549
aa(lp7103
g3545
aI3550
aa(lp7104
g3546
aI3551
aa(lp7105
g3547
aI3552
aa(lp7106
g3548
aI3553
aa(lp7107
g3549
aI3554
aa(lp7108
g3550
aI3555
aatRp7109
sS'dim_image'
p7110
I512
sS'dispFreq'
p7111
I10
sS'margin'
p7112
F0.20000000000000001
sS'reload_'
p7113
I00
sS'n_words'
p7114
I3554
sS'validFreq'
p7115
I100
s.